
QEPU_Project_Atmega32.elf:     file format elf32-avr

Sections:
Idx Name          Size      VMA       LMA       File off  Algn
  0 .text         0000734a  00000000  00000000  000000b4  2**1
                  CONTENTS, ALLOC, LOAD, READONLY, CODE
  1 .data         000000c8  00800060  0000734a  000073fe  2**0
                  CONTENTS, ALLOC, LOAD, DATA
  2 .bss          00000010  00800128  00800128  000074c6  2**0
                  ALLOC
  3 .eeprom       00000002  00810000  00810000  000074c6  2**0
                  CONTENTS, ALLOC, LOAD, DATA
  4 .comment      0000005c  00000000  00000000  000074c8  2**0
                  CONTENTS, READONLY
  5 .debug_aranges 00000418  00000000  00000000  00007524  2**0
                  CONTENTS, READONLY, DEBUGGING
  6 .debug_info   00012d63  00000000  00000000  0000793c  2**0
                  CONTENTS, READONLY, DEBUGGING
  7 .debug_abbrev 00001d34  00000000  00000000  0001a69f  2**0
                  CONTENTS, READONLY, DEBUGGING
  8 .debug_line   000017be  00000000  00000000  0001c3d3  2**0
                  CONTENTS, READONLY, DEBUGGING
  9 .debug_frame  000015f0  00000000  00000000  0001db94  2**2
                  CONTENTS, READONLY, DEBUGGING
 10 .debug_str    0000123c  00000000  00000000  0001f184  2**0
                  CONTENTS, READONLY, DEBUGGING
 11 .debug_loc    00007263  00000000  00000000  000203c0  2**0
                  CONTENTS, READONLY, DEBUGGING
 12 .debug_ranges 00000458  00000000  00000000  00027623  2**0
                  CONTENTS, READONLY, DEBUGGING

Disassembly of section .text:

00000000 <__vectors>:
       0:	0c 94 e3 00 	jmp	0x1c6	; 0x1c6 <__ctors_end>
       4:	0c 94 0b 01 	jmp	0x216	; 0x216 <__bad_interrupt>
       8:	0c 94 0b 01 	jmp	0x216	; 0x216 <__bad_interrupt>
       c:	0c 94 0b 01 	jmp	0x216	; 0x216 <__bad_interrupt>
      10:	0c 94 0b 01 	jmp	0x216	; 0x216 <__bad_interrupt>
      14:	0c 94 0b 01 	jmp	0x216	; 0x216 <__bad_interrupt>
      18:	0c 94 0b 01 	jmp	0x216	; 0x216 <__bad_interrupt>
      1c:	0c 94 0b 01 	jmp	0x216	; 0x216 <__bad_interrupt>
      20:	0c 94 0b 01 	jmp	0x216	; 0x216 <__bad_interrupt>
      24:	0c 94 0b 01 	jmp	0x216	; 0x216 <__bad_interrupt>
      28:	0c 94 0b 01 	jmp	0x216	; 0x216 <__bad_interrupt>
      2c:	0c 94 0b 01 	jmp	0x216	; 0x216 <__bad_interrupt>
      30:	0c 94 0b 01 	jmp	0x216	; 0x216 <__bad_interrupt>
      34:	0c 94 0b 01 	jmp	0x216	; 0x216 <__bad_interrupt>
      38:	0c 94 0b 01 	jmp	0x216	; 0x216 <__bad_interrupt>
      3c:	0c 94 0b 01 	jmp	0x216	; 0x216 <__bad_interrupt>
      40:	0c 94 0b 01 	jmp	0x216	; 0x216 <__bad_interrupt>
      44:	0c 94 0b 01 	jmp	0x216	; 0x216 <__bad_interrupt>
      48:	0c 94 0b 01 	jmp	0x216	; 0x216 <__bad_interrupt>
      4c:	0c 94 0b 01 	jmp	0x216	; 0x216 <__bad_interrupt>
      50:	0c 94 0b 01 	jmp	0x216	; 0x216 <__bad_interrupt>
      54:	ce 21       	and	r28, r14
      56:	f2 21       	and	r31, r2
      58:	0b 22       	and	r0, r27
      5a:	1f 22       	and	r1, r31
      5c:	2e 22       	and	r2, r30
      5e:	40 22       	and	r4, r16
      60:	4a 22       	and	r4, r26
      62:	53 22       	and	r5, r19
      64:	60 22       	and	r6, r16
      66:	6d 22       	and	r6, r29
      68:	78 22       	and	r7, r24
      6a:	83 22       	and	r8, r19
      6c:	94 22       	and	r9, r20
      6e:	9b 22       	and	r9, r27
      70:	ab 22       	and	r10, r27
      72:	af 22       	and	r10, r31
      74:	cc 22       	and	r12, r28
      76:	ee 22       	and	r14, r30
      78:	0f 23       	and	r16, r31
      7a:	2f 23       	and	r18, r31
      7c:	4f 23       	and	r20, r31
      7e:	6f 23       	and	r22, r31
      80:	8f 23       	and	r24, r31
      82:	af 23       	and	r26, r31
      84:	c5 23       	and	r28, r21
      86:	d2 23       	and	r29, r18
      88:	dc 23       	and	r29, r28
      8a:	f9 23       	and	r31, r25
      8c:	16 24       	eor	r1, r6
      8e:	2f 24       	eor	r2, r15
      90:	4f 24       	eor	r4, r15
      92:	69 24       	eor	r6, r9
      94:	83 24       	eor	r8, r3
      96:	9f 24       	eor	r9, r15
      98:	b9 24       	eor	r11, r9
      9a:	d5 24       	eor	r13, r5
      9c:	ea 24       	eor	r14, r10
      9e:	02 25       	eor	r16, r2
      a0:	1a 25       	eor	r17, r10
      a2:	20 25       	eor	r18, r0
      a4:	00 2b       	or	r16, r16
      a6:	28 25       	eor	r18, r8
      a8:	35 25       	eor	r19, r5
      aa:	63 25       	eor	r22, r3
      ac:	91 25       	eor	r25, r1
      ae:	bf 25       	eor	r27, r15
      b0:	ed 25       	eor	r30, r13
      b2:	1b 26       	eor	r1, r27
      b4:	49 26       	eor	r4, r25
      b6:	79 26       	eor	r7, r25
      b8:	a9 26       	eor	r10, r25
      ba:	d9 26       	eor	r13, r25
      bc:	34 27       	eor	r19, r20
      be:	8f 27       	eor	r24, r31
      c0:	ea 27       	eor	r30, r26
      c2:	45 28       	or	r4, r5
      c4:	a0 28       	or	r10, r0
      c6:	fb 28       	or	r15, r11
      c8:	56 29       	or	r21, r6
      ca:	df 29       	or	r29, r15
      cc:	68 2a       	or	r6, r24
      ce:	08 4a       	sbci	r16, 0xA8	; 168
      d0:	d7 3b       	cpi	r29, 0xB7	; 183
      d2:	3b ce       	rjmp	.-906    	; 0xfffffd4a <__eeprom_end+0xff7efd48>
      d4:	01 6e       	ori	r16, 0xE1	; 225
      d6:	84 bc       	out	0x24, r8	; 36
      d8:	bf fd       	.word	0xfdbf	; ????
      da:	c1 2f       	mov	r28, r17
      dc:	3d 6c       	ori	r19, 0xCD	; 205
      de:	74 31       	cpi	r23, 0x14	; 20
      e0:	9a bd       	out	0x2a, r25	; 42
      e2:	56 83       	std	Z+6, r21	; 0x06
      e4:	3d da       	rcall	.-2950   	; 0xfffff560 <__eeprom_end+0xff7ef55e>
      e6:	3d 00       	.word	0x003d	; ????
      e8:	c7 7f       	andi	r28, 0xF7	; 247
      ea:	11 be       	out	0x31, r1	; 49
      ec:	d9 e4       	ldi	r29, 0x49	; 73
      ee:	bb 4c       	sbci	r27, 0xCB	; 203
      f0:	3e 91       	ld	r19, -X
      f2:	6b aa       	std	Y+51, r6	; 0x33
      f4:	aa be       	out	0x3a, r10	; 58
      f6:	00 00       	nop
      f8:	00 80       	ld	r0, Z
      fa:	3f 07       	cpc	r19, r31
      fc:	63 42       	sbci	r22, 0x23	; 35
      fe:	36 b7       	in	r19, 0x36	; 54
     100:	9b d8       	rcall	.-3786   	; 0xfffff238 <__eeprom_end+0xff7ef236>
     102:	a7 1a       	sub	r10, r23
     104:	39 68       	ori	r19, 0x89	; 137
     106:	56 18       	sub	r5, r6
     108:	ae ba       	out	0x1e, r10	; 30
     10a:	ab 55       	subi	r26, 0x5B	; 91
     10c:	8c 1d       	adc	r24, r12
     10e:	3c b7       	in	r19, 0x3c	; 60
     110:	cc 57       	subi	r28, 0x7C	; 124
     112:	63 bd       	out	0x23, r22	; 35
     114:	6d ed       	ldi	r22, 0xDD	; 221
     116:	fd 75       	andi	r31, 0x5D	; 93
     118:	3e f6       	brtc	.-114    	; 0xa8 <__SREG__+0x69>
     11a:	17 72       	andi	r17, 0x27	; 39
     11c:	31 bf       	out	0x31, r19	; 49
     11e:	00 00       	nop
     120:	00 80       	ld	r0, Z
     122:	3f 07       	cpc	r19, r31
     124:	2c 7a       	andi	r18, 0xAC	; 172
     126:	a5 ba       	out	0x15, r10	; 21
     128:	6c c5       	rjmp	.+2776   	; 0xc02 <_ZN5Gates8ampl2vecEiPiS0_+0x86>
     12a:	90 da       	rcall	.-2784   	; 0xfffff64c <__eeprom_end+0xff7ef64a>
     12c:	3b 93       	.word	0x933b	; ????
     12e:	65 fc       	sbrc	r6, 5
     130:	8b bc       	out	0x2b, r8	; 43
     132:	53 f8       	bld	r5, 3
     134:	10 fd       	sbrc	r17, 0
     136:	3c 56       	subi	r19, 0x6C	; 108
     138:	92 83       	std	Z+2, r25	; 0x02
     13a:	4d bd       	out	0x2d, r20	; 45
     13c:	87 9d       	mul	r24, r7
     13e:	3a b6       	in	r3, 0x3a	; 58
     140:	3d cb       	rjmp	.-2438   	; 0xfffff7bc <__eeprom_end+0xff7ef7ba>
     142:	c9 bf       	out	0x39, r28	; 57
     144:	5b be       	out	0x3b, r5	; 59
     146:	73 da       	rcall	.-2842   	; 0xfffff62e <__eeprom_end+0xff7ef62c>
     148:	0f c9       	rjmp	.-3554   	; 0xfffff368 <__eeprom_end+0xff7ef366>
     14a:	3f 05       	cpc	r19, r15
     14c:	a8 4c       	sbci	r26, 0xC8	; 200
     14e:	cd b2       	in	r12, 0x1d	; 29
     150:	d4 4e       	sbci	r29, 0xE4	; 228
     152:	b9 38       	cpi	r27, 0x89	; 137
     154:	36 a9       	ldd	r19, Z+54	; 0x36
     156:	02 0c       	add	r0, r2
     158:	50 b9       	out	0x00, r21	; 0
     15a:	91 86       	std	Z+9, r9	; 0x09
     15c:	88 08       	sbc	r8, r8
     15e:	3c a6       	std	Y+44, r3	; 0x2c
     160:	aa aa       	std	Y+50, r10	; 0x32
     162:	2a be       	out	0x3a, r2	; 58
     164:	00 00       	nop
     166:	00 80       	ld	r0, Z
     168:	3f 08       	sbc	r3, r15
     16a:	00 00       	nop
     16c:	00 be       	out	0x30, r0	; 48
     16e:	92 24       	eor	r9, r2
     170:	49 12       	cpse	r4, r25
     172:	3e ab       	std	Y+54, r19	; 0x36
     174:	aa aa       	std	Y+50, r10	; 0x32
     176:	2a be       	out	0x3a, r2	; 58
     178:	cd cc       	rjmp	.-1638   	; 0xfffffb14 <__eeprom_end+0xff7efb12>
     17a:	cc 4c       	sbci	r28, 0xCC	; 204
     17c:	3e 00       	.word	0x003e	; ????
     17e:	00 00       	nop
     180:	80 be       	out	0x30, r8	; 48
     182:	ab aa       	std	Y+51, r10	; 0x33
     184:	aa aa       	std	Y+50, r10	; 0x32
     186:	3e 00       	.word	0x003e	; ????
     188:	00 00       	nop
     18a:	00 bf       	out	0x30, r16	; 48
     18c:	00 00       	nop
     18e:	00 80       	ld	r0, Z
     190:	3f 00       	.word	0x003f	; ????
     192:	00 00       	nop
     194:	00 00       	nop
     196:	08 41       	sbci	r16, 0x18	; 24
     198:	78 d3       	rcall	.+1776   	; 0x88a <__stack+0x2b>
     19a:	bb 43       	sbci	r27, 0x3B	; 59
     19c:	87 d1       	rcall	.+782    	; 0x4ac <_ZN6EEProm4readEj+0x4a>
     19e:	13 3d       	cpi	r17, 0xD3	; 211
     1a0:	19 0e       	add	r1, r25
     1a2:	3c c3       	rjmp	.+1656   	; 0x81c <_ZN5Gates17reverse_kroneckerEP7Complexi+0x90>
     1a4:	bd 42       	sbci	r27, 0x2D	; 45
     1a6:	82 ad       	ldd	r24, Z+58	; 0x3a
     1a8:	2b 3e       	cpi	r18, 0xEB	; 235
     1aa:	68 ec       	ldi	r22, 0xC8	; 200
     1ac:	82 76       	andi	r24, 0x62	; 98
     1ae:	be d9       	rcall	.-3204   	; 0xfffff52c <__eeprom_end+0xff7ef52a>
     1b0:	8f e1       	ldi	r24, 0x1F	; 31
     1b2:	a9 3e       	cpi	r26, 0xE9	; 233
     1b4:	4c 80       	ldd	r4, Y+4	; 0x04
     1b6:	ef ff       	.word	0xffef	; ????
     1b8:	be 01       	movw	r22, r28
     1ba:	c4 ff       	sbrs	r28, 4
     1bc:	7f 3f       	cpi	r23, 0xFF	; 255
     1be:	00 00       	nop
     1c0:	00 00       	nop
	...

000001c4 <__ctors_start>:
     1c4:	12 1e       	adc	r1, r18

000001c6 <__ctors_end>:
     1c6:	11 24       	eor	r1, r1
     1c8:	1f be       	out	0x3f, r1	; 63
     1ca:	cf e5       	ldi	r28, 0x5F	; 95
     1cc:	d8 e0       	ldi	r29, 0x08	; 8
     1ce:	de bf       	out	0x3e, r29	; 62
     1d0:	cd bf       	out	0x3d, r28	; 61

000001d2 <__do_copy_data>:
     1d2:	11 e0       	ldi	r17, 0x01	; 1
     1d4:	a0 e6       	ldi	r26, 0x60	; 96
     1d6:	b0 e0       	ldi	r27, 0x00	; 0
     1d8:	ea e4       	ldi	r30, 0x4A	; 74
     1da:	f3 e7       	ldi	r31, 0x73	; 115
     1dc:	02 c0       	rjmp	.+4      	; 0x1e2 <__do_copy_data+0x10>
     1de:	05 90       	lpm	r0, Z+
     1e0:	0d 92       	st	X+, r0
     1e2:	a8 32       	cpi	r26, 0x28	; 40
     1e4:	b1 07       	cpc	r27, r17
     1e6:	d9 f7       	brne	.-10     	; 0x1de <__do_copy_data+0xc>

000001e8 <__do_clear_bss>:
     1e8:	21 e0       	ldi	r18, 0x01	; 1
     1ea:	a8 e2       	ldi	r26, 0x28	; 40
     1ec:	b1 e0       	ldi	r27, 0x01	; 1
     1ee:	01 c0       	rjmp	.+2      	; 0x1f2 <.do_clear_bss_start>

000001f0 <.do_clear_bss_loop>:
     1f0:	1d 92       	st	X+, r1

000001f2 <.do_clear_bss_start>:
     1f2:	a8 33       	cpi	r26, 0x38	; 56
     1f4:	b2 07       	cpc	r27, r18
     1f6:	e1 f7       	brne	.-8      	; 0x1f0 <.do_clear_bss_loop>

000001f8 <__do_global_ctors>:
     1f8:	11 e0       	ldi	r17, 0x01	; 1
     1fa:	c6 ec       	ldi	r28, 0xC6	; 198
     1fc:	d1 e0       	ldi	r29, 0x01	; 1
     1fe:	04 c0       	rjmp	.+8      	; 0x208 <__do_global_ctors+0x10>
     200:	22 97       	sbiw	r28, 0x02	; 2
     202:	fe 01       	movw	r30, r28
     204:	0e 94 4b 33 	call	0x6696	; 0x6696 <__tablejump__>
     208:	c4 3c       	cpi	r28, 0xC4	; 196
     20a:	d1 07       	cpc	r29, r17
     20c:	c9 f7       	brne	.-14     	; 0x200 <__do_global_ctors+0x8>
     20e:	0e 94 4d 2c 	call	0x589a	; 0x589a <main>
     212:	0c 94 a3 39 	jmp	0x7346	; 0x7346 <_exit>

00000216 <__bad_interrupt>:
     216:	0c 94 00 00 	jmp	0	; 0x0 <__vectors>

0000021a <_ZN7ComplexC1Eff>:
     21a:	0f 93       	push	r16
     21c:	1f 93       	push	r17
     21e:	fc 01       	movw	r30, r24
     220:	40 83       	st	Z, r20
     222:	51 83       	std	Z+1, r21	; 0x01
     224:	62 83       	std	Z+2, r22	; 0x02
     226:	73 83       	std	Z+3, r23	; 0x03
     228:	04 83       	std	Z+4, r16	; 0x04
     22a:	15 83       	std	Z+5, r17	; 0x05
     22c:	26 83       	std	Z+6, r18	; 0x06
     22e:	37 83       	std	Z+7, r19	; 0x07
     230:	1f 91       	pop	r17
     232:	0f 91       	pop	r16
     234:	08 95       	ret

00000236 <_ZN7ComplexC1Ev>:
     236:	fc 01       	movw	r30, r24
     238:	10 82       	st	Z, r1
     23a:	11 82       	std	Z+1, r1	; 0x01
     23c:	12 82       	std	Z+2, r1	; 0x02
     23e:	13 82       	std	Z+3, r1	; 0x03
     240:	14 82       	std	Z+4, r1	; 0x04
     242:	15 82       	std	Z+5, r1	; 0x05
     244:	16 82       	std	Z+6, r1	; 0x06
     246:	17 82       	std	Z+7, r1	; 0x07
     248:	08 95       	ret

0000024a <_ZN7Complex3addES_>:
     24a:	af 92       	push	r10
     24c:	bf 92       	push	r11
     24e:	cf 92       	push	r12
     250:	df 92       	push	r13
     252:	ef 92       	push	r14
     254:	ff 92       	push	r15
     256:	0f 93       	push	r16
     258:	1f 93       	push	r17
     25a:	cf 93       	push	r28
     25c:	df 93       	push	r29
     25e:	cd b7       	in	r28, 0x3d	; 61
     260:	de b7       	in	r29, 0x3e	; 62
     262:	68 97       	sbiw	r28, 0x18	; 24
     264:	0f b6       	in	r0, 0x3f	; 63
     266:	f8 94       	cli
     268:	de bf       	out	0x3e, r29	; 62
     26a:	0f be       	out	0x3f, r0	; 63
     26c:	cd bf       	out	0x3d, r28	; 61
     26e:	5c 01       	movw	r10, r24
     270:	09 8b       	std	Y+17, r16	; 0x11
     272:	1a 8b       	std	Y+18, r17	; 0x12
     274:	2b 8b       	std	Y+19, r18	; 0x13
     276:	3c 8b       	std	Y+20, r19	; 0x14
     278:	4d 8b       	std	Y+21, r20	; 0x15
     27a:	5e 8b       	std	Y+22, r21	; 0x16
     27c:	6f 8b       	std	Y+23, r22	; 0x17
     27e:	78 8f       	std	Y+24, r23	; 0x18
     280:	2d 89       	ldd	r18, Y+21	; 0x15
     282:	3e 89       	ldd	r19, Y+22	; 0x16
     284:	4f 89       	ldd	r20, Y+23	; 0x17
     286:	58 8d       	ldd	r21, Y+24	; 0x18
     288:	fc 01       	movw	r30, r24
     28a:	64 81       	ldd	r22, Z+4	; 0x04
     28c:	75 81       	ldd	r23, Z+5	; 0x05
     28e:	86 81       	ldd	r24, Z+6	; 0x06
     290:	97 81       	ldd	r25, Z+7	; 0x07
     292:	0e 94 20 2f 	call	0x5e40	; 0x5e40 <__addsf3>
     296:	6b 01       	movw	r12, r22
     298:	7c 01       	movw	r14, r24
     29a:	29 89       	ldd	r18, Y+17	; 0x11
     29c:	3a 89       	ldd	r19, Y+18	; 0x12
     29e:	4b 89       	ldd	r20, Y+19	; 0x13
     2a0:	5c 89       	ldd	r21, Y+20	; 0x14
     2a2:	f5 01       	movw	r30, r10
     2a4:	60 81       	ld	r22, Z
     2a6:	71 81       	ldd	r23, Z+1	; 0x01
     2a8:	82 81       	ldd	r24, Z+2	; 0x02
     2aa:	93 81       	ldd	r25, Z+3	; 0x03
     2ac:	0e 94 20 2f 	call	0x5e40	; 0x5e40 <__addsf3>
     2b0:	ab 01       	movw	r20, r22
     2b2:	bc 01       	movw	r22, r24
     2b4:	97 01       	movw	r18, r14
     2b6:	86 01       	movw	r16, r12
     2b8:	ce 01       	movw	r24, r28
     2ba:	01 96       	adiw	r24, 0x01	; 1
     2bc:	0e 94 0d 01 	call	0x21a	; 0x21a <_ZN7ComplexC1Eff>
     2c0:	88 e0       	ldi	r24, 0x08	; 8
     2c2:	fe 01       	movw	r30, r28
     2c4:	31 96       	adiw	r30, 0x01	; 1
     2c6:	de 01       	movw	r26, r28
     2c8:	19 96       	adiw	r26, 0x09	; 9
     2ca:	01 90       	ld	r0, Z+
     2cc:	0d 92       	st	X+, r0
     2ce:	8a 95       	dec	r24
     2d0:	e1 f7       	brne	.-8      	; 0x2ca <_ZN7Complex3addES_+0x80>
     2d2:	29 85       	ldd	r18, Y+9	; 0x09
     2d4:	3a 85       	ldd	r19, Y+10	; 0x0a
     2d6:	4b 85       	ldd	r20, Y+11	; 0x0b
     2d8:	5c 85       	ldd	r21, Y+12	; 0x0c
     2da:	6d 85       	ldd	r22, Y+13	; 0x0d
     2dc:	7e 85       	ldd	r23, Y+14	; 0x0e
     2de:	8f 85       	ldd	r24, Y+15	; 0x0f
     2e0:	98 89       	ldd	r25, Y+16	; 0x10
     2e2:	68 96       	adiw	r28, 0x18	; 24
     2e4:	0f b6       	in	r0, 0x3f	; 63
     2e6:	f8 94       	cli
     2e8:	de bf       	out	0x3e, r29	; 62
     2ea:	0f be       	out	0x3f, r0	; 63
     2ec:	cd bf       	out	0x3d, r28	; 61
     2ee:	df 91       	pop	r29
     2f0:	cf 91       	pop	r28
     2f2:	1f 91       	pop	r17
     2f4:	0f 91       	pop	r16
     2f6:	ff 90       	pop	r15
     2f8:	ef 90       	pop	r14
     2fa:	df 90       	pop	r13
     2fc:	cf 90       	pop	r12
     2fe:	bf 90       	pop	r11
     300:	af 90       	pop	r10
     302:	08 95       	ret

00000304 <_ZN7Complex3mulES_>:
     304:	4f 92       	push	r4
     306:	5f 92       	push	r5
     308:	6f 92       	push	r6
     30a:	7f 92       	push	r7
     30c:	8f 92       	push	r8
     30e:	9f 92       	push	r9
     310:	af 92       	push	r10
     312:	bf 92       	push	r11
     314:	cf 92       	push	r12
     316:	df 92       	push	r13
     318:	ef 92       	push	r14
     31a:	ff 92       	push	r15
     31c:	0f 93       	push	r16
     31e:	1f 93       	push	r17
     320:	cf 93       	push	r28
     322:	df 93       	push	r29
     324:	cd b7       	in	r28, 0x3d	; 61
     326:	de b7       	in	r29, 0x3e	; 62
     328:	a0 97       	sbiw	r28, 0x20	; 32
     32a:	0f b6       	in	r0, 0x3f	; 63
     32c:	f8 94       	cli
     32e:	de bf       	out	0x3e, r29	; 62
     330:	0f be       	out	0x3f, r0	; 63
     332:	cd bf       	out	0x3d, r28	; 61
     334:	09 8b       	std	Y+17, r16	; 0x11
     336:	1a 8b       	std	Y+18, r17	; 0x12
     338:	2b 8b       	std	Y+19, r18	; 0x13
     33a:	3c 8b       	std	Y+20, r19	; 0x14
     33c:	4d 8b       	std	Y+21, r20	; 0x15
     33e:	5e 8b       	std	Y+22, r21	; 0x16
     340:	6f 8b       	std	Y+23, r22	; 0x17
     342:	78 8f       	std	Y+24, r23	; 0x18
     344:	89 88       	ldd	r8, Y+17	; 0x11
     346:	9a 88       	ldd	r9, Y+18	; 0x12
     348:	ab 88       	ldd	r10, Y+19	; 0x13
     34a:	bc 88       	ldd	r11, Y+20	; 0x14
     34c:	2d 89       	ldd	r18, Y+21	; 0x15
     34e:	3e 89       	ldd	r19, Y+22	; 0x16
     350:	4f 89       	ldd	r20, Y+23	; 0x17
     352:	58 8d       	ldd	r21, Y+24	; 0x18
     354:	2d 8f       	std	Y+29, r18	; 0x1d
     356:	3e 8f       	std	Y+30, r19	; 0x1e
     358:	4f 8f       	std	Y+31, r20	; 0x1f
     35a:	58 a3       	std	Y+32, r21	; 0x20
     35c:	fc 01       	movw	r30, r24
     35e:	c0 80       	ld	r12, Z
     360:	d1 80       	ldd	r13, Z+1	; 0x01
     362:	e2 80       	ldd	r14, Z+2	; 0x02
     364:	f3 80       	ldd	r15, Z+3	; 0x03
     366:	24 81       	ldd	r18, Z+4	; 0x04
     368:	35 81       	ldd	r19, Z+5	; 0x05
     36a:	46 81       	ldd	r20, Z+6	; 0x06
     36c:	57 81       	ldd	r21, Z+7	; 0x07
     36e:	29 8f       	std	Y+25, r18	; 0x19
     370:	3a 8f       	std	Y+26, r19	; 0x1a
     372:	4b 8f       	std	Y+27, r20	; 0x1b
     374:	5c 8f       	std	Y+28, r21	; 0x1c
     376:	2d 8d       	ldd	r18, Y+29	; 0x1d
     378:	3e 8d       	ldd	r19, Y+30	; 0x1e
     37a:	4f 8d       	ldd	r20, Y+31	; 0x1f
     37c:	58 a1       	ldd	r21, Y+32	; 0x20
     37e:	c7 01       	movw	r24, r14
     380:	b6 01       	movw	r22, r12
     382:	0e 94 61 32 	call	0x64c2	; 0x64c2 <__mulsf3>
     386:	2b 01       	movw	r4, r22
     388:	3c 01       	movw	r6, r24
     38a:	a5 01       	movw	r20, r10
     38c:	94 01       	movw	r18, r8
     38e:	69 8d       	ldd	r22, Y+25	; 0x19
     390:	7a 8d       	ldd	r23, Y+26	; 0x1a
     392:	8b 8d       	ldd	r24, Y+27	; 0x1b
     394:	9c 8d       	ldd	r25, Y+28	; 0x1c
     396:	0e 94 61 32 	call	0x64c2	; 0x64c2 <__mulsf3>
     39a:	9b 01       	movw	r18, r22
     39c:	ac 01       	movw	r20, r24
     39e:	c3 01       	movw	r24, r6
     3a0:	b2 01       	movw	r22, r4
     3a2:	0e 94 20 2f 	call	0x5e40	; 0x5e40 <__addsf3>
     3a6:	2b 01       	movw	r4, r22
     3a8:	3c 01       	movw	r6, r24
     3aa:	a5 01       	movw	r20, r10
     3ac:	94 01       	movw	r18, r8
     3ae:	c7 01       	movw	r24, r14
     3b0:	b6 01       	movw	r22, r12
     3b2:	0e 94 61 32 	call	0x64c2	; 0x64c2 <__mulsf3>
     3b6:	6b 01       	movw	r12, r22
     3b8:	7c 01       	movw	r14, r24
     3ba:	2d 8d       	ldd	r18, Y+29	; 0x1d
     3bc:	3e 8d       	ldd	r19, Y+30	; 0x1e
     3be:	4f 8d       	ldd	r20, Y+31	; 0x1f
     3c0:	58 a1       	ldd	r21, Y+32	; 0x20
     3c2:	69 8d       	ldd	r22, Y+25	; 0x19
     3c4:	7a 8d       	ldd	r23, Y+26	; 0x1a
     3c6:	8b 8d       	ldd	r24, Y+27	; 0x1b
     3c8:	9c 8d       	ldd	r25, Y+28	; 0x1c
     3ca:	0e 94 61 32 	call	0x64c2	; 0x64c2 <__mulsf3>
     3ce:	9b 01       	movw	r18, r22
     3d0:	ac 01       	movw	r20, r24
     3d2:	c7 01       	movw	r24, r14
     3d4:	b6 01       	movw	r22, r12
     3d6:	0e 94 1f 2f 	call	0x5e3e	; 0x5e3e <__subsf3>
     3da:	ab 01       	movw	r20, r22
     3dc:	bc 01       	movw	r22, r24
     3de:	93 01       	movw	r18, r6
     3e0:	82 01       	movw	r16, r4
     3e2:	ce 01       	movw	r24, r28
     3e4:	01 96       	adiw	r24, 0x01	; 1
     3e6:	0e 94 0d 01 	call	0x21a	; 0x21a <_ZN7ComplexC1Eff>
     3ea:	88 e0       	ldi	r24, 0x08	; 8
     3ec:	fe 01       	movw	r30, r28
     3ee:	31 96       	adiw	r30, 0x01	; 1
     3f0:	de 01       	movw	r26, r28
     3f2:	19 96       	adiw	r26, 0x09	; 9
     3f4:	01 90       	ld	r0, Z+
     3f6:	0d 92       	st	X+, r0
     3f8:	8a 95       	dec	r24
     3fa:	e1 f7       	brne	.-8      	; 0x3f4 <_ZN7Complex3mulES_+0xf0>
     3fc:	29 85       	ldd	r18, Y+9	; 0x09
     3fe:	3a 85       	ldd	r19, Y+10	; 0x0a
     400:	4b 85       	ldd	r20, Y+11	; 0x0b
     402:	5c 85       	ldd	r21, Y+12	; 0x0c
     404:	6d 85       	ldd	r22, Y+13	; 0x0d
     406:	7e 85       	ldd	r23, Y+14	; 0x0e
     408:	8f 85       	ldd	r24, Y+15	; 0x0f
     40a:	98 89       	ldd	r25, Y+16	; 0x10
     40c:	a0 96       	adiw	r28, 0x20	; 32
     40e:	0f b6       	in	r0, 0x3f	; 63
     410:	f8 94       	cli
     412:	de bf       	out	0x3e, r29	; 62
     414:	0f be       	out	0x3f, r0	; 63
     416:	cd bf       	out	0x3d, r28	; 61
     418:	df 91       	pop	r29
     41a:	cf 91       	pop	r28
     41c:	1f 91       	pop	r17
     41e:	0f 91       	pop	r16
     420:	ff 90       	pop	r15
     422:	ef 90       	pop	r14
     424:	df 90       	pop	r13
     426:	cf 90       	pop	r12
     428:	bf 90       	pop	r11
     42a:	af 90       	pop	r10
     42c:	9f 90       	pop	r9
     42e:	8f 90       	pop	r8
     430:	7f 90       	pop	r7
     432:	6f 90       	pop	r6
     434:	5f 90       	pop	r5
     436:	4f 90       	pop	r4
     438:	08 95       	ret

0000043a <_ZN7Complex3argEv>:
     43a:	fc 01       	movw	r30, r24
     43c:	20 81       	ld	r18, Z
     43e:	31 81       	ldd	r19, Z+1	; 0x01
     440:	42 81       	ldd	r20, Z+2	; 0x02
     442:	53 81       	ldd	r21, Z+3	; 0x03
     444:	64 81       	ldd	r22, Z+4	; 0x04
     446:	75 81       	ldd	r23, Z+5	; 0x05
     448:	86 81       	ldd	r24, Z+6	; 0x06
     44a:	97 81       	ldd	r25, Z+7	; 0x07
     44c:	0e 94 b3 2f 	call	0x5f66	; 0x5f66 <__divsf3>
     450:	0e 94 84 2f 	call	0x5f08	; 0x5f08 <atan>
     454:	08 95       	ret

00000456 <_ZN6EEPromC1Ev>:
#include "eeprom.h"

EEProm::EEProm(){
	//Set up TWI Module
	TWBR = 5;
     456:	85 e0       	ldi	r24, 0x05	; 5
     458:	80 b9       	out	0x00, r24	; 0
	TWSR &= (~((1<<TWPS1)|(1<<TWPS0)));
     45a:	81 b1       	in	r24, 0x01	; 1
     45c:	8c 7f       	andi	r24, 0xFC	; 252
     45e:	81 b9       	out	0x01, r24	; 1
     460:	08 95       	ret

00000462 <_ZN6EEProm4readEj>:
	uint8_t data;
	//Initiate a Dummy Write Sequence to start Random Read
	do
	{
		//Put Start Condition on TWI Bus
		TWCR=(1<<TWINT)|(1<<TWSTA)|(1<<TWEN);
     462:	94 ea       	ldi	r25, 0xA4	; 164
		if((TWSR & 0xF8) != 0x08)
			return FALSE;

		//Now write SLA+W
		//EEPROM @ 00h
		TWDR=0b10100000;	
     464:	30 ea       	ldi	r19, 0xA0	; 160

		//Initiate Transfer
		TWCR=(1<<TWINT)|(1<<TWEN);
     466:	24 e8       	ldi	r18, 0x84	; 132
	uint8_t data;
	//Initiate a Dummy Write Sequence to start Random Read
	do
	{
		//Put Start Condition on TWI Bus
		TWCR=(1<<TWINT)|(1<<TWSTA)|(1<<TWEN);
     468:	96 bf       	out	0x36, r25	; 54

		//Poll Till Done
		while(!(TWCR & (1<<TWINT)));
     46a:	06 b6       	in	r0, 0x36	; 54
     46c:	07 fe       	sbrs	r0, 7
     46e:	fd cf       	rjmp	.-6      	; 0x46a <_ZN6EEProm4readEj+0x8>

		//Check status
		if((TWSR & 0xF8) != 0x08)
     470:	81 b1       	in	r24, 0x01	; 1
     472:	88 7f       	andi	r24, 0xF8	; 248
     474:	88 30       	cpi	r24, 0x08	; 8
     476:	09 f0       	breq	.+2      	; 0x47a <_ZN6EEProm4readEj+0x18>
     478:	41 c0       	rjmp	.+130    	; 0x4fc <_ZN6EEProm4readEj+0x9a>
			return FALSE;

		//Now write SLA+W
		//EEPROM @ 00h
		TWDR=0b10100000;	
     47a:	33 b9       	out	0x03, r19	; 3

		//Initiate Transfer
		TWCR=(1<<TWINT)|(1<<TWEN);
     47c:	26 bf       	out	0x36, r18	; 54

		//Poll Till Done
		while(!(TWCR & (1<<TWINT)));
     47e:	06 b6       	in	r0, 0x36	; 54
     480:	07 fe       	sbrs	r0, 7
     482:	fd cf       	rjmp	.-6      	; 0x47e <_ZN6EEProm4readEj+0x1c>
	
	}while((TWSR & 0xF8) != 0x18);
     484:	81 b1       	in	r24, 0x01	; 1
     486:	88 7f       	andi	r24, 0xF8	; 248
}

uint8_t EEProm::read(uint16_t address){
	uint8_t data;
	//Initiate a Dummy Write Sequence to start Random Read
	do
     488:	88 31       	cpi	r24, 0x18	; 24
     48a:	71 f7       	brne	.-36     	; 0x468 <_ZN6EEProm4readEj+0x6>
	
	}while((TWSR & 0xF8) != 0x18);
		

	//Now write ADDRH
	TWDR=(address>>8);
     48c:	73 b9       	out	0x03, r23	; 3

	//Initiate Transfer
	TWCR=(1<<TWINT)|(1<<TWEN);
     48e:	84 e8       	ldi	r24, 0x84	; 132
     490:	86 bf       	out	0x36, r24	; 54

	//Poll Till Done
	while(!(TWCR & (1<<TWINT)));
     492:	06 b6       	in	r0, 0x36	; 54
     494:	07 fe       	sbrs	r0, 7
     496:	fd cf       	rjmp	.-6      	; 0x492 <_ZN6EEProm4readEj+0x30>

	//Check status
	if((TWSR & 0xF8) != 0x28)
     498:	81 b1       	in	r24, 0x01	; 1
     49a:	88 7f       	andi	r24, 0xF8	; 248
     49c:	88 32       	cpi	r24, 0x28	; 40
     49e:	81 f5       	brne	.+96     	; 0x500 <_ZN6EEProm4readEj+0x9e>
		return FALSE;

	//Now write ADDRL
	TWDR=(address);
     4a0:	63 b9       	out	0x03, r22	; 3

	//Initiate Transfer
	TWCR=(1<<TWINT)|(1<<TWEN);
     4a2:	84 e8       	ldi	r24, 0x84	; 132
     4a4:	86 bf       	out	0x36, r24	; 54

	//Poll Till Done
	while(!(TWCR & (1<<TWINT)));
     4a6:	06 b6       	in	r0, 0x36	; 54
     4a8:	07 fe       	sbrs	r0, 7
     4aa:	fd cf       	rjmp	.-6      	; 0x4a6 <_ZN6EEProm4readEj+0x44>

	//Check status
	if((TWSR & 0xF8) != 0x28)
     4ac:	81 b1       	in	r24, 0x01	; 1
     4ae:	88 7f       	andi	r24, 0xF8	; 248
     4b0:	88 32       	cpi	r24, 0x28	; 40
     4b2:	41 f5       	brne	.+80     	; 0x504 <_ZN6EEProm4readEj+0xa2>
	//*************************DUMMY WRITE SEQUENCE END **********************


	
	//Put Start Condition on TWI Bus
	TWCR=(1<<TWINT)|(1<<TWSTA)|(1<<TWEN);
     4b4:	84 ea       	ldi	r24, 0xA4	; 164
     4b6:	86 bf       	out	0x36, r24	; 54

	//Poll Till Done
	while(!(TWCR & (1<<TWINT)));
     4b8:	06 b6       	in	r0, 0x36	; 54
     4ba:	07 fe       	sbrs	r0, 7
     4bc:	fd cf       	rjmp	.-6      	; 0x4b8 <_ZN6EEProm4readEj+0x56>

	//Check status
	if((TWSR & 0xF8) != 0x10)
     4be:	81 b1       	in	r24, 0x01	; 1
     4c0:	88 7f       	andi	r24, 0xF8	; 248
     4c2:	80 31       	cpi	r24, 0x10	; 16
     4c4:	09 f5       	brne	.+66     	; 0x508 <_ZN6EEProm4readEj+0xa6>
		return FALSE;

	//Now write SLA+R
	//EEPROM @ 00h
	TWDR=0b10100001;	
     4c6:	81 ea       	ldi	r24, 0xA1	; 161
     4c8:	83 b9       	out	0x03, r24	; 3

	//Initiate Transfer
	TWCR=(1<<TWINT)|(1<<TWEN);
     4ca:	84 e8       	ldi	r24, 0x84	; 132
     4cc:	86 bf       	out	0x36, r24	; 54

	//Poll Till Done
	while(!(TWCR & (1<<TWINT)));
     4ce:	06 b6       	in	r0, 0x36	; 54
     4d0:	07 fe       	sbrs	r0, 7
     4d2:	fd cf       	rjmp	.-6      	; 0x4ce <_ZN6EEProm4readEj+0x6c>

	//Check status
	if((TWSR & 0xF8) != 0x40)
     4d4:	81 b1       	in	r24, 0x01	; 1
     4d6:	88 7f       	andi	r24, 0xF8	; 248
     4d8:	80 34       	cpi	r24, 0x40	; 64
     4da:	c1 f4       	brne	.+48     	; 0x50c <_ZN6EEProm4readEj+0xaa>
		return FALSE;

	//Now enable Reception of data by clearing TWINT
	TWCR=(1<<TWINT)|(1<<TWEN);
     4dc:	84 e8       	ldi	r24, 0x84	; 132
     4de:	86 bf       	out	0x36, r24	; 54

	//Wait till done
	while(!(TWCR & (1<<TWINT)));
     4e0:	06 b6       	in	r0, 0x36	; 54
     4e2:	07 fe       	sbrs	r0, 7
     4e4:	fd cf       	rjmp	.-6      	; 0x4e0 <_ZN6EEProm4readEj+0x7e>

	//Check status
	if((TWSR & 0xF8) != 0x58)
     4e6:	81 b1       	in	r24, 0x01	; 1
     4e8:	88 7f       	andi	r24, 0xF8	; 248
     4ea:	88 35       	cpi	r24, 0x58	; 88
     4ec:	89 f4       	brne	.+34     	; 0x510 <_ZN6EEProm4readEj+0xae>
		return FALSE;

	//Read the data
	data=TWDR;
     4ee:	83 b1       	in	r24, 0x03	; 3

	//Put Stop Condition on bus
	TWCR=(1<<TWINT)|(1<<TWEN)|(1<<TWSTO);
     4f0:	94 e9       	ldi	r25, 0x94	; 148
     4f2:	96 bf       	out	0x36, r25	; 54
	
	//Wait for STOP to finish
	while(TWCR & (1<<TWSTO));
     4f4:	06 b6       	in	r0, 0x36	; 54
     4f6:	04 fc       	sbrc	r0, 4
     4f8:	fd cf       	rjmp	.-6      	; 0x4f4 <_ZN6EEProm4readEj+0x92>
     4fa:	08 95       	ret
		//Poll Till Done
		while(!(TWCR & (1<<TWINT)));

		//Check status
		if((TWSR & 0xF8) != 0x08)
			return FALSE;
     4fc:	80 e0       	ldi	r24, 0x00	; 0
     4fe:	08 95       	ret
	//Poll Till Done
	while(!(TWCR & (1<<TWINT)));

	//Check status
	if((TWSR & 0xF8) != 0x28)
		return FALSE;
     500:	80 e0       	ldi	r24, 0x00	; 0
     502:	08 95       	ret
	//Poll Till Done
	while(!(TWCR & (1<<TWINT)));

	//Check status
	if((TWSR & 0xF8) != 0x28)
		return FALSE;
     504:	80 e0       	ldi	r24, 0x00	; 0
     506:	08 95       	ret
	//Poll Till Done
	while(!(TWCR & (1<<TWINT)));

	//Check status
	if((TWSR & 0xF8) != 0x10)
		return FALSE;
     508:	80 e0       	ldi	r24, 0x00	; 0
     50a:	08 95       	ret
	//Poll Till Done
	while(!(TWCR & (1<<TWINT)));

	//Check status
	if((TWSR & 0xF8) != 0x40)
		return FALSE;
     50c:	80 e0       	ldi	r24, 0x00	; 0
     50e:	08 95       	ret
	//Wait till done
	while(!(TWCR & (1<<TWINT)));

	//Check status
	if((TWSR & 0xF8) != 0x58)
		return FALSE;
     510:	80 e0       	ldi	r24, 0x00	; 0
	//Wait for STOP to finish
	while(TWCR & (1<<TWSTO));

	//Return TRUE
	return data;
}
     512:	08 95       	ret

00000514 <_ZN6EEProm11count_linesEv>:
		if(eeprom_mem[i]==0xFF && eeprom_mem[i-1]==0xFF && eeprom_mem[i-2]==0xFF && eeprom_mem[i-3]==0xFF && eeprom_mem[i-4]==0xFF) break;
	}
	return eeprom_mem;
}

int EEProm::count_lines(){
     514:	6f 92       	push	r6
     516:	7f 92       	push	r7
     518:	8f 92       	push	r8
     51a:	9f 92       	push	r9
     51c:	af 92       	push	r10
     51e:	bf 92       	push	r11
     520:	cf 92       	push	r12
     522:	df 92       	push	r13
     524:	ef 92       	push	r14
     526:	ff 92       	push	r15
     528:	0f 93       	push	r16
     52a:	1f 93       	push	r17
     52c:	cf 93       	push	r28
     52e:	df 93       	push	r29
     530:	cd b7       	in	r28, 0x3d	; 61
     532:	de b7       	in	r29, 0x3e	; 62
     534:	6c 97       	sbiw	r28, 0x1c	; 28
     536:	0f b6       	in	r0, 0x3f	; 63
     538:	f8 94       	cli
     53a:	de bf       	out	0x3e, r29	; 62
     53c:	0f be       	out	0x3f, r0	; 63
     53e:	cd bf       	out	0x3d, r28	; 61
     540:	5c 01       	movw	r10, r24
	int tdb[INSTR_WIDTH+1];
	int tdb_i=0,ctr=0;
	bool all_data_read=false;
	
	for(int i=0;true;i++){
     542:	e1 2c       	mov	r14, r1
     544:	f1 2c       	mov	r15, r1
	return eeprom_mem;
}

int EEProm::count_lines(){
	int tdb[INSTR_WIDTH+1];
	int tdb_i=0,ctr=0;
     546:	c1 2c       	mov	r12, r1
     548:	d1 2c       	mov	r13, r1
     54a:	81 2c       	mov	r8, r1
     54c:	91 2c       	mov	r9, r1
     54e:	8e 01       	movw	r16, r28
     550:	05 5e       	subi	r16, 0xE5	; 229
     552:	1f 4f       	sbci	r17, 0xFF	; 255
			ctr++;
			for(int j=0;j<INSTR_WIDTH;j++){
				if(tdb[j]==0xFF) all_data_read=true;
				else all_data_read=false;
			}
			tdb_i=0;
     554:	61 2c       	mov	r6, r1
     556:	71 2c       	mov	r7, r1
	int tdb[INSTR_WIDTH+1];
	int tdb_i=0,ctr=0;
	bool all_data_read=false;
	
	for(int i=0;true;i++){
		tdb[tdb_i]=read(i);
     558:	b7 01       	movw	r22, r14
     55a:	c5 01       	movw	r24, r10
     55c:	0e 94 31 02 	call	0x462	; 0x462 <_ZN6EEProm4readEj>
     560:	f4 01       	movw	r30, r8
     562:	ee 0f       	add	r30, r30
     564:	ff 1f       	adc	r31, r31
     566:	21 e0       	ldi	r18, 0x01	; 1
     568:	30 e0       	ldi	r19, 0x00	; 0
     56a:	2c 0f       	add	r18, r28
     56c:	3d 1f       	adc	r19, r29
     56e:	e2 0f       	add	r30, r18
     570:	f3 1f       	adc	r31, r19
     572:	90 e0       	ldi	r25, 0x00	; 0
     574:	91 83       	std	Z+1, r25	; 0x01
     576:	80 83       	st	Z, r24
		
		if(tdb_i>=INSTR_WIDTH){
     578:	3d e0       	ldi	r19, 0x0D	; 13
     57a:	83 16       	cp	r8, r19
     57c:	91 04       	cpc	r9, r1
     57e:	74 f0       	brlt	.+28     	; 0x59c <_ZN6EEProm11count_linesEv+0x88>
			ctr++;
     580:	8f ef       	ldi	r24, 0xFF	; 255
     582:	c8 1a       	sub	r12, r24
     584:	d8 0a       	sbc	r13, r24
     586:	fe 01       	movw	r30, r28
     588:	31 96       	adiw	r30, 0x01	; 1
			for(int j=0;j<INSTR_WIDTH;j++){
				if(tdb[j]==0xFF) all_data_read=true;
     58a:	81 91       	ld	r24, Z+
     58c:	91 91       	ld	r25, Z+
	for(int i=0;true;i++){
		tdb[tdb_i]=read(i);
		
		if(tdb_i>=INSTR_WIDTH){
			ctr++;
			for(int j=0;j<INSTR_WIDTH;j++){
     58e:	e0 17       	cp	r30, r16
     590:	f1 07       	cpc	r31, r17
     592:	d9 f7       	brne	.-10     	; 0x58a <_ZN6EEProm11count_linesEv+0x76>
				if(tdb[j]==0xFF) all_data_read=true;
				else all_data_read=false;
			}
			tdb_i=0;
			if(all_data_read) return ctr;
     594:	8f 3f       	cpi	r24, 0xFF	; 255
     596:	91 05       	cpc	r25, r1
     598:	29 f4       	brne	.+10     	; 0x5a4 <_ZN6EEProm11count_linesEv+0x90>
     59a:	0a c0       	rjmp	.+20     	; 0x5b0 <_ZN6EEProm11count_linesEv+0x9c>
		}else tdb_i++;
     59c:	2f ef       	ldi	r18, 0xFF	; 255
     59e:	82 1a       	sub	r8, r18
     5a0:	92 0a       	sbc	r9, r18
     5a2:	02 c0       	rjmp	.+4      	; 0x5a8 <_ZN6EEProm11count_linesEv+0x94>
			ctr++;
			for(int j=0;j<INSTR_WIDTH;j++){
				if(tdb[j]==0xFF) all_data_read=true;
				else all_data_read=false;
			}
			tdb_i=0;
     5a4:	86 2c       	mov	r8, r6
     5a6:	97 2c       	mov	r9, r7
int EEProm::count_lines(){
	int tdb[INSTR_WIDTH+1];
	int tdb_i=0,ctr=0;
	bool all_data_read=false;
	
	for(int i=0;true;i++){
     5a8:	3f ef       	ldi	r19, 0xFF	; 255
     5aa:	e3 1a       	sub	r14, r19
     5ac:	f3 0a       	sbc	r15, r19
				else all_data_read=false;
			}
			tdb_i=0;
			if(all_data_read) return ctr;
		}else tdb_i++;
	}
     5ae:	d4 cf       	rjmp	.-88     	; 0x558 <_ZN6EEProm11count_linesEv+0x44>
	return ctr;
}
     5b0:	c6 01       	movw	r24, r12
     5b2:	6c 96       	adiw	r28, 0x1c	; 28
     5b4:	0f b6       	in	r0, 0x3f	; 63
     5b6:	f8 94       	cli
     5b8:	de bf       	out	0x3e, r29	; 62
     5ba:	0f be       	out	0x3f, r0	; 63
     5bc:	cd bf       	out	0x3d, r28	; 61
     5be:	df 91       	pop	r29
     5c0:	cf 91       	pop	r28
     5c2:	1f 91       	pop	r17
     5c4:	0f 91       	pop	r16
     5c6:	ff 90       	pop	r15
     5c8:	ef 90       	pop	r14
     5ca:	df 90       	pop	r13
     5cc:	cf 90       	pop	r12
     5ce:	bf 90       	pop	r11
     5d0:	af 90       	pop	r10
     5d2:	9f 90       	pop	r9
     5d4:	8f 90       	pop	r8
     5d6:	7f 90       	pop	r7
     5d8:	6f 90       	pop	r6
     5da:	08 95       	ret

000005dc <_ZN4QEPU4FlagC1Ev>:
#include "qepu.h"

int8_t QEPU::Flag::flaglist[FLAG_COUNT];

QEPU::Flag::Flag(){
	flaglist[ALLOW_BRANCH_STACK]=HIGH;	
     5dc:	81 e0       	ldi	r24, 0x01	; 1
     5de:	80 93 30 01 	sts	0x0130, r24
     5e2:	08 95       	ret

000005e4 <_ZN4QEPU4Flag7compareEii>:
}

void QEPU::Flag::compare(int data1,int data2){
	flaglist[CND_LWER]=(data1<data2)?HIGH:LOW;
     5e4:	21 e0       	ldi	r18, 0x01	; 1
     5e6:	86 17       	cp	r24, r22
     5e8:	97 07       	cpc	r25, r23
     5ea:	0c f0       	brlt	.+2      	; 0x5ee <_ZN4QEPU4Flag7compareEii+0xa>
     5ec:	20 e0       	ldi	r18, 0x00	; 0
     5ee:	20 93 28 01 	sts	0x0128, r18
	flaglist[CND_LWER_EQUAL]=(data1<=data2)?HIGH:LOW;
     5f2:	21 e0       	ldi	r18, 0x01	; 1
     5f4:	68 17       	cp	r22, r24
     5f6:	79 07       	cpc	r23, r25
     5f8:	0c f4       	brge	.+2      	; 0x5fc <_ZN4QEPU4Flag7compareEii+0x18>
     5fa:	20 e0       	ldi	r18, 0x00	; 0
     5fc:	20 93 29 01 	sts	0x0129, r18
	flaglist[CND_EQUAL]=(data1==data2)?HIGH:LOW;
     600:	21 e0       	ldi	r18, 0x01	; 1
     602:	86 17       	cp	r24, r22
     604:	97 07       	cpc	r25, r23
     606:	09 f0       	breq	.+2      	; 0x60a <_ZN4QEPU4Flag7compareEii+0x26>
     608:	20 e0       	ldi	r18, 0x00	; 0
     60a:	20 93 2a 01 	sts	0x012A, r18
	flaglist[CND_GRTER_EQUAL]=(data1>=data2)?HIGH:LOW;
     60e:	21 e0       	ldi	r18, 0x01	; 1
     610:	86 17       	cp	r24, r22
     612:	97 07       	cpc	r25, r23
     614:	0c f4       	brge	.+2      	; 0x618 <_ZN4QEPU4Flag7compareEii+0x34>
     616:	20 e0       	ldi	r18, 0x00	; 0
     618:	20 93 2b 01 	sts	0x012B, r18
	flaglist[CND_GRTER]=(data1>data2)?HIGH:LOW;
     61c:	21 e0       	ldi	r18, 0x01	; 1
     61e:	68 17       	cp	r22, r24
     620:	79 07       	cpc	r23, r25
     622:	0c f0       	brlt	.+2      	; 0x626 <_ZN4QEPU4Flag7compareEii+0x42>
     624:	20 e0       	ldi	r18, 0x00	; 0
     626:	20 93 2c 01 	sts	0x012C, r18
	flaglist[CND_DIFF]=(data1!=data2)?HIGH:LOW;
     62a:	21 e0       	ldi	r18, 0x01	; 1
     62c:	86 17       	cp	r24, r22
     62e:	97 07       	cpc	r25, r23
     630:	09 f4       	brne	.+2      	; 0x634 <_ZN4QEPU4Flag7compareEii+0x50>
     632:	20 e0       	ldi	r18, 0x00	; 0
     634:	20 93 2d 01 	sts	0x012D, r18
	flaglist[CND_ZERO]=(data1==LOW)?HIGH:LOW;
     638:	21 e0       	ldi	r18, 0x01	; 1
     63a:	00 97       	sbiw	r24, 0x00	; 0
     63c:	09 f0       	breq	.+2      	; 0x640 <_ZN4QEPU4Flag7compareEii+0x5c>
     63e:	20 e0       	ldi	r18, 0x00	; 0
     640:	20 93 2e 01 	sts	0x012E, r18
	flaglist[CND_NOT_ZERO]=(data1!=LOW)?HIGH:LOW;
     644:	21 e0       	ldi	r18, 0x01	; 1
     646:	89 2b       	or	r24, r25
     648:	09 f4       	brne	.+2      	; 0x64c <_ZN4QEPU4Flag7compareEii+0x68>
     64a:	20 e0       	ldi	r18, 0x00	; 0
     64c:	20 93 2f 01 	sts	0x012F, r18
     650:	08 95       	ret

00000652 <_ZN5GatesC1Ev>:
#include "uart.h"
#include "qepu.h"
#include <stdarg.h>
#include <stdlib.h>
#include <avr/eeprom.h>
Gates::Gates(){}
     652:	08 95       	ret

00000654 <_Z12print_statesiP7ComplexPc>:

Serial s;

void print_states(int qb_count,Complex * vec,char* message){
     654:	cf 92       	push	r12
     656:	df 92       	push	r13
     658:	ef 92       	push	r14
     65a:	ff 92       	push	r15
     65c:	0f 93       	push	r16
     65e:	1f 93       	push	r17
     660:	cf 93       	push	r28
     662:	df 93       	push	r29
     664:	1f 92       	push	r1
     666:	cd b7       	in	r28, 0x3d	; 61
     668:	de b7       	in	r29, 0x3e	; 62
     66a:	6c 01       	movw	r12, r24
     66c:	e6 2e       	mov	r14, r22
     66e:	f7 2e       	mov	r15, r23
	Utils utils;
	s.writestrln(message);
     670:	ba 01       	movw	r22, r20
     672:	81 e3       	ldi	r24, 0x31	; 49
     674:	91 e0       	ldi	r25, 0x01	; 1
     676:	0e 94 4a 2e 	call	0x5c94	; 0x5c94 <_ZN6Serial10writestrlnEPc>
	for(int i=0;i<qb_count;i++){
     67a:	1c 14       	cp	r1, r12
     67c:	1d 04       	cpc	r1, r13
     67e:	0c f0       	brlt	.+2      	; 0x682 <_Z12print_statesiP7ComplexPc+0x2e>
     680:	4b c0       	rjmp	.+150    	; 0x718 <_Z12print_statesiP7ComplexPc+0xc4>
     682:	0e 2d       	mov	r16, r14
     684:	1f 2d       	mov	r17, r15
     686:	e1 2c       	mov	r14, r1
     688:	f1 2c       	mov	r15, r1
		s.writestr("R: "); s.writestr(utils.int2str(vec[i].re*1000));
     68a:	6a e6       	ldi	r22, 0x6A	; 106
     68c:	70 e0       	ldi	r23, 0x00	; 0
     68e:	81 e3       	ldi	r24, 0x31	; 49
     690:	91 e0       	ldi	r25, 0x01	; 1
     692:	0e 94 35 2e 	call	0x5c6a	; 0x5c6a <_ZN6Serial8writestrEPc>
     696:	20 e0       	ldi	r18, 0x00	; 0
     698:	30 e0       	ldi	r19, 0x00	; 0
     69a:	4a e7       	ldi	r20, 0x7A	; 122
     69c:	54 e4       	ldi	r21, 0x44	; 68
     69e:	f8 01       	movw	r30, r16
     6a0:	60 81       	ld	r22, Z
     6a2:	71 81       	ldd	r23, Z+1	; 0x01
     6a4:	82 81       	ldd	r24, Z+2	; 0x02
     6a6:	93 81       	ldd	r25, Z+3	; 0x03
     6a8:	0e 94 61 32 	call	0x64c2	; 0x64c2 <__mulsf3>
     6ac:	0e 94 4c 30 	call	0x6098	; 0x6098 <__fixsfsi>
     6b0:	ce 01       	movw	r24, r28
     6b2:	01 96       	adiw	r24, 0x01	; 1
     6b4:	0e 94 81 2e 	call	0x5d02	; 0x5d02 <_ZN5Utils7int2strEi>
     6b8:	bc 01       	movw	r22, r24
     6ba:	81 e3       	ldi	r24, 0x31	; 49
     6bc:	91 e0       	ldi	r25, 0x01	; 1
     6be:	0e 94 35 2e 	call	0x5c6a	; 0x5c6a <_ZN6Serial8writestrEPc>
		s.writestr(" . I: "); s.writestr(utils.int2str(vec[i].im*1000));
     6c2:	6e e6       	ldi	r22, 0x6E	; 110
     6c4:	70 e0       	ldi	r23, 0x00	; 0
     6c6:	81 e3       	ldi	r24, 0x31	; 49
     6c8:	91 e0       	ldi	r25, 0x01	; 1
     6ca:	0e 94 35 2e 	call	0x5c6a	; 0x5c6a <_ZN6Serial8writestrEPc>
     6ce:	20 e0       	ldi	r18, 0x00	; 0
     6d0:	30 e0       	ldi	r19, 0x00	; 0
     6d2:	4a e7       	ldi	r20, 0x7A	; 122
     6d4:	54 e4       	ldi	r21, 0x44	; 68
     6d6:	f8 01       	movw	r30, r16
     6d8:	64 81       	ldd	r22, Z+4	; 0x04
     6da:	75 81       	ldd	r23, Z+5	; 0x05
     6dc:	86 81       	ldd	r24, Z+6	; 0x06
     6de:	97 81       	ldd	r25, Z+7	; 0x07
     6e0:	0e 94 61 32 	call	0x64c2	; 0x64c2 <__mulsf3>
     6e4:	0e 94 4c 30 	call	0x6098	; 0x6098 <__fixsfsi>
     6e8:	ce 01       	movw	r24, r28
     6ea:	01 96       	adiw	r24, 0x01	; 1
     6ec:	0e 94 81 2e 	call	0x5d02	; 0x5d02 <_ZN5Utils7int2strEi>
     6f0:	bc 01       	movw	r22, r24
     6f2:	81 e3       	ldi	r24, 0x31	; 49
     6f4:	91 e0       	ldi	r25, 0x01	; 1
     6f6:	0e 94 35 2e 	call	0x5c6a	; 0x5c6a <_ZN6Serial8writestrEPc>
		s.writestrln("");
     6fa:	65 ec       	ldi	r22, 0xC5	; 197
     6fc:	70 e0       	ldi	r23, 0x00	; 0
     6fe:	81 e3       	ldi	r24, 0x31	; 49
     700:	91 e0       	ldi	r25, 0x01	; 1
     702:	0e 94 4a 2e 	call	0x5c94	; 0x5c94 <_ZN6Serial10writestrlnEPc>
Serial s;

void print_states(int qb_count,Complex * vec,char* message){
	Utils utils;
	s.writestrln(message);
	for(int i=0;i<qb_count;i++){
     706:	ff ef       	ldi	r31, 0xFF	; 255
     708:	ef 1a       	sub	r14, r31
     70a:	ff 0a       	sbc	r15, r31
     70c:	08 5f       	subi	r16, 0xF8	; 248
     70e:	1f 4f       	sbci	r17, 0xFF	; 255
     710:	ec 14       	cp	r14, r12
     712:	fd 04       	cpc	r15, r13
     714:	09 f0       	breq	.+2      	; 0x718 <_Z12print_statesiP7ComplexPc+0xc4>
     716:	b9 cf       	rjmp	.-142    	; 0x68a <_Z12print_statesiP7ComplexPc+0x36>
		s.writestr("R: "); s.writestr(utils.int2str(vec[i].re*1000));
		s.writestr(" . I: "); s.writestr(utils.int2str(vec[i].im*1000));
		s.writestrln("");
	}
}
     718:	0f 90       	pop	r0
     71a:	df 91       	pop	r29
     71c:	cf 91       	pop	r28
     71e:	1f 91       	pop	r17
     720:	0f 91       	pop	r16
     722:	ff 90       	pop	r15
     724:	ef 90       	pop	r14
     726:	df 90       	pop	r13
     728:	cf 90       	pop	r12
     72a:	08 95       	ret

0000072c <_ZN5Gates5touchEd>:

int Gates::touch(double probability){
     72c:	cf 92       	push	r12
     72e:	df 92       	push	r13
     730:	ef 92       	push	r14
     732:	ff 92       	push	r15
     734:	cf 93       	push	r28
     736:	df 93       	push	r29
     738:	6a 01       	movw	r12, r20
     73a:	7b 01       	movw	r14, r22
	return RAND_MAX*probability>=rand();
     73c:	0e 94 d8 34 	call	0x69b0	; 0x69b0 <rand>
     740:	ec 01       	movw	r28, r24
     742:	20 e0       	ldi	r18, 0x00	; 0
     744:	3e ef       	ldi	r19, 0xFE	; 254
     746:	4f ef       	ldi	r20, 0xFF	; 255
     748:	56 e4       	ldi	r21, 0x46	; 70
     74a:	c7 01       	movw	r24, r14
     74c:	b6 01       	movw	r22, r12
     74e:	0e 94 61 32 	call	0x64c2	; 0x64c2 <__mulsf3>
     752:	6b 01       	movw	r12, r22
     754:	7c 01       	movw	r14, r24
     756:	be 01       	movw	r22, r28
     758:	88 27       	eor	r24, r24
     75a:	77 fd       	sbrc	r23, 7
     75c:	80 95       	com	r24
     75e:	98 2f       	mov	r25, r24
     760:	0e 94 7f 30 	call	0x60fe	; 0x60fe <__floatsisf>
     764:	9b 01       	movw	r18, r22
     766:	ac 01       	movw	r20, r24
     768:	c1 e0       	ldi	r28, 0x01	; 1
     76a:	d0 e0       	ldi	r29, 0x00	; 0
     76c:	c7 01       	movw	r24, r14
     76e:	b6 01       	movw	r22, r12
     770:	0e 94 a8 31 	call	0x6350	; 0x6350 <__gesf2>
     774:	88 23       	and	r24, r24
     776:	14 f4       	brge	.+4      	; 0x77c <_ZN5Gates5touchEd+0x50>
     778:	c0 e0       	ldi	r28, 0x00	; 0
     77a:	d0 e0       	ldi	r29, 0x00	; 0
}
     77c:	ce 01       	movw	r24, r28
     77e:	df 91       	pop	r29
     780:	cf 91       	pop	r28
     782:	ff 90       	pop	r15
     784:	ef 90       	pop	r14
     786:	df 90       	pop	r13
     788:	cf 90       	pop	r12
     78a:	08 95       	ret

0000078c <_ZN5Gates17reverse_kroneckerEP7Complexi>:

Complex * Gates::reverse_kronecker(Complex * kron,int kron_size){
     78c:	2f 92       	push	r2
     78e:	3f 92       	push	r3
     790:	4f 92       	push	r4
     792:	5f 92       	push	r5
     794:	6f 92       	push	r6
     796:	7f 92       	push	r7
     798:	8f 92       	push	r8
     79a:	9f 92       	push	r9
     79c:	af 92       	push	r10
     79e:	bf 92       	push	r11
     7a0:	cf 92       	push	r12
     7a2:	df 92       	push	r13
     7a4:	ef 92       	push	r14
     7a6:	ff 92       	push	r15
     7a8:	0f 93       	push	r16
     7aa:	1f 93       	push	r17
     7ac:	cf 93       	push	r28
     7ae:	df 93       	push	r29
     7b0:	cd b7       	in	r28, 0x3d	; 61
     7b2:	de b7       	in	r29, 0x3e	; 62
     7b4:	a4 97       	sbiw	r28, 0x24	; 36
     7b6:	0f b6       	in	r0, 0x3f	; 63
     7b8:	f8 94       	cli
     7ba:	de bf       	out	0x3e, r29	; 62
     7bc:	0f be       	out	0x3f, r0	; 63
     7be:	cd bf       	out	0x3d, r28	; 61
     7c0:	8c 01       	movw	r16, r24
     7c2:	6b 01       	movw	r12, r22
     7c4:	5a 01       	movw	r10, r20
	int reversed_kron_size=(log(kron_size)/log(2))*2;
     7c6:	ba 01       	movw	r22, r20
     7c8:	88 27       	eor	r24, r24
     7ca:	77 fd       	sbrc	r23, 7
     7cc:	80 95       	com	r24
     7ce:	98 2f       	mov	r25, r24
     7d0:	0e 94 7f 30 	call	0x60fe	; 0x60fe <__floatsisf>
     7d4:	0e 94 ee 31 	call	0x63dc	; 0x63dc <log>
     7d8:	28 e1       	ldi	r18, 0x18	; 24
     7da:	32 e7       	ldi	r19, 0x72	; 114
     7dc:	41 e3       	ldi	r20, 0x31	; 49
     7de:	5f e3       	ldi	r21, 0x3F	; 63
     7e0:	0e 94 b3 2f 	call	0x5f66	; 0x5f66 <__divsf3>
     7e4:	2b 01       	movw	r4, r22
     7e6:	3c 01       	movw	r6, r24
     7e8:	9b 01       	movw	r18, r22
     7ea:	ac 01       	movw	r20, r24
     7ec:	0e 94 20 2f 	call	0x5e40	; 0x5e40 <__addsf3>
     7f0:	0e 94 4c 30 	call	0x6098	; 0x6098 <__fixsfsi>
     7f4:	69 a3       	std	Y+33, r22	; 0x21
     7f6:	7a a3       	std	Y+34, r23	; 0x22
     7f8:	8b a3       	std	Y+35, r24	; 0x23
     7fa:	9c a3       	std	Y+36, r25	; 0x24
     7fc:	29 a0       	ldd	r2, Y+33	; 0x21
     7fe:	3a a0       	ldd	r3, Y+34	; 0x22
	Complex * reversed_kronecker=(Complex*)malloc(sizeof(Complex)*reversed_kron_size);
     800:	c1 01       	movw	r24, r2
     802:	88 0f       	add	r24, r24
     804:	99 1f       	adc	r25, r25
     806:	88 0f       	add	r24, r24
     808:	99 1f       	adc	r25, r25
     80a:	88 0f       	add	r24, r24
     80c:	99 1f       	adc	r25, r25
     80e:	0e 94 63 33 	call	0x66c6	; 0x66c6 <malloc>
     812:	4c 01       	movw	r8, r24
		
	for(int i=0;i<kron_size;i++)
     814:	1a 14       	cp	r1, r10
     816:	1b 04       	cpc	r1, r11
     818:	0c f0       	brlt	.+2      	; 0x81c <_ZN5Gates17reverse_kroneckerEP7Complexi+0x90>
     81a:	9d c0       	rjmp	.+314    	; 0x956 <__stack+0xf7>
		if(kron[i].re==1){
     81c:	20 e0       	ldi	r18, 0x00	; 0
     81e:	30 e0       	ldi	r19, 0x00	; 0
     820:	40 e8       	ldi	r20, 0x80	; 128
     822:	5f e3       	ldi	r21, 0x3F	; 63
     824:	f6 01       	movw	r30, r12
     826:	60 81       	ld	r22, Z
     828:	71 81       	ldd	r23, Z+1	; 0x01
     82a:	82 81       	ldd	r24, Z+2	; 0x02
     82c:	93 81       	ldd	r25, Z+3	; 0x03
     82e:	0e 94 ac 2f 	call	0x5f58	; 0x5f58 <__cmpsf2>
     832:	81 11       	cpse	r24, r1
     834:	87 c0       	rjmp	.+270    	; 0x944 <__stack+0xe5>
     836:	11 c0       	rjmp	.+34     	; 0x85a <_ZN5Gates17reverse_kroneckerEP7Complexi+0xce>
     838:	f8 e0       	ldi	r31, 0x08	; 8
     83a:	cf 0e       	add	r12, r31
     83c:	d1 1c       	adc	r13, r1
     83e:	20 e0       	ldi	r18, 0x00	; 0
     840:	30 e0       	ldi	r19, 0x00	; 0
     842:	40 e8       	ldi	r20, 0x80	; 128
     844:	5f e3       	ldi	r21, 0x3F	; 63
     846:	f6 01       	movw	r30, r12
     848:	60 81       	ld	r22, Z
     84a:	71 81       	ldd	r23, Z+1	; 0x01
     84c:	82 81       	ldd	r24, Z+2	; 0x02
     84e:	93 81       	ldd	r25, Z+3	; 0x03
     850:	0e 94 ac 2f 	call	0x5f58	; 0x5f58 <__cmpsf2>
     854:	81 11       	cpse	r24, r1
     856:	78 c0       	rjmp	.+240    	; 0x948 <__stack+0xe9>
     858:	02 c0       	rjmp	.+4      	; 0x85e <_ZN5Gates17reverse_kroneckerEP7Complexi+0xd2>

Complex * Gates::reverse_kronecker(Complex * kron,int kron_size){
	int reversed_kron_size=(log(kron_size)/log(2))*2;
	Complex * reversed_kronecker=(Complex*)malloc(sizeof(Complex)*reversed_kron_size);
		
	for(int i=0;i<kron_size;i++)
     85a:	e1 2c       	mov	r14, r1
     85c:	f1 2c       	mov	r15, r1
		if(kron[i].re==1){
			char *toBin=utils.int2binstr(i,log(kron_size)/log(2));
     85e:	c3 01       	movw	r24, r6
     860:	b2 01       	movw	r22, r4
     862:	0e 94 4c 30 	call	0x6098	; 0x6098 <__fixsfsi>
     866:	ab 01       	movw	r20, r22
     868:	b7 01       	movw	r22, r14
     86a:	c8 01       	movw	r24, r16
     86c:	0e 94 56 2e 	call	0x5cac	; 0x5cac <_ZN5Utils10int2binstrEii>
			int index_rev_kro=0; //USE ITS OWN INDEX BECAUSE J IS THE INDEX OF TOBIN AN TOBIN HAS TO GO REVERSED
			for(int j=0;j<reversed_kron_size;j++){
     870:	12 14       	cp	r1, r2
     872:	13 04       	cpc	r1, r3
     874:	0c f0       	brlt	.+2      	; 0x878 <__stack+0x19>
     876:	6f c0       	rjmp	.+222    	; 0x956 <__stack+0xf7>
     878:	7c 01       	movw	r14, r24
     87a:	54 01       	movw	r10, r8
     87c:	64 01       	movw	r12, r8
     87e:	f8 e0       	ldi	r31, 0x08	; 8
     880:	cf 0e       	add	r12, r31
     882:	d1 1c       	adc	r13, r1
     884:	49 a0       	ldd	r4, Y+33	; 0x21
     886:	5a a0       	ldd	r5, Y+34	; 0x22
     888:	48 0e       	add	r4, r24
     88a:	59 1e       	adc	r5, r25
				if(toBin[j]=='1'){
					reversed_kronecker[index_rev_kro]=Complex(0,0); reversed_kronecker[index_rev_kro+1]=Complex(1,0);
				}else{
					reversed_kronecker[index_rev_kro]=Complex(1,0); reversed_kronecker[index_rev_kro+1]=Complex(0,0);
     88c:	68 94       	set
     88e:	77 24       	eor	r7, r7
     890:	73 f8       	bld	r7, 3
	for(int i=0;i<kron_size;i++)
		if(kron[i].re==1){
			char *toBin=utils.int2binstr(i,log(kron_size)/log(2));
			int index_rev_kro=0; //USE ITS OWN INDEX BECAUSE J IS THE INDEX OF TOBIN AN TOBIN HAS TO GO REVERSED
			for(int j=0;j<reversed_kron_size;j++){
				if(toBin[j]=='1'){
     892:	f7 01       	movw	r30, r14
     894:	81 91       	ld	r24, Z+
     896:	7f 01       	movw	r14, r30
     898:	81 33       	cpi	r24, 0x31	; 49
     89a:	29 f5       	brne	.+74     	; 0x8e6 <__stack+0x87>
					reversed_kronecker[index_rev_kro]=Complex(0,0); reversed_kronecker[index_rev_kro+1]=Complex(1,0);
     89c:	00 e0       	ldi	r16, 0x00	; 0
     89e:	10 e0       	ldi	r17, 0x00	; 0
     8a0:	98 01       	movw	r18, r16
     8a2:	b9 01       	movw	r22, r18
     8a4:	a8 01       	movw	r20, r16
     8a6:	ce 01       	movw	r24, r28
     8a8:	49 96       	adiw	r24, 0x19	; 25
     8aa:	0e 94 0d 01 	call	0x21a	; 0x21a <_ZN7ComplexC1Eff>
     8ae:	fe 01       	movw	r30, r28
     8b0:	79 96       	adiw	r30, 0x19	; 25
     8b2:	d5 01       	movw	r26, r10
     8b4:	87 2d       	mov	r24, r7
     8b6:	01 90       	ld	r0, Z+
     8b8:	0d 92       	st	X+, r0
     8ba:	8a 95       	dec	r24
     8bc:	e1 f7       	brne	.-8      	; 0x8b6 <__stack+0x57>
     8be:	00 e0       	ldi	r16, 0x00	; 0
     8c0:	10 e0       	ldi	r17, 0x00	; 0
     8c2:	98 01       	movw	r18, r16
     8c4:	40 e0       	ldi	r20, 0x00	; 0
     8c6:	50 e0       	ldi	r21, 0x00	; 0
     8c8:	60 e8       	ldi	r22, 0x80	; 128
     8ca:	7f e3       	ldi	r23, 0x3F	; 63
     8cc:	ce 01       	movw	r24, r28
     8ce:	41 96       	adiw	r24, 0x11	; 17
     8d0:	0e 94 0d 01 	call	0x21a	; 0x21a <_ZN7ComplexC1Eff>
     8d4:	fe 01       	movw	r30, r28
     8d6:	71 96       	adiw	r30, 0x11	; 17
     8d8:	d6 01       	movw	r26, r12
     8da:	87 2d       	mov	r24, r7
     8dc:	01 90       	ld	r0, Z+
     8de:	0d 92       	st	X+, r0
     8e0:	8a 95       	dec	r24
     8e2:	e1 f7       	brne	.-8      	; 0x8dc <__stack+0x7d>
     8e4:	24 c0       	rjmp	.+72     	; 0x92e <__stack+0xcf>
				}else{
					reversed_kronecker[index_rev_kro]=Complex(1,0); reversed_kronecker[index_rev_kro+1]=Complex(0,0);
     8e6:	00 e0       	ldi	r16, 0x00	; 0
     8e8:	10 e0       	ldi	r17, 0x00	; 0
     8ea:	98 01       	movw	r18, r16
     8ec:	40 e0       	ldi	r20, 0x00	; 0
     8ee:	50 e0       	ldi	r21, 0x00	; 0
     8f0:	60 e8       	ldi	r22, 0x80	; 128
     8f2:	7f e3       	ldi	r23, 0x3F	; 63
     8f4:	ce 01       	movw	r24, r28
     8f6:	09 96       	adiw	r24, 0x09	; 9
     8f8:	0e 94 0d 01 	call	0x21a	; 0x21a <_ZN7ComplexC1Eff>
     8fc:	fe 01       	movw	r30, r28
     8fe:	39 96       	adiw	r30, 0x09	; 9
     900:	d5 01       	movw	r26, r10
     902:	87 2d       	mov	r24, r7
     904:	01 90       	ld	r0, Z+
     906:	0d 92       	st	X+, r0
     908:	8a 95       	dec	r24
     90a:	e1 f7       	brne	.-8      	; 0x904 <__stack+0xa5>
     90c:	00 e0       	ldi	r16, 0x00	; 0
     90e:	10 e0       	ldi	r17, 0x00	; 0
     910:	98 01       	movw	r18, r16
     912:	b9 01       	movw	r22, r18
     914:	a8 01       	movw	r20, r16
     916:	ce 01       	movw	r24, r28
     918:	01 96       	adiw	r24, 0x01	; 1
     91a:	0e 94 0d 01 	call	0x21a	; 0x21a <_ZN7ComplexC1Eff>
     91e:	fe 01       	movw	r30, r28
     920:	31 96       	adiw	r30, 0x01	; 1
     922:	d6 01       	movw	r26, r12
     924:	87 2d       	mov	r24, r7
     926:	01 90       	ld	r0, Z+
     928:	0d 92       	st	X+, r0
     92a:	8a 95       	dec	r24
     92c:	e1 f7       	brne	.-8      	; 0x926 <__stack+0xc7>
     92e:	f0 e1       	ldi	r31, 0x10	; 16
     930:	af 0e       	add	r10, r31
     932:	b1 1c       	adc	r11, r1
     934:	20 e1       	ldi	r18, 0x10	; 16
     936:	c2 0e       	add	r12, r18
     938:	d1 1c       	adc	r13, r1
		
	for(int i=0;i<kron_size;i++)
		if(kron[i].re==1){
			char *toBin=utils.int2binstr(i,log(kron_size)/log(2));
			int index_rev_kro=0; //USE ITS OWN INDEX BECAUSE J IS THE INDEX OF TOBIN AN TOBIN HAS TO GO REVERSED
			for(int j=0;j<reversed_kron_size;j++){
     93a:	e4 14       	cp	r14, r4
     93c:	f5 04       	cpc	r15, r5
     93e:	09 f0       	breq	.+2      	; 0x942 <__stack+0xe3>
     940:	a8 cf       	rjmp	.-176    	; 0x892 <__stack+0x33>
     942:	09 c0       	rjmp	.+18     	; 0x956 <__stack+0xf7>

Complex * Gates::reverse_kronecker(Complex * kron,int kron_size){
	int reversed_kron_size=(log(kron_size)/log(2))*2;
	Complex * reversed_kronecker=(Complex*)malloc(sizeof(Complex)*reversed_kron_size);
		
	for(int i=0;i<kron_size;i++)
     944:	e1 2c       	mov	r14, r1
     946:	f1 2c       	mov	r15, r1
     948:	8f ef       	ldi	r24, 0xFF	; 255
     94a:	e8 1a       	sub	r14, r24
     94c:	f8 0a       	sbc	r15, r24
     94e:	ea 14       	cp	r14, r10
     950:	fb 04       	cpc	r15, r11
     952:	09 f0       	breq	.+2      	; 0x956 <__stack+0xf7>
     954:	71 cf       	rjmp	.-286    	; 0x838 <_ZN5Gates17reverse_kroneckerEP7Complexi+0xac>
				index_rev_kro+=2;
			}
			break;
		}
	return reversed_kronecker;
}
     956:	c4 01       	movw	r24, r8
     958:	a4 96       	adiw	r28, 0x24	; 36
     95a:	0f b6       	in	r0, 0x3f	; 63
     95c:	f8 94       	cli
     95e:	de bf       	out	0x3e, r29	; 62
     960:	0f be       	out	0x3f, r0	; 63
     962:	cd bf       	out	0x3d, r28	; 61
     964:	df 91       	pop	r29
     966:	cf 91       	pop	r28
     968:	1f 91       	pop	r17
     96a:	0f 91       	pop	r16
     96c:	ff 90       	pop	r15
     96e:	ef 90       	pop	r14
     970:	df 90       	pop	r13
     972:	cf 90       	pop	r12
     974:	bf 90       	pop	r11
     976:	af 90       	pop	r10
     978:	9f 90       	pop	r9
     97a:	8f 90       	pop	r8
     97c:	7f 90       	pop	r7
     97e:	6f 90       	pop	r6
     980:	5f 90       	pop	r5
     982:	4f 90       	pop	r4
     984:	3f 90       	pop	r3
     986:	2f 90       	pop	r2
     988:	08 95       	ret

0000098a <_ZN5Gates9kroneckerEP7Complexii>:

Complex * Gates::kronecker(Complex * vec,int qb_count,int touch_enable){
     98a:	2f 92       	push	r2
     98c:	3f 92       	push	r3
     98e:	4f 92       	push	r4
     990:	5f 92       	push	r5
     992:	6f 92       	push	r6
     994:	7f 92       	push	r7
     996:	8f 92       	push	r8
     998:	9f 92       	push	r9
     99a:	af 92       	push	r10
     99c:	bf 92       	push	r11
     99e:	cf 92       	push	r12
     9a0:	df 92       	push	r13
     9a2:	ef 92       	push	r14
     9a4:	ff 92       	push	r15
     9a6:	0f 93       	push	r16
     9a8:	1f 93       	push	r17
     9aa:	cf 93       	push	r28
     9ac:	df 93       	push	r29
     9ae:	cd b7       	in	r28, 0x3d	; 61
     9b0:	de b7       	in	r29, 0x3e	; 62
     9b2:	28 97       	sbiw	r28, 0x08	; 8
     9b4:	0f b6       	in	r0, 0x3f	; 63
     9b6:	f8 94       	cli
     9b8:	de bf       	out	0x3e, r29	; 62
     9ba:	0f be       	out	0x3f, r0	; 63
     9bc:	cd bf       	out	0x3d, r28	; 61
     9be:	7c 01       	movw	r14, r24
     9c0:	5b 01       	movw	r10, r22
     9c2:	8a 01       	movw	r16, r20
     9c4:	3e 83       	std	Y+6, r19	; 0x06
     9c6:	2d 83       	std	Y+5, r18	; 0x05
	if(qb_count==1) return vec;
     9c8:	41 30       	cpi	r20, 0x01	; 1
     9ca:	51 05       	cpc	r21, r1
     9cc:	09 f4       	brne	.+2      	; 0x9d0 <_ZN5Gates9kroneckerEP7Complexii+0x46>
     9ce:	bb c0       	rjmp	.+374    	; 0xb46 <_ZN5Gates9kroneckerEP7Complexii+0x1bc>
	int kron_size=utils.custom_pow(2,qb_count);
     9d0:	9a 01       	movw	r18, r20
     9d2:	40 e0       	ldi	r20, 0x00	; 0
     9d4:	50 e0       	ldi	r21, 0x00	; 0
     9d6:	60 e0       	ldi	r22, 0x00	; 0
     9d8:	70 e4       	ldi	r23, 0x40	; 64
     9da:	0e 94 ba 2e 	call	0x5d74	; 0x5d74 <_ZN5Utils10custom_powEfi>
     9de:	0e 94 4c 30 	call	0x6098	; 0x6098 <__fixsfsi>
     9e2:	78 87       	std	Y+8, r23	; 0x08
     9e4:	6f 83       	std	Y+7, r22	; 0x07
	Complex * kronvec=(Complex*)malloc(sizeof(Complex)*kron_size);
     9e6:	9b 01       	movw	r18, r22
     9e8:	22 0f       	add	r18, r18
     9ea:	33 1f       	adc	r19, r19
     9ec:	22 0f       	add	r18, r18
     9ee:	33 1f       	adc	r19, r19
     9f0:	22 0f       	add	r18, r18
     9f2:	33 1f       	adc	r19, r19
     9f4:	3c 83       	std	Y+4, r19	; 0x04
     9f6:	2b 83       	std	Y+3, r18	; 0x03
     9f8:	c9 01       	movw	r24, r18
     9fa:	0e 94 63 33 	call	0x66c6	; 0x66c6 <malloc>
     9fe:	89 83       	std	Y+1, r24	; 0x01
     a00:	9a 83       	std	Y+2, r25	; 0x02
	
	int vec1i=0;
	int vec2i_default=VECTOR_QUBIT_SIZE;
	int vec2i=vec2i_default;
	for(int i=0;i<kron_size;i++){
     a02:	8f 81       	ldd	r24, Y+7	; 0x07
     a04:	98 85       	ldd	r25, Y+8	; 0x08
     a06:	18 16       	cp	r1, r24
     a08:	19 06       	cpc	r1, r25
     a0a:	0c f0       	brlt	.+2      	; 0xa0e <_ZN5Gates9kroneckerEP7Complexii+0x84>
     a0c:	53 c0       	rjmp	.+166    	; 0xab4 <_ZN5Gates9kroneckerEP7Complexii+0x12a>
    	if(vec2i==qb_count*2){vec2i=vec2i_default;vec1i++;}
     a0e:	18 01       	movw	r2, r16
     a10:	22 0c       	add	r2, r2
     a12:	33 1c       	adc	r3, r3
     a14:	c9 80       	ldd	r12, Y+1	; 0x01
     a16:	da 80       	ldd	r13, Y+2	; 0x02
	Complex * kronvec=(Complex*)malloc(sizeof(Complex)*kron_size);
	
	int vec1i=0;
	int vec2i_default=VECTOR_QUBIT_SIZE;
	int vec2i=vec2i_default;
	for(int i=0;i<kron_size;i++){
     a18:	61 2c       	mov	r6, r1
     a1a:	71 2c       	mov	r7, r1
	int kron_size=utils.custom_pow(2,qb_count);
	Complex * kronvec=(Complex*)malloc(sizeof(Complex)*kron_size);
	
	int vec1i=0;
	int vec2i_default=VECTOR_QUBIT_SIZE;
	int vec2i=vec2i_default;
     a1c:	e2 e0       	ldi	r30, 0x02	; 2
     a1e:	f0 e0       	ldi	r31, 0x00	; 0
Complex * Gates::kronecker(Complex * vec,int qb_count,int touch_enable){
	if(qb_count==1) return vec;
	int kron_size=utils.custom_pow(2,qb_count);
	Complex * kronvec=(Complex*)malloc(sizeof(Complex)*kron_size);
	
	int vec1i=0;
     a20:	41 2c       	mov	r4, r1
     a22:	51 2c       	mov	r5, r1
	int vec2i_default=VECTOR_QUBIT_SIZE;
	int vec2i=vec2i_default;
	for(int i=0;i<kron_size;i++){
    	if(vec2i==qb_count*2){vec2i=vec2i_default;vec1i++;}
     a24:	c6 01       	movw	r24, r12
     a26:	cf 80       	ldd	r12, Y+7	; 0x07
     a28:	d8 84       	ldd	r13, Y+8	; 0x08
     a2a:	47 01       	movw	r8, r14
     a2c:	98 87       	std	Y+8, r25	; 0x08
     a2e:	8f 83       	std	Y+7, r24	; 0x07
     a30:	2e 16       	cp	r2, r30
     a32:	3f 06       	cpc	r3, r31
     a34:	29 f4       	brne	.+10     	; 0xa40 <_ZN5Gates9kroneckerEP7Complexii+0xb6>
     a36:	9f ef       	ldi	r25, 0xFF	; 255
     a38:	49 1a       	sub	r4, r25
     a3a:	59 0a       	sbc	r5, r25
     a3c:	e2 e0       	ldi	r30, 0x02	; 2
     a3e:	f0 e0       	ldi	r31, 0x00	; 0
		kronvec[i]=vec[vec1i].mul(vec[vec2i++]);
     a40:	7f 01       	movw	r14, r30
     a42:	2f ef       	ldi	r18, 0xFF	; 255
     a44:	e2 1a       	sub	r14, r18
     a46:	f2 0a       	sbc	r15, r18
     a48:	ee 0f       	add	r30, r30
     a4a:	ff 1f       	adc	r31, r31
     a4c:	ee 0f       	add	r30, r30
     a4e:	ff 1f       	adc	r31, r31
     a50:	ee 0f       	add	r30, r30
     a52:	ff 1f       	adc	r31, r31
     a54:	ea 0d       	add	r30, r10
     a56:	fb 1d       	adc	r31, r11
     a58:	00 81       	ld	r16, Z
     a5a:	11 81       	ldd	r17, Z+1	; 0x01
     a5c:	22 81       	ldd	r18, Z+2	; 0x02
     a5e:	33 81       	ldd	r19, Z+3	; 0x03
     a60:	44 81       	ldd	r20, Z+4	; 0x04
     a62:	55 81       	ldd	r21, Z+5	; 0x05
     a64:	66 81       	ldd	r22, Z+6	; 0x06
     a66:	77 81       	ldd	r23, Z+7	; 0x07
     a68:	c2 01       	movw	r24, r4
     a6a:	88 0f       	add	r24, r24
     a6c:	99 1f       	adc	r25, r25
     a6e:	88 0f       	add	r24, r24
     a70:	99 1f       	adc	r25, r25
     a72:	88 0f       	add	r24, r24
     a74:	99 1f       	adc	r25, r25
     a76:	8a 0d       	add	r24, r10
     a78:	9b 1d       	adc	r25, r11
     a7a:	0e 94 82 01 	call	0x304	; 0x304 <_ZN7Complex3mulES_>
     a7e:	ef 81       	ldd	r30, Y+7	; 0x07
     a80:	f8 85       	ldd	r31, Y+8	; 0x08
     a82:	20 83       	st	Z, r18
     a84:	31 83       	std	Z+1, r19	; 0x01
     a86:	42 83       	std	Z+2, r20	; 0x02
     a88:	53 83       	std	Z+3, r21	; 0x03
     a8a:	64 83       	std	Z+4, r22	; 0x04
     a8c:	75 83       	std	Z+5, r23	; 0x05
     a8e:	86 83       	std	Z+6, r24	; 0x06
     a90:	97 83       	std	Z+7, r25	; 0x07
	Complex * kronvec=(Complex*)malloc(sizeof(Complex)*kron_size);
	
	int vec1i=0;
	int vec2i_default=VECTOR_QUBIT_SIZE;
	int vec2i=vec2i_default;
	for(int i=0;i<kron_size;i++){
     a92:	ff ef       	ldi	r31, 0xFF	; 255
     a94:	6f 1a       	sub	r6, r31
     a96:	7f 0a       	sbc	r7, r31
     a98:	2f 81       	ldd	r18, Y+7	; 0x07
     a9a:	38 85       	ldd	r19, Y+8	; 0x08
     a9c:	28 5f       	subi	r18, 0xF8	; 248
     a9e:	3f 4f       	sbci	r19, 0xFF	; 255
     aa0:	38 87       	std	Y+8, r19	; 0x08
     aa2:	2f 83       	std	Y+7, r18	; 0x07
     aa4:	6c 14       	cp	r6, r12
     aa6:	7d 04       	cpc	r7, r13
     aa8:	11 f0       	breq	.+4      	; 0xaae <_ZN5Gates9kroneckerEP7Complexii+0x124>
    	if(vec2i==qb_count*2){vec2i=vec2i_default;vec1i++;}
		kronvec[i]=vec[vec1i].mul(vec[vec2i++]);
     aaa:	f7 01       	movw	r30, r14
     aac:	c1 cf       	rjmp	.-126    	; 0xa30 <_ZN5Gates9kroneckerEP7Complexii+0xa6>
     aae:	d8 86       	std	Y+8, r13	; 0x08
     ab0:	cf 82       	std	Y+7, r12	; 0x07
     ab2:	74 01       	movw	r14, r8
	}
	
	if(touch_enable){
     ab4:	8d 81       	ldd	r24, Y+5	; 0x05
     ab6:	9e 81       	ldd	r25, Y+6	; 0x06
     ab8:	89 2b       	or	r24, r25
     aba:	a9 f5       	brne	.+106    	; 0xb26 <_ZN5Gates9kroneckerEP7Complexii+0x19c>
				binary_touch=0;
				break;
			}
	}
	//print_states(kron_size,kronvec,"Kronecker: ");
	return kronvec;
     abc:	89 81       	ldd	r24, Y+1	; 0x01
     abe:	9a 81       	ldd	r25, Y+2	; 0x02
     ac0:	44 c0       	rjmp	.+136    	; 0xb4a <_ZN5Gates9kroneckerEP7Complexii+0x1c0>
	
	if(touch_enable){
		//TOUCH THE ENTANGLED/SUPERPOSITIONED QUBIT BEFORE GIVING IT TO A MATRIX:
		int binary_touch=1;
		while(binary_touch)	for(int i=0;i<kron_size;i++)
			if(touch(kronvec[i].re)==binary_touch){
     ac2:	51 01       	movw	r10, r2
     ac4:	f1 01       	movw	r30, r2
     ac6:	40 81       	ld	r20, Z
     ac8:	51 81       	ldd	r21, Z+1	; 0x01
     aca:	62 81       	ldd	r22, Z+2	; 0x02
     acc:	73 81       	ldd	r23, Z+3	; 0x03
     ace:	c7 01       	movw	r24, r14
     ad0:	0e 94 96 03 	call	0x72c	; 0x72c <_ZN5Gates5touchEd>
     ad4:	01 97       	sbiw	r24, 0x01	; 1
     ad6:	e9 f4       	brne	.+58     	; 0xb12 <_ZN5Gates9kroneckerEP7Complexii+0x188>
     ad8:	8b 81       	ldd	r24, Y+3	; 0x03
     ada:	9c 81       	ldd	r25, Y+4	; 0x04
     adc:	86 0d       	add	r24, r6
     ade:	97 1d       	adc	r25, r7
     ae0:	f3 01       	movw	r30, r6
				for(int j=0;j<kron_size;j++){kronvec[j].re=0; kronvec[j].im=0;}
     ae2:	10 82       	st	Z, r1
     ae4:	11 82       	std	Z+1, r1	; 0x01
     ae6:	12 82       	std	Z+2, r1	; 0x02
     ae8:	13 82       	std	Z+3, r1	; 0x03
     aea:	14 82       	std	Z+4, r1	; 0x04
     aec:	15 82       	std	Z+5, r1	; 0x05
     aee:	16 82       	std	Z+6, r1	; 0x06
     af0:	17 82       	std	Z+7, r1	; 0x07
     af2:	38 96       	adiw	r30, 0x08	; 8
     af4:	e8 17       	cp	r30, r24
     af6:	f9 07       	cpc	r31, r25
     af8:	a1 f7       	brne	.-24     	; 0xae2 <_ZN5Gates9kroneckerEP7Complexii+0x158>
				kronvec[i].re=binary_touch;
     afa:	80 e0       	ldi	r24, 0x00	; 0
     afc:	90 e0       	ldi	r25, 0x00	; 0
     afe:	a0 e8       	ldi	r26, 0x80	; 128
     b00:	bf e3       	ldi	r27, 0x3F	; 63
     b02:	f5 01       	movw	r30, r10
     b04:	80 83       	st	Z, r24
     b06:	91 83       	std	Z+1, r25	; 0x01
     b08:	a2 83       	std	Z+2, r26	; 0x02
     b0a:	b3 83       	std	Z+3, r27	; 0x03
				binary_touch=0;
				break;
			}
	}
	//print_states(kron_size,kronvec,"Kronecker: ");
	return kronvec;
     b0c:	89 81       	ldd	r24, Y+1	; 0x01
     b0e:	9a 81       	ldd	r25, Y+2	; 0x02
     b10:	1c c0       	rjmp	.+56     	; 0xb4a <_ZN5Gates9kroneckerEP7Complexii+0x1c0>
	}
	
	if(touch_enable){
		//TOUCH THE ENTANGLED/SUPERPOSITIONED QUBIT BEFORE GIVING IT TO A MATRIX:
		int binary_touch=1;
		while(binary_touch)	for(int i=0;i<kron_size;i++)
     b12:	ff ef       	ldi	r31, 0xFF	; 255
     b14:	cf 1a       	sub	r12, r31
     b16:	df 0a       	sbc	r13, r31
     b18:	28 e0       	ldi	r18, 0x08	; 8
     b1a:	22 0e       	add	r2, r18
     b1c:	31 1c       	adc	r3, r1
     b1e:	c8 14       	cp	r12, r8
     b20:	d9 04       	cpc	r13, r9
     b22:	79 f6       	brne	.-98     	; 0xac2 <_ZN5Gates9kroneckerEP7Complexii+0x138>
     b24:	06 c0       	rjmp	.+12     	; 0xb32 <_ZN5Gates9kroneckerEP7Complexii+0x1a8>
     b26:	49 80       	ldd	r4, Y+1	; 0x01
     b28:	5a 80       	ldd	r5, Y+2	; 0x02
     b2a:	00 e0       	ldi	r16, 0x00	; 0
     b2c:	10 e0       	ldi	r17, 0x00	; 0
     b2e:	8f 80       	ldd	r8, Y+7	; 0x07
     b30:	98 84       	ldd	r9, Y+8	; 0x08
     b32:	18 14       	cp	r1, r8
     b34:	19 04       	cpc	r1, r9
     b36:	ec f7       	brge	.-6      	; 0xb32 <_ZN5Gates9kroneckerEP7Complexii+0x1a8>
     b38:	64 2c       	mov	r6, r4
     b3a:	75 2c       	mov	r7, r5
     b3c:	24 2c       	mov	r2, r4
     b3e:	35 2c       	mov	r3, r5
     b40:	c0 2e       	mov	r12, r16
     b42:	d1 2e       	mov	r13, r17
     b44:	be cf       	rjmp	.-132    	; 0xac2 <_ZN5Gates9kroneckerEP7Complexii+0x138>
		}
	return reversed_kronecker;
}

Complex * Gates::kronecker(Complex * vec,int qb_count,int touch_enable){
	if(qb_count==1) return vec;
     b46:	86 2f       	mov	r24, r22
     b48:	9b 2d       	mov	r25, r11
				break;
			}
	}
	//print_states(kron_size,kronvec,"Kronecker: ");
	return kronvec;
}
     b4a:	28 96       	adiw	r28, 0x08	; 8
     b4c:	0f b6       	in	r0, 0x3f	; 63
     b4e:	f8 94       	cli
     b50:	de bf       	out	0x3e, r29	; 62
     b52:	0f be       	out	0x3f, r0	; 63
     b54:	cd bf       	out	0x3d, r28	; 61
     b56:	df 91       	pop	r29
     b58:	cf 91       	pop	r28
     b5a:	1f 91       	pop	r17
     b5c:	0f 91       	pop	r16
     b5e:	ff 90       	pop	r15
     b60:	ef 90       	pop	r14
     b62:	df 90       	pop	r13
     b64:	cf 90       	pop	r12
     b66:	bf 90       	pop	r11
     b68:	af 90       	pop	r10
     b6a:	9f 90       	pop	r9
     b6c:	8f 90       	pop	r8
     b6e:	7f 90       	pop	r7
     b70:	6f 90       	pop	r6
     b72:	5f 90       	pop	r5
     b74:	4f 90       	pop	r4
     b76:	3f 90       	pop	r3
     b78:	2f 90       	pop	r2
     b7a:	08 95       	ret

00000b7c <_ZN5Gates8ampl2vecEiPiS0_>:

Complex * Gates::ampl2vec(int qb_count,int theta_list[6],int phi_list[6]){
     b7c:	2f 92       	push	r2
     b7e:	3f 92       	push	r3
     b80:	4f 92       	push	r4
     b82:	5f 92       	push	r5
     b84:	6f 92       	push	r6
     b86:	7f 92       	push	r7
     b88:	8f 92       	push	r8
     b8a:	9f 92       	push	r9
     b8c:	af 92       	push	r10
     b8e:	bf 92       	push	r11
     b90:	cf 92       	push	r12
     b92:	df 92       	push	r13
     b94:	ef 92       	push	r14
     b96:	ff 92       	push	r15
     b98:	0f 93       	push	r16
     b9a:	1f 93       	push	r17
     b9c:	cf 93       	push	r28
     b9e:	df 93       	push	r29
     ba0:	cd b7       	in	r28, 0x3d	; 61
     ba2:	de b7       	in	r29, 0x3e	; 62
     ba4:	28 97       	sbiw	r28, 0x08	; 8
     ba6:	0f b6       	in	r0, 0x3f	; 63
     ba8:	f8 94       	cli
     baa:	de bf       	out	0x3e, r29	; 62
     bac:	0f be       	out	0x3f, r0	; 63
     bae:	cd bf       	out	0x3d, r28	; 61
     bb0:	9e 83       	std	Y+6, r25	; 0x06
     bb2:	8d 83       	std	Y+5, r24	; 0x05
     bb4:	7a 83       	std	Y+2, r23	; 0x02
     bb6:	69 83       	std	Y+1, r22	; 0x01
     bb8:	04 2f       	mov	r16, r20
     bba:	15 2f       	mov	r17, r21
     bbc:	c2 2e       	mov	r12, r18
     bbe:	d3 2e       	mov	r13, r19
	Complex* vec=(Complex*)malloc(sizeof(Complex)*(qb_count*2));
     bc0:	cb 01       	movw	r24, r22
     bc2:	82 95       	swap	r24
     bc4:	92 95       	swap	r25
     bc6:	90 7f       	andi	r25, 0xF0	; 240
     bc8:	98 27       	eor	r25, r24
     bca:	80 7f       	andi	r24, 0xF0	; 240
     bcc:	98 27       	eor	r25, r24
     bce:	0e 94 63 33 	call	0x66c6	; 0x66c6 <malloc>
     bd2:	8b 83       	std	Y+3, r24	; 0x03
     bd4:	9c 83       	std	Y+4, r25	; 0x04
	int thephi_index=0;
	for(int i=0;i<qb_count*2;i+=2){
     bd6:	29 80       	ldd	r2, Y+1	; 0x01
     bd8:	3a 80       	ldd	r3, Y+2	; 0x02
     bda:	22 0c       	add	r2, r2
     bdc:	33 1c       	adc	r3, r3
     bde:	12 14       	cp	r1, r2
     be0:	13 04       	cpc	r1, r3
     be2:	0c f0       	brlt	.+2      	; 0xbe6 <_ZN5Gates8ampl2vecEiPiS0_+0x6a>
     be4:	ac c0       	rjmp	.+344    	; 0xd3e <_ZN5Gates8ampl2vecEiPiS0_+0x1c2>
     be6:	a8 2e       	mov	r10, r24
     be8:	b9 2e       	mov	r11, r25
     bea:	e0 2e       	mov	r14, r16
     bec:	f1 2e       	mov	r15, r17
     bee:	0c 2d       	mov	r16, r12
     bf0:	1d 2d       	mov	r17, r13
     bf2:	81 2c       	mov	r8, r1
     bf4:	91 2c       	mov	r9, r1
     bf6:	b8 86       	std	Y+8, r11	; 0x08
     bf8:	af 82       	std	Y+7, r10	; 0x07
     bfa:	67 01       	movw	r12, r14
		vec[i].re=cos(theta_list[thephi_index]*M_PI/360);												// ALPHA RE (IM=0)
     bfc:	f7 01       	movw	r30, r14
     bfe:	41 90       	ld	r4, Z+
     c00:	51 90       	ld	r5, Z+
     c02:	7f 01       	movw	r14, r30
     c04:	66 24       	eor	r6, r6
     c06:	57 fc       	sbrc	r5, 7
     c08:	60 94       	com	r6
     c0a:	76 2c       	mov	r7, r6
     c0c:	c3 01       	movw	r24, r6
     c0e:	b2 01       	movw	r22, r4
     c10:	0e 94 7f 30 	call	0x60fe	; 0x60fe <__floatsisf>
     c14:	2b ed       	ldi	r18, 0xDB	; 219
     c16:	3f e0       	ldi	r19, 0x0F	; 15
     c18:	49 e4       	ldi	r20, 0x49	; 73
     c1a:	50 e4       	ldi	r21, 0x40	; 64
     c1c:	0e 94 61 32 	call	0x64c2	; 0x64c2 <__mulsf3>
     c20:	20 e0       	ldi	r18, 0x00	; 0
     c22:	30 e0       	ldi	r19, 0x00	; 0
     c24:	44 eb       	ldi	r20, 0xB4	; 180
     c26:	53 e4       	ldi	r21, 0x43	; 67
     c28:	0e 94 b3 2f 	call	0x5f66	; 0x5f66 <__divsf3>
     c2c:	0e 94 b0 2f 	call	0x5f60	; 0x5f60 <cos>
     c30:	ef 81       	ldd	r30, Y+7	; 0x07
     c32:	f8 85       	ldd	r31, Y+8	; 0x08
     c34:	60 83       	st	Z, r22
     c36:	71 83       	std	Z+1, r23	; 0x01
     c38:	82 83       	std	Z+2, r24	; 0x02
     c3a:	93 83       	std	Z+3, r25	; 0x03
		vec[i+1].re=sin((theta_list[thephi_index]*M_PI)/360)*cos((phi_list[thephi_index]*M_PI)/180);	// BETA RE
     c3c:	c3 01       	movw	r24, r6
     c3e:	b2 01       	movw	r22, r4
     c40:	0e 94 7f 30 	call	0x60fe	; 0x60fe <__floatsisf>
     c44:	2b ed       	ldi	r18, 0xDB	; 219
     c46:	3f e0       	ldi	r19, 0x0F	; 15
     c48:	49 e4       	ldi	r20, 0x49	; 73
     c4a:	50 e4       	ldi	r21, 0x40	; 64
     c4c:	0e 94 61 32 	call	0x64c2	; 0x64c2 <__mulsf3>
     c50:	20 e0       	ldi	r18, 0x00	; 0
     c52:	30 e0       	ldi	r19, 0x00	; 0
     c54:	44 eb       	ldi	r20, 0xB4	; 180
     c56:	53 e4       	ldi	r21, 0x43	; 67
     c58:	0e 94 b3 2f 	call	0x5f66	; 0x5f66 <__divsf3>
     c5c:	0e 94 c4 32 	call	0x6588	; 0x6588 <sin>
     c60:	2b 01       	movw	r4, r22
     c62:	3c 01       	movw	r6, r24
     c64:	58 01       	movw	r10, r16
     c66:	f8 01       	movw	r30, r16
     c68:	61 91       	ld	r22, Z+
     c6a:	71 91       	ld	r23, Z+
     c6c:	8f 01       	movw	r16, r30
     c6e:	88 27       	eor	r24, r24
     c70:	77 fd       	sbrc	r23, 7
     c72:	80 95       	com	r24
     c74:	98 2f       	mov	r25, r24
     c76:	0e 94 7f 30 	call	0x60fe	; 0x60fe <__floatsisf>
     c7a:	2b ed       	ldi	r18, 0xDB	; 219
     c7c:	3f e0       	ldi	r19, 0x0F	; 15
     c7e:	49 e4       	ldi	r20, 0x49	; 73
     c80:	50 e4       	ldi	r21, 0x40	; 64
     c82:	0e 94 61 32 	call	0x64c2	; 0x64c2 <__mulsf3>
     c86:	20 e0       	ldi	r18, 0x00	; 0
     c88:	30 e0       	ldi	r19, 0x00	; 0
     c8a:	44 e3       	ldi	r20, 0x34	; 52
     c8c:	53 e4       	ldi	r21, 0x43	; 67
     c8e:	0e 94 b3 2f 	call	0x5f66	; 0x5f66 <__divsf3>
     c92:	0e 94 b0 2f 	call	0x5f60	; 0x5f60 <cos>
     c96:	9b 01       	movw	r18, r22
     c98:	ac 01       	movw	r20, r24
     c9a:	c3 01       	movw	r24, r6
     c9c:	b2 01       	movw	r22, r4
     c9e:	0e 94 61 32 	call	0x64c2	; 0x64c2 <__mulsf3>
     ca2:	ef 81       	ldd	r30, Y+7	; 0x07
     ca4:	f8 85       	ldd	r31, Y+8	; 0x08
     ca6:	60 87       	std	Z+8, r22	; 0x08
     ca8:	71 87       	std	Z+9, r23	; 0x09
     caa:	82 87       	std	Z+10, r24	; 0x0a
     cac:	93 87       	std	Z+11, r25	; 0x0b
		vec[i+1].im=sin((theta_list[thephi_index]*M_PI)/360)*sin((phi_list[thephi_index]*M_PI)/180);  // BETA IM
     cae:	f6 01       	movw	r30, r12
     cb0:	60 81       	ld	r22, Z
     cb2:	71 81       	ldd	r23, Z+1	; 0x01
     cb4:	88 27       	eor	r24, r24
     cb6:	77 fd       	sbrc	r23, 7
     cb8:	80 95       	com	r24
     cba:	98 2f       	mov	r25, r24
     cbc:	0e 94 7f 30 	call	0x60fe	; 0x60fe <__floatsisf>
     cc0:	2b ed       	ldi	r18, 0xDB	; 219
     cc2:	3f e0       	ldi	r19, 0x0F	; 15
     cc4:	49 e4       	ldi	r20, 0x49	; 73
     cc6:	50 e4       	ldi	r21, 0x40	; 64
     cc8:	0e 94 61 32 	call	0x64c2	; 0x64c2 <__mulsf3>
     ccc:	20 e0       	ldi	r18, 0x00	; 0
     cce:	30 e0       	ldi	r19, 0x00	; 0
     cd0:	44 eb       	ldi	r20, 0xB4	; 180
     cd2:	53 e4       	ldi	r21, 0x43	; 67
     cd4:	0e 94 b3 2f 	call	0x5f66	; 0x5f66 <__divsf3>
     cd8:	0e 94 c4 32 	call	0x6588	; 0x6588 <sin>
     cdc:	2b 01       	movw	r4, r22
     cde:	3c 01       	movw	r6, r24
     ce0:	f5 01       	movw	r30, r10
     ce2:	60 81       	ld	r22, Z
     ce4:	71 81       	ldd	r23, Z+1	; 0x01
     ce6:	88 27       	eor	r24, r24
     ce8:	77 fd       	sbrc	r23, 7
     cea:	80 95       	com	r24
     cec:	98 2f       	mov	r25, r24
     cee:	0e 94 7f 30 	call	0x60fe	; 0x60fe <__floatsisf>
     cf2:	2b ed       	ldi	r18, 0xDB	; 219
     cf4:	3f e0       	ldi	r19, 0x0F	; 15
     cf6:	49 e4       	ldi	r20, 0x49	; 73
     cf8:	50 e4       	ldi	r21, 0x40	; 64
     cfa:	0e 94 61 32 	call	0x64c2	; 0x64c2 <__mulsf3>
     cfe:	20 e0       	ldi	r18, 0x00	; 0
     d00:	30 e0       	ldi	r19, 0x00	; 0
     d02:	44 e3       	ldi	r20, 0x34	; 52
     d04:	53 e4       	ldi	r21, 0x43	; 67
     d06:	0e 94 b3 2f 	call	0x5f66	; 0x5f66 <__divsf3>
     d0a:	0e 94 c4 32 	call	0x6588	; 0x6588 <sin>
     d0e:	9b 01       	movw	r18, r22
     d10:	ac 01       	movw	r20, r24
     d12:	c3 01       	movw	r24, r6
     d14:	b2 01       	movw	r22, r4
     d16:	0e 94 61 32 	call	0x64c2	; 0x64c2 <__mulsf3>
     d1a:	ef 81       	ldd	r30, Y+7	; 0x07
     d1c:	f8 85       	ldd	r31, Y+8	; 0x08
     d1e:	64 87       	std	Z+12, r22	; 0x0c
     d20:	75 87       	std	Z+13, r23	; 0x0d
     d22:	86 87       	std	Z+14, r24	; 0x0e
     d24:	97 87       	std	Z+15, r25	; 0x0f
}

Complex * Gates::ampl2vec(int qb_count,int theta_list[6],int phi_list[6]){
	Complex* vec=(Complex*)malloc(sizeof(Complex)*(qb_count*2));
	int thephi_index=0;
	for(int i=0;i<qb_count*2;i+=2){
     d26:	f2 e0       	ldi	r31, 0x02	; 2
     d28:	8f 0e       	add	r8, r31
     d2a:	91 1c       	adc	r9, r1
     d2c:	8f 81       	ldd	r24, Y+7	; 0x07
     d2e:	98 85       	ldd	r25, Y+8	; 0x08
     d30:	40 96       	adiw	r24, 0x10	; 16
     d32:	98 87       	std	Y+8, r25	; 0x08
     d34:	8f 83       	std	Y+7, r24	; 0x07
     d36:	82 14       	cp	r8, r2
     d38:	93 04       	cpc	r9, r3
     d3a:	0c f4       	brge	.+2      	; 0xd3e <_ZN5Gates8ampl2vecEiPiS0_+0x1c2>
     d3c:	5e cf       	rjmp	.-324    	; 0xbfa <_ZN5Gates8ampl2vecEiPiS0_+0x7e>
		vec[i].re=cos(theta_list[thephi_index]*M_PI/360);												// ALPHA RE (IM=0)
		vec[i+1].re=sin((theta_list[thephi_index]*M_PI)/360)*cos((phi_list[thephi_index]*M_PI)/180);	// BETA RE
		vec[i+1].im=sin((theta_list[thephi_index]*M_PI)/360)*sin((phi_list[thephi_index]*M_PI)/180);  // BETA IM
		thephi_index++;
	}
	print_states(qb_count*2,vec,"Before: ");
     d3e:	45 e7       	ldi	r20, 0x75	; 117
     d40:	50 e0       	ldi	r21, 0x00	; 0
     d42:	6b 81       	ldd	r22, Y+3	; 0x03
     d44:	7c 81       	ldd	r23, Y+4	; 0x04
     d46:	c1 01       	movw	r24, r2
     d48:	0e 94 2a 03 	call	0x654	; 0x654 <_Z12print_statesiP7ComplexPc>
	return kronecker(vec,qb_count,true); // PUT VEC INTO KRONECKER AND RETURN THE RESULT
     d4c:	21 e0       	ldi	r18, 0x01	; 1
     d4e:	30 e0       	ldi	r19, 0x00	; 0
     d50:	49 81       	ldd	r20, Y+1	; 0x01
     d52:	5a 81       	ldd	r21, Y+2	; 0x02
     d54:	6b 81       	ldd	r22, Y+3	; 0x03
     d56:	7c 81       	ldd	r23, Y+4	; 0x04
     d58:	8d 81       	ldd	r24, Y+5	; 0x05
     d5a:	9e 81       	ldd	r25, Y+6	; 0x06
     d5c:	0e 94 c5 04 	call	0x98a	; 0x98a <_ZN5Gates9kroneckerEP7Complexii>
}
     d60:	28 96       	adiw	r28, 0x08	; 8
     d62:	0f b6       	in	r0, 0x3f	; 63
     d64:	f8 94       	cli
     d66:	de bf       	out	0x3e, r29	; 62
     d68:	0f be       	out	0x3f, r0	; 63
     d6a:	cd bf       	out	0x3d, r28	; 61
     d6c:	df 91       	pop	r29
     d6e:	cf 91       	pop	r28
     d70:	1f 91       	pop	r17
     d72:	0f 91       	pop	r16
     d74:	ff 90       	pop	r15
     d76:	ef 90       	pop	r14
     d78:	df 90       	pop	r13
     d7a:	cf 90       	pop	r12
     d7c:	bf 90       	pop	r11
     d7e:	af 90       	pop	r10
     d80:	9f 90       	pop	r9
     d82:	8f 90       	pop	r8
     d84:	7f 90       	pop	r7
     d86:	6f 90       	pop	r6
     d88:	5f 90       	pop	r5
     d8a:	4f 90       	pop	r4
     d8c:	3f 90       	pop	r3
     d8e:	2f 90       	pop	r2
     d90:	08 95       	ret

00000d92 <_ZN5Gates8vec2amplEP7Complexi>:
int * Gates::vec2ampl(Complex * vec,int qb_count){
     d92:	4f 92       	push	r4
     d94:	5f 92       	push	r5
     d96:	6f 92       	push	r6
     d98:	7f 92       	push	r7
     d9a:	8f 92       	push	r8
     d9c:	9f 92       	push	r9
     d9e:	af 92       	push	r10
     da0:	bf 92       	push	r11
     da2:	cf 92       	push	r12
     da4:	df 92       	push	r13
     da6:	ef 92       	push	r14
     da8:	ff 92       	push	r15
     daa:	0f 93       	push	r16
     dac:	1f 93       	push	r17
     dae:	cf 93       	push	r28
     db0:	df 93       	push	r29
     db2:	ec 01       	movw	r28, r24
     db4:	66 2e       	mov	r6, r22
     db6:	77 2e       	mov	r7, r23
     db8:	6a 01       	movw	r12, r20
	int kron_size=utils.custom_pow(2,qb_count);
     dba:	9a 01       	movw	r18, r20
     dbc:	40 e0       	ldi	r20, 0x00	; 0
     dbe:	50 e0       	ldi	r21, 0x00	; 0
     dc0:	60 e0       	ldi	r22, 0x00	; 0
     dc2:	70 e4       	ldi	r23, 0x40	; 64
     dc4:	0e 94 ba 2e 	call	0x5d74	; 0x5d74 <_ZN5Utils10custom_powEfi>
     dc8:	0e 94 4c 30 	call	0x6098	; 0x6098 <__fixsfsi>
     dcc:	4b 01       	movw	r8, r22
     dce:	5c 01       	movw	r10, r24
	if(qb_count>1) vec=reverse_kronecker(vec,kron_size);
     dd0:	82 e0       	ldi	r24, 0x02	; 2
     dd2:	c8 16       	cp	r12, r24
     dd4:	d1 04       	cpc	r13, r1
     dd6:	44 f0       	brlt	.+16     	; 0xde8 <_ZN5Gates8vec2amplEP7Complexi+0x56>
     dd8:	a4 01       	movw	r20, r8
     dda:	66 2d       	mov	r22, r6
     ddc:	77 2d       	mov	r23, r7
     dde:	ce 01       	movw	r24, r28
     de0:	0e 94 c6 03 	call	0x78c	; 0x78c <_ZN5Gates17reverse_kroneckerEP7Complexi>
     de4:	68 2e       	mov	r6, r24
     de6:	79 2e       	mov	r7, r25
	
	int* newthephi=(int*)malloc(sizeof(int)*(qb_count*2));
     de8:	c6 01       	movw	r24, r12
     dea:	88 0f       	add	r24, r24
     dec:	99 1f       	adc	r25, r25
     dee:	88 0f       	add	r24, r24
     df0:	99 1f       	adc	r25, r25
     df2:	0e 94 63 33 	call	0x66c6	; 0x66c6 <malloc>
     df6:	48 2e       	mov	r4, r24
     df8:	59 2e       	mov	r5, r25
	for(int i=0;i<qb_count*2;i++) if(i%2==0) newthephi[i]=(360*acos(vec[i].re))/M_PI; else newthephi[i]=(180*vec[i].arg())/M_PI;
     dfa:	cc 0c       	add	r12, r12
     dfc:	dd 1c       	adc	r13, r13
     dfe:	1c 14       	cp	r1, r12
     e00:	1d 04       	cpc	r1, r13
     e02:	f4 f5       	brge	.+124    	; 0xe80 <_ZN5Gates8vec2amplEP7Complexi+0xee>
     e04:	e6 2c       	mov	r14, r6
     e06:	f7 2c       	mov	r15, r7
     e08:	08 2f       	mov	r16, r24
     e0a:	19 2f       	mov	r17, r25
     e0c:	c0 e0       	ldi	r28, 0x00	; 0
     e0e:	d0 e0       	ldi	r29, 0x00	; 0
     e10:	c0 fd       	sbrc	r28, 0
     e12:	19 c0       	rjmp	.+50     	; 0xe46 <_ZN5Gates8vec2amplEP7Complexi+0xb4>
     e14:	f7 01       	movw	r30, r14
     e16:	60 81       	ld	r22, Z
     e18:	71 81       	ldd	r23, Z+1	; 0x01
     e1a:	82 81       	ldd	r24, Z+2	; 0x02
     e1c:	93 81       	ldd	r25, Z+3	; 0x03
     e1e:	0e 94 11 2f 	call	0x5e22	; 0x5e22 <acos>
     e22:	20 e0       	ldi	r18, 0x00	; 0
     e24:	30 e0       	ldi	r19, 0x00	; 0
     e26:	44 eb       	ldi	r20, 0xB4	; 180
     e28:	53 e4       	ldi	r21, 0x43	; 67
     e2a:	0e 94 61 32 	call	0x64c2	; 0x64c2 <__mulsf3>
     e2e:	2b ed       	ldi	r18, 0xDB	; 219
     e30:	3f e0       	ldi	r19, 0x0F	; 15
     e32:	49 e4       	ldi	r20, 0x49	; 73
     e34:	50 e4       	ldi	r21, 0x40	; 64
     e36:	0e 94 b3 2f 	call	0x5f66	; 0x5f66 <__divsf3>
     e3a:	0e 94 4c 30 	call	0x6098	; 0x6098 <__fixsfsi>
     e3e:	f8 01       	movw	r30, r16
     e40:	71 83       	std	Z+1, r23	; 0x01
     e42:	60 83       	st	Z, r22
     e44:	14 c0       	rjmp	.+40     	; 0xe6e <_ZN5Gates8vec2amplEP7Complexi+0xdc>
     e46:	c7 01       	movw	r24, r14
     e48:	0e 94 1d 02 	call	0x43a	; 0x43a <_ZN7Complex3argEv>
     e4c:	20 e0       	ldi	r18, 0x00	; 0
     e4e:	30 e0       	ldi	r19, 0x00	; 0
     e50:	44 e3       	ldi	r20, 0x34	; 52
     e52:	53 e4       	ldi	r21, 0x43	; 67
     e54:	0e 94 61 32 	call	0x64c2	; 0x64c2 <__mulsf3>
     e58:	2b ed       	ldi	r18, 0xDB	; 219
     e5a:	3f e0       	ldi	r19, 0x0F	; 15
     e5c:	49 e4       	ldi	r20, 0x49	; 73
     e5e:	50 e4       	ldi	r21, 0x40	; 64
     e60:	0e 94 b3 2f 	call	0x5f66	; 0x5f66 <__divsf3>
     e64:	0e 94 4c 30 	call	0x6098	; 0x6098 <__fixsfsi>
     e68:	f8 01       	movw	r30, r16
     e6a:	71 83       	std	Z+1, r23	; 0x01
     e6c:	60 83       	st	Z, r22
     e6e:	21 96       	adiw	r28, 0x01	; 1
     e70:	f8 e0       	ldi	r31, 0x08	; 8
     e72:	ef 0e       	add	r14, r31
     e74:	f1 1c       	adc	r15, r1
     e76:	0e 5f       	subi	r16, 0xFE	; 254
     e78:	1f 4f       	sbci	r17, 0xFF	; 255
     e7a:	cc 15       	cp	r28, r12
     e7c:	dd 05       	cpc	r29, r13
     e7e:	41 f6       	brne	.-112    	; 0xe10 <_ZN5Gates8vec2amplEP7Complexi+0x7e>
	
	print_states(kron_size,vec,"After: ");
     e80:	4e e7       	ldi	r20, 0x7E	; 126
     e82:	50 e0       	ldi	r21, 0x00	; 0
     e84:	66 2d       	mov	r22, r6
     e86:	77 2d       	mov	r23, r7
     e88:	c4 01       	movw	r24, r8
     e8a:	0e 94 2a 03 	call	0x654	; 0x654 <_Z12print_statesiP7ComplexPc>
	return newthephi;
}
     e8e:	84 2d       	mov	r24, r4
     e90:	95 2d       	mov	r25, r5
     e92:	df 91       	pop	r29
     e94:	cf 91       	pop	r28
     e96:	1f 91       	pop	r17
     e98:	0f 91       	pop	r16
     e9a:	ff 90       	pop	r15
     e9c:	ef 90       	pop	r14
     e9e:	df 90       	pop	r13
     ea0:	cf 90       	pop	r12
     ea2:	bf 90       	pop	r11
     ea4:	af 90       	pop	r10
     ea6:	9f 90       	pop	r9
     ea8:	8f 90       	pop	r8
     eaa:	7f 90       	pop	r7
     eac:	6f 90       	pop	r6
     eae:	5f 90       	pop	r5
     eb0:	4f 90       	pop	r4
     eb2:	08 95       	ret

00000eb4 <_ZN5Gates11multiply2x2EP7ComplexPA2_S0_>:

Complex * Gates::multiply2x2(Complex *q,Complex matrix[2][2]){
     eb4:	2f 92       	push	r2
     eb6:	3f 92       	push	r3
     eb8:	4f 92       	push	r4
     eba:	5f 92       	push	r5
     ebc:	6f 92       	push	r6
     ebe:	7f 92       	push	r7
     ec0:	8f 92       	push	r8
     ec2:	9f 92       	push	r9
     ec4:	af 92       	push	r10
     ec6:	bf 92       	push	r11
     ec8:	cf 92       	push	r12
     eca:	df 92       	push	r13
     ecc:	ef 92       	push	r14
     ece:	ff 92       	push	r15
     ed0:	0f 93       	push	r16
     ed2:	1f 93       	push	r17
     ed4:	cf 93       	push	r28
     ed6:	df 93       	push	r29
     ed8:	cd b7       	in	r28, 0x3d	; 61
     eda:	de b7       	in	r29, 0x3e	; 62
     edc:	60 97       	sbiw	r28, 0x10	; 16
     ede:	0f b6       	in	r0, 0x3f	; 63
     ee0:	f8 94       	cli
     ee2:	de bf       	out	0x3e, r29	; 62
     ee4:	0f be       	out	0x3f, r0	; 63
     ee6:	cd bf       	out	0x3d, r28	; 61
     ee8:	4b 01       	movw	r8, r22
     eea:	3a 01       	movw	r6, r20
	int qb_size=2;
	Complex * result=(Complex*)malloc(sizeof(Complex)*qb_size);
     eec:	80 e1       	ldi	r24, 0x10	; 16
     eee:	90 e0       	ldi	r25, 0x00	; 0
     ef0:	0e 94 63 33 	call	0x66c6	; 0x66c6 <malloc>
     ef4:	38 2e       	mov	r3, r24
     ef6:	29 2e       	mov	r2, r25
     ef8:	c8 2e       	mov	r12, r24
     efa:	d9 2e       	mov	r13, r25
	for(int i=0;i<qb_size;i++){
     efc:	a1 2c       	mov	r10, r1
     efe:	b1 2c       	mov	r11, r1
		Complex tmp;
		for(int j=0;j<qb_size;j++) tmp=tmp.add(q[j].mul(matrix[j][i]));
     f00:	24 01       	movw	r4, r8
     f02:	88 e0       	ldi	r24, 0x08	; 8
     f04:	48 0e       	add	r4, r24
     f06:	51 1c       	adc	r5, r1

Complex * Gates::multiply2x2(Complex *q,Complex matrix[2][2]){
	int qb_size=2;
	Complex * result=(Complex*)malloc(sizeof(Complex)*qb_size);
	for(int i=0;i<qb_size;i++){
		Complex tmp;
     f08:	ce 01       	movw	r24, r28
     f0a:	09 96       	adiw	r24, 0x09	; 9
     f0c:	0e 94 1b 01 	call	0x236	; 0x236 <_ZN7ComplexC1Ev>
		for(int j=0;j<qb_size;j++) tmp=tmp.add(q[j].mul(matrix[j][i]));
     f10:	75 01       	movw	r14, r10
     f12:	ee 0c       	add	r14, r14
     f14:	ff 1c       	adc	r15, r15
     f16:	ee 0c       	add	r14, r14
     f18:	ff 1c       	adc	r15, r15
     f1a:	ee 0c       	add	r14, r14
     f1c:	ff 1c       	adc	r15, r15
     f1e:	e6 0c       	add	r14, r6
     f20:	f7 1c       	adc	r15, r7
     f22:	d7 01       	movw	r26, r14
     f24:	0c 91       	ld	r16, X
     f26:	11 96       	adiw	r26, 0x01	; 1
     f28:	1c 91       	ld	r17, X
     f2a:	11 97       	sbiw	r26, 0x01	; 1
     f2c:	12 96       	adiw	r26, 0x02	; 2
     f2e:	2c 91       	ld	r18, X
     f30:	12 97       	sbiw	r26, 0x02	; 2
     f32:	13 96       	adiw	r26, 0x03	; 3
     f34:	3c 91       	ld	r19, X
     f36:	13 97       	sbiw	r26, 0x03	; 3
     f38:	14 96       	adiw	r26, 0x04	; 4
     f3a:	4c 91       	ld	r20, X
     f3c:	14 97       	sbiw	r26, 0x04	; 4
     f3e:	15 96       	adiw	r26, 0x05	; 5
     f40:	5c 91       	ld	r21, X
     f42:	15 97       	sbiw	r26, 0x05	; 5
     f44:	16 96       	adiw	r26, 0x06	; 6
     f46:	6c 91       	ld	r22, X
     f48:	16 97       	sbiw	r26, 0x06	; 6
     f4a:	17 96       	adiw	r26, 0x07	; 7
     f4c:	7c 91       	ld	r23, X
     f4e:	c4 01       	movw	r24, r8
     f50:	0e 94 82 01 	call	0x304	; 0x304 <_ZN7Complex3mulES_>
     f54:	02 2f       	mov	r16, r18
     f56:	13 2f       	mov	r17, r19
     f58:	24 2f       	mov	r18, r20
     f5a:	35 2f       	mov	r19, r21
     f5c:	46 2f       	mov	r20, r22
     f5e:	57 2f       	mov	r21, r23
     f60:	68 2f       	mov	r22, r24
     f62:	79 2f       	mov	r23, r25
     f64:	ce 01       	movw	r24, r28
     f66:	09 96       	adiw	r24, 0x09	; 9
     f68:	0e 94 25 01 	call	0x24a	; 0x24a <_ZN7Complex3addES_>
     f6c:	29 87       	std	Y+9, r18	; 0x09
     f6e:	3a 87       	std	Y+10, r19	; 0x0a
     f70:	4b 87       	std	Y+11, r20	; 0x0b
     f72:	5c 87       	std	Y+12, r21	; 0x0c
     f74:	6d 87       	std	Y+13, r22	; 0x0d
     f76:	7e 87       	std	Y+14, r23	; 0x0e
     f78:	8f 87       	std	Y+15, r24	; 0x0f
     f7a:	98 8b       	std	Y+16, r25	; 0x10
     f7c:	f7 01       	movw	r30, r14
     f7e:	70 96       	adiw	r30, 0x10	; 16
     f80:	d7 01       	movw	r26, r14
     f82:	50 96       	adiw	r26, 0x10	; 16
     f84:	0c 91       	ld	r16, X
     f86:	11 81       	ldd	r17, Z+1	; 0x01
     f88:	22 81       	ldd	r18, Z+2	; 0x02
     f8a:	33 81       	ldd	r19, Z+3	; 0x03
     f8c:	44 81       	ldd	r20, Z+4	; 0x04
     f8e:	55 81       	ldd	r21, Z+5	; 0x05
     f90:	66 81       	ldd	r22, Z+6	; 0x06
     f92:	77 81       	ldd	r23, Z+7	; 0x07
     f94:	c2 01       	movw	r24, r4
     f96:	0e 94 82 01 	call	0x304	; 0x304 <_ZN7Complex3mulES_>
     f9a:	02 2f       	mov	r16, r18
     f9c:	13 2f       	mov	r17, r19
     f9e:	24 2f       	mov	r18, r20
     fa0:	35 2f       	mov	r19, r21
     fa2:	46 2f       	mov	r20, r22
     fa4:	57 2f       	mov	r21, r23
     fa6:	68 2f       	mov	r22, r24
     fa8:	79 2f       	mov	r23, r25
     faa:	ce 01       	movw	r24, r28
     fac:	09 96       	adiw	r24, 0x09	; 9
     fae:	0e 94 25 01 	call	0x24a	; 0x24a <_ZN7Complex3addES_>
     fb2:	29 87       	std	Y+9, r18	; 0x09
     fb4:	3a 87       	std	Y+10, r19	; 0x0a
     fb6:	4b 87       	std	Y+11, r20	; 0x0b
     fb8:	5c 87       	std	Y+12, r21	; 0x0c
     fba:	6d 87       	std	Y+13, r22	; 0x0d
     fbc:	7e 87       	std	Y+14, r23	; 0x0e
     fbe:	8f 87       	std	Y+15, r24	; 0x0f
     fc0:	98 8b       	std	Y+16, r25	; 0x10
		result[i].re=tmp.re;
     fc2:	89 85       	ldd	r24, Y+9	; 0x09
     fc4:	9a 85       	ldd	r25, Y+10	; 0x0a
     fc6:	ab 85       	ldd	r26, Y+11	; 0x0b
     fc8:	bc 85       	ldd	r27, Y+12	; 0x0c
     fca:	f6 01       	movw	r30, r12
     fcc:	80 83       	st	Z, r24
     fce:	91 83       	std	Z+1, r25	; 0x01
     fd0:	a2 83       	std	Z+2, r26	; 0x02
     fd2:	b3 83       	std	Z+3, r27	; 0x03
		result[i].im=tmp.im;
     fd4:	8d 85       	ldd	r24, Y+13	; 0x0d
     fd6:	9e 85       	ldd	r25, Y+14	; 0x0e
     fd8:	af 85       	ldd	r26, Y+15	; 0x0f
     fda:	b8 89       	ldd	r27, Y+16	; 0x10
     fdc:	84 83       	std	Z+4, r24	; 0x04
     fde:	95 83       	std	Z+5, r25	; 0x05
     fe0:	a6 83       	std	Z+6, r26	; 0x06
     fe2:	b7 83       	std	Z+7, r27	; 0x07
}

Complex * Gates::multiply2x2(Complex *q,Complex matrix[2][2]){
	int qb_size=2;
	Complex * result=(Complex*)malloc(sizeof(Complex)*qb_size);
	for(int i=0;i<qb_size;i++){
     fe4:	ff ef       	ldi	r31, 0xFF	; 255
     fe6:	af 1a       	sub	r10, r31
     fe8:	bf 0a       	sbc	r11, r31
     fea:	88 e0       	ldi	r24, 0x08	; 8
     fec:	c8 0e       	add	r12, r24
     fee:	d1 1c       	adc	r13, r1
     ff0:	a2 e0       	ldi	r26, 0x02	; 2
     ff2:	aa 16       	cp	r10, r26
     ff4:	b1 04       	cpc	r11, r1
     ff6:	09 f0       	breq	.+2      	; 0xffa <_ZN5Gates11multiply2x2EP7ComplexPA2_S0_+0x146>
     ff8:	87 cf       	rjmp	.-242    	; 0xf08 <_ZN5Gates11multiply2x2EP7ComplexPA2_S0_+0x54>
		for(int j=0;j<qb_size;j++) tmp=tmp.add(q[j].mul(matrix[j][i]));
		result[i].re=tmp.re;
		result[i].im=tmp.im;
	}
	return result;
}
     ffa:	83 2d       	mov	r24, r3
     ffc:	92 2d       	mov	r25, r2
     ffe:	60 96       	adiw	r28, 0x10	; 16
    1000:	0f b6       	in	r0, 0x3f	; 63
    1002:	f8 94       	cli
    1004:	de bf       	out	0x3e, r29	; 62
    1006:	0f be       	out	0x3f, r0	; 63
    1008:	cd bf       	out	0x3d, r28	; 61
    100a:	df 91       	pop	r29
    100c:	cf 91       	pop	r28
    100e:	1f 91       	pop	r17
    1010:	0f 91       	pop	r16
    1012:	ff 90       	pop	r15
    1014:	ef 90       	pop	r14
    1016:	df 90       	pop	r13
    1018:	cf 90       	pop	r12
    101a:	bf 90       	pop	r11
    101c:	af 90       	pop	r10
    101e:	9f 90       	pop	r9
    1020:	8f 90       	pop	r8
    1022:	7f 90       	pop	r7
    1024:	6f 90       	pop	r6
    1026:	5f 90       	pop	r5
    1028:	4f 90       	pop	r4
    102a:	3f 90       	pop	r3
    102c:	2f 90       	pop	r2
    102e:	08 95       	ret

00001030 <_ZN5Gates11multiply4x4EP7ComplexPA4_S0_>:
Complex * Gates::multiply4x4(Complex *q,Complex matrix[4][4]){
    1030:	2f 92       	push	r2
    1032:	3f 92       	push	r3
    1034:	4f 92       	push	r4
    1036:	5f 92       	push	r5
    1038:	6f 92       	push	r6
    103a:	7f 92       	push	r7
    103c:	8f 92       	push	r8
    103e:	9f 92       	push	r9
    1040:	af 92       	push	r10
    1042:	bf 92       	push	r11
    1044:	cf 92       	push	r12
    1046:	df 92       	push	r13
    1048:	ef 92       	push	r14
    104a:	ff 92       	push	r15
    104c:	0f 93       	push	r16
    104e:	1f 93       	push	r17
    1050:	cf 93       	push	r28
    1052:	df 93       	push	r29
    1054:	cd b7       	in	r28, 0x3d	; 61
    1056:	de b7       	in	r29, 0x3e	; 62
    1058:	64 97       	sbiw	r28, 0x14	; 20
    105a:	0f b6       	in	r0, 0x3f	; 63
    105c:	f8 94       	cli
    105e:	de bf       	out	0x3e, r29	; 62
    1060:	0f be       	out	0x3f, r0	; 63
    1062:	cd bf       	out	0x3d, r28	; 61
    1064:	3b 01       	movw	r6, r22
    1066:	e4 2e       	mov	r14, r20
    1068:	f5 2e       	mov	r15, r21
	int qb_size=4;
	Complex * result=(Complex*)malloc(sizeof(Complex)*qb_size);
    106a:	80 e2       	ldi	r24, 0x20	; 32
    106c:	90 e0       	ldi	r25, 0x00	; 0
    106e:	0e 94 63 33 	call	0x66c6	; 0x66c6 <malloc>
    1072:	8b 8b       	std	Y+19, r24	; 0x13
    1074:	9c 8b       	std	Y+20, r25	; 0x14
    1076:	48 2e       	mov	r4, r24
    1078:	59 2e       	mov	r5, r25
	for(int i=0;i<qb_size;i++){
    107a:	81 2c       	mov	r8, r1
    107c:	91 2c       	mov	r9, r1
    107e:	e9 8a       	std	Y+17, r14	; 0x11
    1080:	fa 8a       	std	Y+18, r15	; 0x12
		Complex tmp;
    1082:	21 2c       	mov	r2, r1
    1084:	31 2c       	mov	r3, r1
    1086:	ce 01       	movw	r24, r28
    1088:	09 96       	adiw	r24, 0x09	; 9
    108a:	0e 94 1b 01 	call	0x236	; 0x236 <_ZN7ComplexC1Ev>
    108e:	c9 88       	ldd	r12, Y+17	; 0x11
    1090:	da 88       	ldd	r13, Y+18	; 0x12
    1092:	e2 2c       	mov	r14, r2
    1094:	f3 2c       	mov	r15, r3
		for(int j=0;j<qb_size;j++) tmp=tmp.add(q[j].mul(matrix[j][i]));
    1096:	54 01       	movw	r10, r8
    1098:	aa 0c       	add	r10, r10
    109a:	bb 1c       	adc	r11, r11
    109c:	aa 0c       	add	r10, r10
    109e:	bb 1c       	adc	r11, r11
    10a0:	aa 0c       	add	r10, r10
    10a2:	bb 1c       	adc	r11, r11
    10a4:	f5 01       	movw	r30, r10
    10a6:	ec 0d       	add	r30, r12
    10a8:	fd 1d       	adc	r31, r13
    10aa:	00 81       	ld	r16, Z
    10ac:	11 81       	ldd	r17, Z+1	; 0x01
    10ae:	22 81       	ldd	r18, Z+2	; 0x02
    10b0:	33 81       	ldd	r19, Z+3	; 0x03
    10b2:	44 81       	ldd	r20, Z+4	; 0x04
    10b4:	55 81       	ldd	r21, Z+5	; 0x05
    10b6:	66 81       	ldd	r22, Z+6	; 0x06
    10b8:	77 81       	ldd	r23, Z+7	; 0x07
    10ba:	c3 01       	movw	r24, r6
    10bc:	8e 0d       	add	r24, r14
    10be:	9f 1d       	adc	r25, r15
    10c0:	0e 94 82 01 	call	0x304	; 0x304 <_ZN7Complex3mulES_>
    10c4:	29 83       	std	Y+1, r18	; 0x01
    10c6:	3a 83       	std	Y+2, r19	; 0x02
    10c8:	4b 83       	std	Y+3, r20	; 0x03
    10ca:	5c 83       	std	Y+4, r21	; 0x04
    10cc:	6d 83       	std	Y+5, r22	; 0x05
    10ce:	7e 83       	std	Y+6, r23	; 0x06
    10d0:	8f 83       	std	Y+7, r24	; 0x07
    10d2:	98 87       	std	Y+8, r25	; 0x08
    10d4:	02 2f       	mov	r16, r18
    10d6:	13 2f       	mov	r17, r19
    10d8:	24 2f       	mov	r18, r20
    10da:	35 2f       	mov	r19, r21
    10dc:	46 2f       	mov	r20, r22
    10de:	57 2f       	mov	r21, r23
    10e0:	68 2f       	mov	r22, r24
    10e2:	79 2f       	mov	r23, r25
    10e4:	ce 01       	movw	r24, r28
    10e6:	09 96       	adiw	r24, 0x09	; 9
    10e8:	0e 94 25 01 	call	0x24a	; 0x24a <_ZN7Complex3addES_>
    10ec:	29 87       	std	Y+9, r18	; 0x09
    10ee:	3a 87       	std	Y+10, r19	; 0x0a
    10f0:	4b 87       	std	Y+11, r20	; 0x0b
    10f2:	5c 87       	std	Y+12, r21	; 0x0c
    10f4:	6d 87       	std	Y+13, r22	; 0x0d
    10f6:	7e 87       	std	Y+14, r23	; 0x0e
    10f8:	8f 87       	std	Y+15, r24	; 0x0f
    10fa:	98 8b       	std	Y+16, r25	; 0x10
    10fc:	88 e0       	ldi	r24, 0x08	; 8
    10fe:	e8 0e       	add	r14, r24
    1100:	f1 1c       	adc	r15, r1
    1102:	e0 e2       	ldi	r30, 0x20	; 32
    1104:	ce 0e       	add	r12, r30
    1106:	d1 1c       	adc	r13, r1
    1108:	f0 e2       	ldi	r31, 0x20	; 32
    110a:	ef 16       	cp	r14, r31
    110c:	f1 04       	cpc	r15, r1
    110e:	51 f6       	brne	.-108    	; 0x10a4 <_ZN5Gates11multiply4x4EP7ComplexPA4_S0_+0x74>
		result[i].re=tmp.re;
    1110:	89 85       	ldd	r24, Y+9	; 0x09
    1112:	9a 85       	ldd	r25, Y+10	; 0x0a
    1114:	ab 85       	ldd	r26, Y+11	; 0x0b
    1116:	bc 85       	ldd	r27, Y+12	; 0x0c
    1118:	f2 01       	movw	r30, r4
    111a:	80 83       	st	Z, r24
    111c:	91 83       	std	Z+1, r25	; 0x01
    111e:	a2 83       	std	Z+2, r26	; 0x02
    1120:	b3 83       	std	Z+3, r27	; 0x03
		result[i].im=tmp.im;
    1122:	8d 85       	ldd	r24, Y+13	; 0x0d
    1124:	9e 85       	ldd	r25, Y+14	; 0x0e
    1126:	af 85       	ldd	r26, Y+15	; 0x0f
    1128:	b8 89       	ldd	r27, Y+16	; 0x10
    112a:	84 83       	std	Z+4, r24	; 0x04
    112c:	95 83       	std	Z+5, r25	; 0x05
    112e:	a6 83       	std	Z+6, r26	; 0x06
    1130:	b7 83       	std	Z+7, r27	; 0x07
	return result;
}
Complex * Gates::multiply4x4(Complex *q,Complex matrix[4][4]){
	int qb_size=4;
	Complex * result=(Complex*)malloc(sizeof(Complex)*qb_size);
	for(int i=0;i<qb_size;i++){
    1132:	ff ef       	ldi	r31, 0xFF	; 255
    1134:	8f 1a       	sub	r8, r31
    1136:	9f 0a       	sbc	r9, r31
    1138:	88 e0       	ldi	r24, 0x08	; 8
    113a:	48 0e       	add	r4, r24
    113c:	51 1c       	adc	r5, r1
    113e:	e4 e0       	ldi	r30, 0x04	; 4
    1140:	8e 16       	cp	r8, r30
    1142:	91 04       	cpc	r9, r1
    1144:	09 f0       	breq	.+2      	; 0x1148 <_ZN5Gates11multiply4x4EP7ComplexPA4_S0_+0x118>
    1146:	9f cf       	rjmp	.-194    	; 0x1086 <_ZN5Gates11multiply4x4EP7ComplexPA4_S0_+0x56>
		for(int j=0;j<qb_size;j++) tmp=tmp.add(q[j].mul(matrix[j][i]));
		result[i].re=tmp.re;
		result[i].im=tmp.im;
	}
	return result;
}
    1148:	8b 89       	ldd	r24, Y+19	; 0x13
    114a:	9c 89       	ldd	r25, Y+20	; 0x14
    114c:	64 96       	adiw	r28, 0x14	; 20
    114e:	0f b6       	in	r0, 0x3f	; 63
    1150:	f8 94       	cli
    1152:	de bf       	out	0x3e, r29	; 62
    1154:	0f be       	out	0x3f, r0	; 63
    1156:	cd bf       	out	0x3d, r28	; 61
    1158:	df 91       	pop	r29
    115a:	cf 91       	pop	r28
    115c:	1f 91       	pop	r17
    115e:	0f 91       	pop	r16
    1160:	ff 90       	pop	r15
    1162:	ef 90       	pop	r14
    1164:	df 90       	pop	r13
    1166:	cf 90       	pop	r12
    1168:	bf 90       	pop	r11
    116a:	af 90       	pop	r10
    116c:	9f 90       	pop	r9
    116e:	8f 90       	pop	r8
    1170:	7f 90       	pop	r7
    1172:	6f 90       	pop	r6
    1174:	5f 90       	pop	r5
    1176:	4f 90       	pop	r4
    1178:	3f 90       	pop	r3
    117a:	2f 90       	pop	r2
    117c:	08 95       	ret

0000117e <_ZN5Gates11multiply8x8EP7ComplexPA8_S0_>:
Complex * Gates::multiply8x8(Complex *q,Complex matrix[8][8]){
    117e:	2f 92       	push	r2
    1180:	3f 92       	push	r3
    1182:	4f 92       	push	r4
    1184:	5f 92       	push	r5
    1186:	6f 92       	push	r6
    1188:	7f 92       	push	r7
    118a:	8f 92       	push	r8
    118c:	9f 92       	push	r9
    118e:	af 92       	push	r10
    1190:	bf 92       	push	r11
    1192:	cf 92       	push	r12
    1194:	df 92       	push	r13
    1196:	ef 92       	push	r14
    1198:	ff 92       	push	r15
    119a:	0f 93       	push	r16
    119c:	1f 93       	push	r17
    119e:	cf 93       	push	r28
    11a0:	df 93       	push	r29
    11a2:	cd b7       	in	r28, 0x3d	; 61
    11a4:	de b7       	in	r29, 0x3e	; 62
    11a6:	62 97       	sbiw	r28, 0x12	; 18
    11a8:	0f b6       	in	r0, 0x3f	; 63
    11aa:	f8 94       	cli
    11ac:	de bf       	out	0x3e, r29	; 62
    11ae:	0f be       	out	0x3f, r0	; 63
    11b0:	cd bf       	out	0x3d, r28	; 61
    11b2:	4b 01       	movw	r8, r22
    11b4:	34 2e       	mov	r3, r20
    11b6:	25 2e       	mov	r2, r21
	int qb_size=8;
	Complex * result=(Complex*)malloc(sizeof(Complex)*qb_size);
    11b8:	80 e4       	ldi	r24, 0x40	; 64
    11ba:	90 e0       	ldi	r25, 0x00	; 0
    11bc:	0e 94 63 33 	call	0x66c6	; 0x66c6 <malloc>
    11c0:	89 8b       	std	Y+17, r24	; 0x11
    11c2:	9a 8b       	std	Y+18, r25	; 0x12
    11c4:	48 2e       	mov	r4, r24
    11c6:	59 2e       	mov	r5, r25
	for(int i=0;i<qb_size;i++){
    11c8:	61 2c       	mov	r6, r1
    11ca:	71 2c       	mov	r7, r1
		Complex tmp;
    11cc:	ce 01       	movw	r24, r28
    11ce:	09 96       	adiw	r24, 0x09	; 9
    11d0:	0e 94 1b 01 	call	0x236	; 0x236 <_ZN7ComplexC1Ev>
    11d4:	c3 2c       	mov	r12, r3
    11d6:	d2 2c       	mov	r13, r2
    11d8:	e1 2c       	mov	r14, r1
    11da:	f1 2c       	mov	r15, r1
		for(int j=0;j<qb_size;j++) tmp=tmp.add(q[j].mul(matrix[j][i]));
    11dc:	53 01       	movw	r10, r6
    11de:	aa 0c       	add	r10, r10
    11e0:	bb 1c       	adc	r11, r11
    11e2:	aa 0c       	add	r10, r10
    11e4:	bb 1c       	adc	r11, r11
    11e6:	aa 0c       	add	r10, r10
    11e8:	bb 1c       	adc	r11, r11
    11ea:	f5 01       	movw	r30, r10
    11ec:	ec 0d       	add	r30, r12
    11ee:	fd 1d       	adc	r31, r13
    11f0:	00 81       	ld	r16, Z
    11f2:	11 81       	ldd	r17, Z+1	; 0x01
    11f4:	22 81       	ldd	r18, Z+2	; 0x02
    11f6:	33 81       	ldd	r19, Z+3	; 0x03
    11f8:	44 81       	ldd	r20, Z+4	; 0x04
    11fa:	55 81       	ldd	r21, Z+5	; 0x05
    11fc:	66 81       	ldd	r22, Z+6	; 0x06
    11fe:	77 81       	ldd	r23, Z+7	; 0x07
    1200:	c4 01       	movw	r24, r8
    1202:	8e 0d       	add	r24, r14
    1204:	9f 1d       	adc	r25, r15
    1206:	0e 94 82 01 	call	0x304	; 0x304 <_ZN7Complex3mulES_>
    120a:	29 83       	std	Y+1, r18	; 0x01
    120c:	3a 83       	std	Y+2, r19	; 0x02
    120e:	4b 83       	std	Y+3, r20	; 0x03
    1210:	5c 83       	std	Y+4, r21	; 0x04
    1212:	6d 83       	std	Y+5, r22	; 0x05
    1214:	7e 83       	std	Y+6, r23	; 0x06
    1216:	8f 83       	std	Y+7, r24	; 0x07
    1218:	98 87       	std	Y+8, r25	; 0x08
    121a:	02 2f       	mov	r16, r18
    121c:	13 2f       	mov	r17, r19
    121e:	24 2f       	mov	r18, r20
    1220:	35 2f       	mov	r19, r21
    1222:	46 2f       	mov	r20, r22
    1224:	57 2f       	mov	r21, r23
    1226:	68 2f       	mov	r22, r24
    1228:	79 2f       	mov	r23, r25
    122a:	ce 01       	movw	r24, r28
    122c:	09 96       	adiw	r24, 0x09	; 9
    122e:	0e 94 25 01 	call	0x24a	; 0x24a <_ZN7Complex3addES_>
    1232:	29 87       	std	Y+9, r18	; 0x09
    1234:	3a 87       	std	Y+10, r19	; 0x0a
    1236:	4b 87       	std	Y+11, r20	; 0x0b
    1238:	5c 87       	std	Y+12, r21	; 0x0c
    123a:	6d 87       	std	Y+13, r22	; 0x0d
    123c:	7e 87       	std	Y+14, r23	; 0x0e
    123e:	8f 87       	std	Y+15, r24	; 0x0f
    1240:	98 8b       	std	Y+16, r25	; 0x10
    1242:	88 e0       	ldi	r24, 0x08	; 8
    1244:	e8 0e       	add	r14, r24
    1246:	f1 1c       	adc	r15, r1
    1248:	e0 e4       	ldi	r30, 0x40	; 64
    124a:	ce 0e       	add	r12, r30
    124c:	d1 1c       	adc	r13, r1
    124e:	f0 e4       	ldi	r31, 0x40	; 64
    1250:	ef 16       	cp	r14, r31
    1252:	f1 04       	cpc	r15, r1
    1254:	51 f6       	brne	.-108    	; 0x11ea <_ZN5Gates11multiply8x8EP7ComplexPA8_S0_+0x6c>
		result[i].re=tmp.re;
    1256:	89 85       	ldd	r24, Y+9	; 0x09
    1258:	9a 85       	ldd	r25, Y+10	; 0x0a
    125a:	ab 85       	ldd	r26, Y+11	; 0x0b
    125c:	bc 85       	ldd	r27, Y+12	; 0x0c
    125e:	f2 01       	movw	r30, r4
    1260:	80 83       	st	Z, r24
    1262:	91 83       	std	Z+1, r25	; 0x01
    1264:	a2 83       	std	Z+2, r26	; 0x02
    1266:	b3 83       	std	Z+3, r27	; 0x03
		result[i].im=tmp.im;
    1268:	8d 85       	ldd	r24, Y+13	; 0x0d
    126a:	9e 85       	ldd	r25, Y+14	; 0x0e
    126c:	af 85       	ldd	r26, Y+15	; 0x0f
    126e:	b8 89       	ldd	r27, Y+16	; 0x10
    1270:	84 83       	std	Z+4, r24	; 0x04
    1272:	95 83       	std	Z+5, r25	; 0x05
    1274:	a6 83       	std	Z+6, r26	; 0x06
    1276:	b7 83       	std	Z+7, r27	; 0x07
	return result;
}
Complex * Gates::multiply8x8(Complex *q,Complex matrix[8][8]){
	int qb_size=8;
	Complex * result=(Complex*)malloc(sizeof(Complex)*qb_size);
	for(int i=0;i<qb_size;i++){
    1278:	ff ef       	ldi	r31, 0xFF	; 255
    127a:	6f 1a       	sub	r6, r31
    127c:	7f 0a       	sbc	r7, r31
    127e:	88 e0       	ldi	r24, 0x08	; 8
    1280:	48 0e       	add	r4, r24
    1282:	51 1c       	adc	r5, r1
    1284:	e8 e0       	ldi	r30, 0x08	; 8
    1286:	6e 16       	cp	r6, r30
    1288:	71 04       	cpc	r7, r1
    128a:	09 f0       	breq	.+2      	; 0x128e <_ZN5Gates11multiply8x8EP7ComplexPA8_S0_+0x110>
    128c:	9f cf       	rjmp	.-194    	; 0x11cc <_ZN5Gates11multiply8x8EP7ComplexPA8_S0_+0x4e>
		for(int j=0;j<qb_size;j++) tmp=tmp.add(q[j].mul(matrix[j][i]));
		result[i].re=tmp.re;
		result[i].im=tmp.im;
	}
	return result;
}
    128e:	89 89       	ldd	r24, Y+17	; 0x11
    1290:	9a 89       	ldd	r25, Y+18	; 0x12
    1292:	62 96       	adiw	r28, 0x12	; 18
    1294:	0f b6       	in	r0, 0x3f	; 63
    1296:	f8 94       	cli
    1298:	de bf       	out	0x3e, r29	; 62
    129a:	0f be       	out	0x3f, r0	; 63
    129c:	cd bf       	out	0x3d, r28	; 61
    129e:	df 91       	pop	r29
    12a0:	cf 91       	pop	r28
    12a2:	1f 91       	pop	r17
    12a4:	0f 91       	pop	r16
    12a6:	ff 90       	pop	r15
    12a8:	ef 90       	pop	r14
    12aa:	df 90       	pop	r13
    12ac:	cf 90       	pop	r12
    12ae:	bf 90       	pop	r11
    12b0:	af 90       	pop	r10
    12b2:	9f 90       	pop	r9
    12b4:	8f 90       	pop	r8
    12b6:	7f 90       	pop	r7
    12b8:	6f 90       	pop	r6
    12ba:	5f 90       	pop	r5
    12bc:	4f 90       	pop	r4
    12be:	3f 90       	pop	r3
    12c0:	2f 90       	pop	r2
    12c2:	08 95       	ret

000012c4 <_ZN5Gates1XEii>:

int * Gates::X(int theta,int phi){
    12c4:	af 92       	push	r10
    12c6:	bf 92       	push	r11
    12c8:	cf 92       	push	r12
    12ca:	df 92       	push	r13
    12cc:	ef 92       	push	r14
    12ce:	ff 92       	push	r15
    12d0:	0f 93       	push	r16
    12d2:	1f 93       	push	r17
    12d4:	cf 93       	push	r28
    12d6:	df 93       	push	r29
    12d8:	cd b7       	in	r28, 0x3d	; 61
    12da:	de b7       	in	r29, 0x3e	; 62
    12dc:	a4 97       	sbiw	r28, 0x24	; 36
    12de:	0f b6       	in	r0, 0x3f	; 63
    12e0:	f8 94       	cli
    12e2:	de bf       	out	0x3e, r29	; 62
    12e4:	0f be       	out	0x3f, r0	; 63
    12e6:	cd bf       	out	0x3d, r28	; 61
    12e8:	7c 01       	movw	r14, r24
    12ea:	5b 01       	movw	r10, r22
    12ec:	6a 01       	movw	r12, r20
	Complex x_matrix[QB1_MATRIX_SIZE][QB1_MATRIX_SIZE]{{Complex(0,0),Complex(1,0)},
													   {Complex(1,0),Complex(0,0)}};
    12ee:	00 e0       	ldi	r16, 0x00	; 0
    12f0:	10 e0       	ldi	r17, 0x00	; 0
    12f2:	98 01       	movw	r18, r16
    12f4:	b9 01       	movw	r22, r18
    12f6:	a8 01       	movw	r20, r16
    12f8:	ce 01       	movw	r24, r28
    12fa:	01 96       	adiw	r24, 0x01	; 1
    12fc:	0e 94 0d 01 	call	0x21a	; 0x21a <_ZN7ComplexC1Eff>
    1300:	00 e0       	ldi	r16, 0x00	; 0
    1302:	10 e0       	ldi	r17, 0x00	; 0
    1304:	98 01       	movw	r18, r16
    1306:	40 e0       	ldi	r20, 0x00	; 0
    1308:	50 e0       	ldi	r21, 0x00	; 0
    130a:	60 e8       	ldi	r22, 0x80	; 128
    130c:	7f e3       	ldi	r23, 0x3F	; 63
    130e:	ce 01       	movw	r24, r28
    1310:	09 96       	adiw	r24, 0x09	; 9
    1312:	0e 94 0d 01 	call	0x21a	; 0x21a <_ZN7ComplexC1Eff>
    1316:	00 e0       	ldi	r16, 0x00	; 0
    1318:	10 e0       	ldi	r17, 0x00	; 0
    131a:	98 01       	movw	r18, r16
    131c:	40 e0       	ldi	r20, 0x00	; 0
    131e:	50 e0       	ldi	r21, 0x00	; 0
    1320:	60 e8       	ldi	r22, 0x80	; 128
    1322:	7f e3       	ldi	r23, 0x3F	; 63
    1324:	ce 01       	movw	r24, r28
    1326:	41 96       	adiw	r24, 0x11	; 17
    1328:	0e 94 0d 01 	call	0x21a	; 0x21a <_ZN7ComplexC1Eff>
    132c:	00 e0       	ldi	r16, 0x00	; 0
    132e:	10 e0       	ldi	r17, 0x00	; 0
    1330:	98 01       	movw	r18, r16
    1332:	b9 01       	movw	r22, r18
    1334:	a8 01       	movw	r20, r16
    1336:	ce 01       	movw	r24, r28
    1338:	49 96       	adiw	r24, 0x19	; 25
    133a:	0e 94 0d 01 	call	0x21a	; 0x21a <_ZN7ComplexC1Eff>
	int theta_list[QB_SIZE1]={theta}; int phi_list[1]={phi};
    133e:	bc a2       	std	Y+36, r11	; 0x24
    1340:	ab a2       	std	Y+35, r10	; 0x23
    1342:	da a2       	std	Y+34, r13	; 0x22
    1344:	c9 a2       	std	Y+33, r12	; 0x21
	return vec2ampl(multiply2x2(ampl2vec(QB_SIZE1,theta_list,phi_list),x_matrix),QB_SIZE1);
    1346:	9e 01       	movw	r18, r28
    1348:	2f 5d       	subi	r18, 0xDF	; 223
    134a:	3f 4f       	sbci	r19, 0xFF	; 255
    134c:	ae 01       	movw	r20, r28
    134e:	4d 5d       	subi	r20, 0xDD	; 221
    1350:	5f 4f       	sbci	r21, 0xFF	; 255
    1352:	61 e0       	ldi	r22, 0x01	; 1
    1354:	70 e0       	ldi	r23, 0x00	; 0
    1356:	c7 01       	movw	r24, r14
    1358:	0e 94 be 05 	call	0xb7c	; 0xb7c <_ZN5Gates8ampl2vecEiPiS0_>
    135c:	ae 01       	movw	r20, r28
    135e:	4f 5f       	subi	r20, 0xFF	; 255
    1360:	5f 4f       	sbci	r21, 0xFF	; 255
    1362:	bc 01       	movw	r22, r24
    1364:	c7 01       	movw	r24, r14
    1366:	0e 94 5a 07 	call	0xeb4	; 0xeb4 <_ZN5Gates11multiply2x2EP7ComplexPA2_S0_>
    136a:	41 e0       	ldi	r20, 0x01	; 1
    136c:	50 e0       	ldi	r21, 0x00	; 0
    136e:	bc 01       	movw	r22, r24
    1370:	c7 01       	movw	r24, r14
    1372:	0e 94 c9 06 	call	0xd92	; 0xd92 <_ZN5Gates8vec2amplEP7Complexi>
}
    1376:	a4 96       	adiw	r28, 0x24	; 36
    1378:	0f b6       	in	r0, 0x3f	; 63
    137a:	f8 94       	cli
    137c:	de bf       	out	0x3e, r29	; 62
    137e:	0f be       	out	0x3f, r0	; 63
    1380:	cd bf       	out	0x3d, r28	; 61
    1382:	df 91       	pop	r29
    1384:	cf 91       	pop	r28
    1386:	1f 91       	pop	r17
    1388:	0f 91       	pop	r16
    138a:	ff 90       	pop	r15
    138c:	ef 90       	pop	r14
    138e:	df 90       	pop	r13
    1390:	cf 90       	pop	r12
    1392:	bf 90       	pop	r11
    1394:	af 90       	pop	r10
    1396:	08 95       	ret

00001398 <_ZN5Gates1YEii>:
int * Gates::Y(int theta,int phi){
    1398:	af 92       	push	r10
    139a:	bf 92       	push	r11
    139c:	cf 92       	push	r12
    139e:	df 92       	push	r13
    13a0:	ef 92       	push	r14
    13a2:	ff 92       	push	r15
    13a4:	0f 93       	push	r16
    13a6:	1f 93       	push	r17
    13a8:	cf 93       	push	r28
    13aa:	df 93       	push	r29
    13ac:	cd b7       	in	r28, 0x3d	; 61
    13ae:	de b7       	in	r29, 0x3e	; 62
    13b0:	a4 97       	sbiw	r28, 0x24	; 36
    13b2:	0f b6       	in	r0, 0x3f	; 63
    13b4:	f8 94       	cli
    13b6:	de bf       	out	0x3e, r29	; 62
    13b8:	0f be       	out	0x3f, r0	; 63
    13ba:	cd bf       	out	0x3d, r28	; 61
    13bc:	7c 01       	movw	r14, r24
    13be:	5b 01       	movw	r10, r22
    13c0:	6a 01       	movw	r12, r20
	Complex y_matrix[QB1_MATRIX_SIZE][QB1_MATRIX_SIZE]{{Complex(0,0),Complex(0,-1)},
													   {Complex(0,1),Complex(0,0)}};
    13c2:	00 e0       	ldi	r16, 0x00	; 0
    13c4:	10 e0       	ldi	r17, 0x00	; 0
    13c6:	98 01       	movw	r18, r16
    13c8:	b9 01       	movw	r22, r18
    13ca:	a8 01       	movw	r20, r16
    13cc:	ce 01       	movw	r24, r28
    13ce:	01 96       	adiw	r24, 0x01	; 1
    13d0:	0e 94 0d 01 	call	0x21a	; 0x21a <_ZN7ComplexC1Eff>
    13d4:	00 e0       	ldi	r16, 0x00	; 0
    13d6:	10 e0       	ldi	r17, 0x00	; 0
    13d8:	20 e8       	ldi	r18, 0x80	; 128
    13da:	3f eb       	ldi	r19, 0xBF	; 191
    13dc:	40 e0       	ldi	r20, 0x00	; 0
    13de:	50 e0       	ldi	r21, 0x00	; 0
    13e0:	ba 01       	movw	r22, r20
    13e2:	ce 01       	movw	r24, r28
    13e4:	09 96       	adiw	r24, 0x09	; 9
    13e6:	0e 94 0d 01 	call	0x21a	; 0x21a <_ZN7ComplexC1Eff>
    13ea:	00 e0       	ldi	r16, 0x00	; 0
    13ec:	10 e0       	ldi	r17, 0x00	; 0
    13ee:	20 e8       	ldi	r18, 0x80	; 128
    13f0:	3f e3       	ldi	r19, 0x3F	; 63
    13f2:	40 e0       	ldi	r20, 0x00	; 0
    13f4:	50 e0       	ldi	r21, 0x00	; 0
    13f6:	ba 01       	movw	r22, r20
    13f8:	ce 01       	movw	r24, r28
    13fa:	41 96       	adiw	r24, 0x11	; 17
    13fc:	0e 94 0d 01 	call	0x21a	; 0x21a <_ZN7ComplexC1Eff>
    1400:	00 e0       	ldi	r16, 0x00	; 0
    1402:	10 e0       	ldi	r17, 0x00	; 0
    1404:	98 01       	movw	r18, r16
    1406:	b9 01       	movw	r22, r18
    1408:	a8 01       	movw	r20, r16
    140a:	ce 01       	movw	r24, r28
    140c:	49 96       	adiw	r24, 0x19	; 25
    140e:	0e 94 0d 01 	call	0x21a	; 0x21a <_ZN7ComplexC1Eff>
	int theta_list[QB_SIZE1]={theta}; int phi_list[QB_SIZE1]={phi};
    1412:	bc a2       	std	Y+36, r11	; 0x24
    1414:	ab a2       	std	Y+35, r10	; 0x23
    1416:	da a2       	std	Y+34, r13	; 0x22
    1418:	c9 a2       	std	Y+33, r12	; 0x21
	return vec2ampl(multiply2x2(ampl2vec(QB_SIZE1,theta_list,phi_list),y_matrix),QB_SIZE1);
    141a:	9e 01       	movw	r18, r28
    141c:	2f 5d       	subi	r18, 0xDF	; 223
    141e:	3f 4f       	sbci	r19, 0xFF	; 255
    1420:	ae 01       	movw	r20, r28
    1422:	4d 5d       	subi	r20, 0xDD	; 221
    1424:	5f 4f       	sbci	r21, 0xFF	; 255
    1426:	61 e0       	ldi	r22, 0x01	; 1
    1428:	70 e0       	ldi	r23, 0x00	; 0
    142a:	c7 01       	movw	r24, r14
    142c:	0e 94 be 05 	call	0xb7c	; 0xb7c <_ZN5Gates8ampl2vecEiPiS0_>
    1430:	ae 01       	movw	r20, r28
    1432:	4f 5f       	subi	r20, 0xFF	; 255
    1434:	5f 4f       	sbci	r21, 0xFF	; 255
    1436:	bc 01       	movw	r22, r24
    1438:	c7 01       	movw	r24, r14
    143a:	0e 94 5a 07 	call	0xeb4	; 0xeb4 <_ZN5Gates11multiply2x2EP7ComplexPA2_S0_>
    143e:	41 e0       	ldi	r20, 0x01	; 1
    1440:	50 e0       	ldi	r21, 0x00	; 0
    1442:	bc 01       	movw	r22, r24
    1444:	c7 01       	movw	r24, r14
    1446:	0e 94 c9 06 	call	0xd92	; 0xd92 <_ZN5Gates8vec2amplEP7Complexi>
}
    144a:	a4 96       	adiw	r28, 0x24	; 36
    144c:	0f b6       	in	r0, 0x3f	; 63
    144e:	f8 94       	cli
    1450:	de bf       	out	0x3e, r29	; 62
    1452:	0f be       	out	0x3f, r0	; 63
    1454:	cd bf       	out	0x3d, r28	; 61
    1456:	df 91       	pop	r29
    1458:	cf 91       	pop	r28
    145a:	1f 91       	pop	r17
    145c:	0f 91       	pop	r16
    145e:	ff 90       	pop	r15
    1460:	ef 90       	pop	r14
    1462:	df 90       	pop	r13
    1464:	cf 90       	pop	r12
    1466:	bf 90       	pop	r11
    1468:	af 90       	pop	r10
    146a:	08 95       	ret

0000146c <_ZN5Gates1ZEii>:
int * Gates::Z(int theta,int phi){
    146c:	af 92       	push	r10
    146e:	bf 92       	push	r11
    1470:	cf 92       	push	r12
    1472:	df 92       	push	r13
    1474:	ef 92       	push	r14
    1476:	ff 92       	push	r15
    1478:	0f 93       	push	r16
    147a:	1f 93       	push	r17
    147c:	cf 93       	push	r28
    147e:	df 93       	push	r29
    1480:	cd b7       	in	r28, 0x3d	; 61
    1482:	de b7       	in	r29, 0x3e	; 62
    1484:	a4 97       	sbiw	r28, 0x24	; 36
    1486:	0f b6       	in	r0, 0x3f	; 63
    1488:	f8 94       	cli
    148a:	de bf       	out	0x3e, r29	; 62
    148c:	0f be       	out	0x3f, r0	; 63
    148e:	cd bf       	out	0x3d, r28	; 61
    1490:	7c 01       	movw	r14, r24
    1492:	5b 01       	movw	r10, r22
    1494:	6a 01       	movw	r12, r20
	Complex z_matrix[QB1_MATRIX_SIZE][QB1_MATRIX_SIZE]{{Complex(1,0),Complex(0,0)},
													   {Complex(0,0),Complex(-1,0)}};
    1496:	00 e0       	ldi	r16, 0x00	; 0
    1498:	10 e0       	ldi	r17, 0x00	; 0
    149a:	98 01       	movw	r18, r16
    149c:	40 e0       	ldi	r20, 0x00	; 0
    149e:	50 e0       	ldi	r21, 0x00	; 0
    14a0:	60 e8       	ldi	r22, 0x80	; 128
    14a2:	7f e3       	ldi	r23, 0x3F	; 63
    14a4:	ce 01       	movw	r24, r28
    14a6:	01 96       	adiw	r24, 0x01	; 1
    14a8:	0e 94 0d 01 	call	0x21a	; 0x21a <_ZN7ComplexC1Eff>
    14ac:	00 e0       	ldi	r16, 0x00	; 0
    14ae:	10 e0       	ldi	r17, 0x00	; 0
    14b0:	98 01       	movw	r18, r16
    14b2:	b9 01       	movw	r22, r18
    14b4:	a8 01       	movw	r20, r16
    14b6:	ce 01       	movw	r24, r28
    14b8:	09 96       	adiw	r24, 0x09	; 9
    14ba:	0e 94 0d 01 	call	0x21a	; 0x21a <_ZN7ComplexC1Eff>
    14be:	00 e0       	ldi	r16, 0x00	; 0
    14c0:	10 e0       	ldi	r17, 0x00	; 0
    14c2:	98 01       	movw	r18, r16
    14c4:	b9 01       	movw	r22, r18
    14c6:	a8 01       	movw	r20, r16
    14c8:	ce 01       	movw	r24, r28
    14ca:	41 96       	adiw	r24, 0x11	; 17
    14cc:	0e 94 0d 01 	call	0x21a	; 0x21a <_ZN7ComplexC1Eff>
    14d0:	00 e0       	ldi	r16, 0x00	; 0
    14d2:	10 e0       	ldi	r17, 0x00	; 0
    14d4:	98 01       	movw	r18, r16
    14d6:	40 e0       	ldi	r20, 0x00	; 0
    14d8:	50 e0       	ldi	r21, 0x00	; 0
    14da:	60 e8       	ldi	r22, 0x80	; 128
    14dc:	7f eb       	ldi	r23, 0xBF	; 191
    14de:	ce 01       	movw	r24, r28
    14e0:	49 96       	adiw	r24, 0x19	; 25
    14e2:	0e 94 0d 01 	call	0x21a	; 0x21a <_ZN7ComplexC1Eff>
	int theta_list[QB_SIZE1]={theta}; int phi_list[QB_SIZE1]={phi};
    14e6:	bc a2       	std	Y+36, r11	; 0x24
    14e8:	ab a2       	std	Y+35, r10	; 0x23
    14ea:	da a2       	std	Y+34, r13	; 0x22
    14ec:	c9 a2       	std	Y+33, r12	; 0x21
	return vec2ampl(multiply2x2(ampl2vec(QB_SIZE1,theta_list,phi_list),z_matrix),QB_SIZE1);
    14ee:	9e 01       	movw	r18, r28
    14f0:	2f 5d       	subi	r18, 0xDF	; 223
    14f2:	3f 4f       	sbci	r19, 0xFF	; 255
    14f4:	ae 01       	movw	r20, r28
    14f6:	4d 5d       	subi	r20, 0xDD	; 221
    14f8:	5f 4f       	sbci	r21, 0xFF	; 255
    14fa:	61 e0       	ldi	r22, 0x01	; 1
    14fc:	70 e0       	ldi	r23, 0x00	; 0
    14fe:	c7 01       	movw	r24, r14
    1500:	0e 94 be 05 	call	0xb7c	; 0xb7c <_ZN5Gates8ampl2vecEiPiS0_>
    1504:	ae 01       	movw	r20, r28
    1506:	4f 5f       	subi	r20, 0xFF	; 255
    1508:	5f 4f       	sbci	r21, 0xFF	; 255
    150a:	bc 01       	movw	r22, r24
    150c:	c7 01       	movw	r24, r14
    150e:	0e 94 5a 07 	call	0xeb4	; 0xeb4 <_ZN5Gates11multiply2x2EP7ComplexPA2_S0_>
    1512:	41 e0       	ldi	r20, 0x01	; 1
    1514:	50 e0       	ldi	r21, 0x00	; 0
    1516:	bc 01       	movw	r22, r24
    1518:	c7 01       	movw	r24, r14
    151a:	0e 94 c9 06 	call	0xd92	; 0xd92 <_ZN5Gates8vec2amplEP7Complexi>
}
    151e:	a4 96       	adiw	r28, 0x24	; 36
    1520:	0f b6       	in	r0, 0x3f	; 63
    1522:	f8 94       	cli
    1524:	de bf       	out	0x3e, r29	; 62
    1526:	0f be       	out	0x3f, r0	; 63
    1528:	cd bf       	out	0x3d, r28	; 61
    152a:	df 91       	pop	r29
    152c:	cf 91       	pop	r28
    152e:	1f 91       	pop	r17
    1530:	0f 91       	pop	r16
    1532:	ff 90       	pop	r15
    1534:	ef 90       	pop	r14
    1536:	df 90       	pop	r13
    1538:	cf 90       	pop	r12
    153a:	bf 90       	pop	r11
    153c:	af 90       	pop	r10
    153e:	08 95       	ret

00001540 <_ZN5Gates1HEii>:
int * Gates::H(int theta,int phi){
    1540:	af 92       	push	r10
    1542:	bf 92       	push	r11
    1544:	cf 92       	push	r12
    1546:	df 92       	push	r13
    1548:	ef 92       	push	r14
    154a:	ff 92       	push	r15
    154c:	0f 93       	push	r16
    154e:	1f 93       	push	r17
    1550:	cf 93       	push	r28
    1552:	df 93       	push	r29
    1554:	cd b7       	in	r28, 0x3d	; 61
    1556:	de b7       	in	r29, 0x3e	; 62
    1558:	a4 97       	sbiw	r28, 0x24	; 36
    155a:	0f b6       	in	r0, 0x3f	; 63
    155c:	f8 94       	cli
    155e:	de bf       	out	0x3e, r29	; 62
    1560:	0f be       	out	0x3f, r0	; 63
    1562:	cd bf       	out	0x3d, r28	; 61
    1564:	7c 01       	movw	r14, r24
    1566:	5b 01       	movw	r10, r22
    1568:	6a 01       	movw	r12, r20
	Complex h_matrix[QB1_MATRIX_SIZE][QB1_MATRIX_SIZE]{{Complex(1/sqrt(2),0),Complex(1/sqrt(2),0)},
													   {Complex(1/sqrt(2),0),Complex(-1/sqrt(2),0)}};
    156a:	00 e0       	ldi	r16, 0x00	; 0
    156c:	10 e0       	ldi	r17, 0x00	; 0
    156e:	98 01       	movw	r18, r16
    1570:	43 ef       	ldi	r20, 0xF3	; 243
    1572:	54 e0       	ldi	r21, 0x04	; 4
    1574:	65 e3       	ldi	r22, 0x35	; 53
    1576:	7f e3       	ldi	r23, 0x3F	; 63
    1578:	ce 01       	movw	r24, r28
    157a:	01 96       	adiw	r24, 0x01	; 1
    157c:	0e 94 0d 01 	call	0x21a	; 0x21a <_ZN7ComplexC1Eff>
    1580:	00 e0       	ldi	r16, 0x00	; 0
    1582:	10 e0       	ldi	r17, 0x00	; 0
    1584:	98 01       	movw	r18, r16
    1586:	43 ef       	ldi	r20, 0xF3	; 243
    1588:	54 e0       	ldi	r21, 0x04	; 4
    158a:	65 e3       	ldi	r22, 0x35	; 53
    158c:	7f e3       	ldi	r23, 0x3F	; 63
    158e:	ce 01       	movw	r24, r28
    1590:	09 96       	adiw	r24, 0x09	; 9
    1592:	0e 94 0d 01 	call	0x21a	; 0x21a <_ZN7ComplexC1Eff>
    1596:	00 e0       	ldi	r16, 0x00	; 0
    1598:	10 e0       	ldi	r17, 0x00	; 0
    159a:	98 01       	movw	r18, r16
    159c:	43 ef       	ldi	r20, 0xF3	; 243
    159e:	54 e0       	ldi	r21, 0x04	; 4
    15a0:	65 e3       	ldi	r22, 0x35	; 53
    15a2:	7f e3       	ldi	r23, 0x3F	; 63
    15a4:	ce 01       	movw	r24, r28
    15a6:	41 96       	adiw	r24, 0x11	; 17
    15a8:	0e 94 0d 01 	call	0x21a	; 0x21a <_ZN7ComplexC1Eff>
    15ac:	00 e0       	ldi	r16, 0x00	; 0
    15ae:	10 e0       	ldi	r17, 0x00	; 0
    15b0:	98 01       	movw	r18, r16
    15b2:	43 ef       	ldi	r20, 0xF3	; 243
    15b4:	54 e0       	ldi	r21, 0x04	; 4
    15b6:	65 e3       	ldi	r22, 0x35	; 53
    15b8:	7f eb       	ldi	r23, 0xBF	; 191
    15ba:	ce 01       	movw	r24, r28
    15bc:	49 96       	adiw	r24, 0x19	; 25
    15be:	0e 94 0d 01 	call	0x21a	; 0x21a <_ZN7ComplexC1Eff>
	int theta_list[QB_SIZE1]={theta}; int phi_list[QB_SIZE1]={phi};
    15c2:	bc a2       	std	Y+36, r11	; 0x24
    15c4:	ab a2       	std	Y+35, r10	; 0x23
    15c6:	da a2       	std	Y+34, r13	; 0x22
    15c8:	c9 a2       	std	Y+33, r12	; 0x21
	return vec2ampl(multiply2x2(ampl2vec(QB_SIZE1,theta_list,phi_list),h_matrix),QB_SIZE1);
    15ca:	9e 01       	movw	r18, r28
    15cc:	2f 5d       	subi	r18, 0xDF	; 223
    15ce:	3f 4f       	sbci	r19, 0xFF	; 255
    15d0:	ae 01       	movw	r20, r28
    15d2:	4d 5d       	subi	r20, 0xDD	; 221
    15d4:	5f 4f       	sbci	r21, 0xFF	; 255
    15d6:	61 e0       	ldi	r22, 0x01	; 1
    15d8:	70 e0       	ldi	r23, 0x00	; 0
    15da:	c7 01       	movw	r24, r14
    15dc:	0e 94 be 05 	call	0xb7c	; 0xb7c <_ZN5Gates8ampl2vecEiPiS0_>
    15e0:	ae 01       	movw	r20, r28
    15e2:	4f 5f       	subi	r20, 0xFF	; 255
    15e4:	5f 4f       	sbci	r21, 0xFF	; 255
    15e6:	bc 01       	movw	r22, r24
    15e8:	c7 01       	movw	r24, r14
    15ea:	0e 94 5a 07 	call	0xeb4	; 0xeb4 <_ZN5Gates11multiply2x2EP7ComplexPA2_S0_>
    15ee:	41 e0       	ldi	r20, 0x01	; 1
    15f0:	50 e0       	ldi	r21, 0x00	; 0
    15f2:	bc 01       	movw	r22, r24
    15f4:	c7 01       	movw	r24, r14
    15f6:	0e 94 c9 06 	call	0xd92	; 0xd92 <_ZN5Gates8vec2amplEP7Complexi>
}
    15fa:	a4 96       	adiw	r28, 0x24	; 36
    15fc:	0f b6       	in	r0, 0x3f	; 63
    15fe:	f8 94       	cli
    1600:	de bf       	out	0x3e, r29	; 62
    1602:	0f be       	out	0x3f, r0	; 63
    1604:	cd bf       	out	0x3d, r28	; 61
    1606:	df 91       	pop	r29
    1608:	cf 91       	pop	r28
    160a:	1f 91       	pop	r17
    160c:	0f 91       	pop	r16
    160e:	ff 90       	pop	r15
    1610:	ef 90       	pop	r14
    1612:	df 90       	pop	r13
    1614:	cf 90       	pop	r12
    1616:	bf 90       	pop	r11
    1618:	af 90       	pop	r10
    161a:	08 95       	ret

0000161c <_ZN5Gates1SEii>:
int * Gates::S(int theta,int phi){
    161c:	af 92       	push	r10
    161e:	bf 92       	push	r11
    1620:	cf 92       	push	r12
    1622:	df 92       	push	r13
    1624:	ef 92       	push	r14
    1626:	ff 92       	push	r15
    1628:	0f 93       	push	r16
    162a:	1f 93       	push	r17
    162c:	cf 93       	push	r28
    162e:	df 93       	push	r29
    1630:	cd b7       	in	r28, 0x3d	; 61
    1632:	de b7       	in	r29, 0x3e	; 62
    1634:	a4 97       	sbiw	r28, 0x24	; 36
    1636:	0f b6       	in	r0, 0x3f	; 63
    1638:	f8 94       	cli
    163a:	de bf       	out	0x3e, r29	; 62
    163c:	0f be       	out	0x3f, r0	; 63
    163e:	cd bf       	out	0x3d, r28	; 61
    1640:	7c 01       	movw	r14, r24
    1642:	5b 01       	movw	r10, r22
    1644:	6a 01       	movw	r12, r20
	Complex s_matrix[QB1_MATRIX_SIZE][QB1_MATRIX_SIZE]{{Complex(1,0),Complex(0,0)},
													   {Complex(0,0),Complex(0,1)}};
    1646:	00 e0       	ldi	r16, 0x00	; 0
    1648:	10 e0       	ldi	r17, 0x00	; 0
    164a:	98 01       	movw	r18, r16
    164c:	40 e0       	ldi	r20, 0x00	; 0
    164e:	50 e0       	ldi	r21, 0x00	; 0
    1650:	60 e8       	ldi	r22, 0x80	; 128
    1652:	7f e3       	ldi	r23, 0x3F	; 63
    1654:	ce 01       	movw	r24, r28
    1656:	01 96       	adiw	r24, 0x01	; 1
    1658:	0e 94 0d 01 	call	0x21a	; 0x21a <_ZN7ComplexC1Eff>
    165c:	00 e0       	ldi	r16, 0x00	; 0
    165e:	10 e0       	ldi	r17, 0x00	; 0
    1660:	98 01       	movw	r18, r16
    1662:	b9 01       	movw	r22, r18
    1664:	a8 01       	movw	r20, r16
    1666:	ce 01       	movw	r24, r28
    1668:	09 96       	adiw	r24, 0x09	; 9
    166a:	0e 94 0d 01 	call	0x21a	; 0x21a <_ZN7ComplexC1Eff>
    166e:	00 e0       	ldi	r16, 0x00	; 0
    1670:	10 e0       	ldi	r17, 0x00	; 0
    1672:	98 01       	movw	r18, r16
    1674:	b9 01       	movw	r22, r18
    1676:	a8 01       	movw	r20, r16
    1678:	ce 01       	movw	r24, r28
    167a:	41 96       	adiw	r24, 0x11	; 17
    167c:	0e 94 0d 01 	call	0x21a	; 0x21a <_ZN7ComplexC1Eff>
    1680:	00 e0       	ldi	r16, 0x00	; 0
    1682:	10 e0       	ldi	r17, 0x00	; 0
    1684:	20 e8       	ldi	r18, 0x80	; 128
    1686:	3f e3       	ldi	r19, 0x3F	; 63
    1688:	40 e0       	ldi	r20, 0x00	; 0
    168a:	50 e0       	ldi	r21, 0x00	; 0
    168c:	ba 01       	movw	r22, r20
    168e:	ce 01       	movw	r24, r28
    1690:	49 96       	adiw	r24, 0x19	; 25
    1692:	0e 94 0d 01 	call	0x21a	; 0x21a <_ZN7ComplexC1Eff>
	int theta_list[QB_SIZE1]={theta}; int phi_list[QB_SIZE1]={phi};
    1696:	bc a2       	std	Y+36, r11	; 0x24
    1698:	ab a2       	std	Y+35, r10	; 0x23
    169a:	da a2       	std	Y+34, r13	; 0x22
    169c:	c9 a2       	std	Y+33, r12	; 0x21
	return vec2ampl(multiply2x2(ampl2vec(QB_SIZE1,theta_list,phi_list),s_matrix),QB_SIZE1);
    169e:	9e 01       	movw	r18, r28
    16a0:	2f 5d       	subi	r18, 0xDF	; 223
    16a2:	3f 4f       	sbci	r19, 0xFF	; 255
    16a4:	ae 01       	movw	r20, r28
    16a6:	4d 5d       	subi	r20, 0xDD	; 221
    16a8:	5f 4f       	sbci	r21, 0xFF	; 255
    16aa:	61 e0       	ldi	r22, 0x01	; 1
    16ac:	70 e0       	ldi	r23, 0x00	; 0
    16ae:	c7 01       	movw	r24, r14
    16b0:	0e 94 be 05 	call	0xb7c	; 0xb7c <_ZN5Gates8ampl2vecEiPiS0_>
    16b4:	ae 01       	movw	r20, r28
    16b6:	4f 5f       	subi	r20, 0xFF	; 255
    16b8:	5f 4f       	sbci	r21, 0xFF	; 255
    16ba:	bc 01       	movw	r22, r24
    16bc:	c7 01       	movw	r24, r14
    16be:	0e 94 5a 07 	call	0xeb4	; 0xeb4 <_ZN5Gates11multiply2x2EP7ComplexPA2_S0_>
    16c2:	41 e0       	ldi	r20, 0x01	; 1
    16c4:	50 e0       	ldi	r21, 0x00	; 0
    16c6:	bc 01       	movw	r22, r24
    16c8:	c7 01       	movw	r24, r14
    16ca:	0e 94 c9 06 	call	0xd92	; 0xd92 <_ZN5Gates8vec2amplEP7Complexi>
}
    16ce:	a4 96       	adiw	r28, 0x24	; 36
    16d0:	0f b6       	in	r0, 0x3f	; 63
    16d2:	f8 94       	cli
    16d4:	de bf       	out	0x3e, r29	; 62
    16d6:	0f be       	out	0x3f, r0	; 63
    16d8:	cd bf       	out	0x3d, r28	; 61
    16da:	df 91       	pop	r29
    16dc:	cf 91       	pop	r28
    16de:	1f 91       	pop	r17
    16e0:	0f 91       	pop	r16
    16e2:	ff 90       	pop	r15
    16e4:	ef 90       	pop	r14
    16e6:	df 90       	pop	r13
    16e8:	cf 90       	pop	r12
    16ea:	bf 90       	pop	r11
    16ec:	af 90       	pop	r10
    16ee:	08 95       	ret

000016f0 <_ZN5Gates1TEii>:
int * Gates::T(int theta,int phi){
    16f0:	af 92       	push	r10
    16f2:	bf 92       	push	r11
    16f4:	cf 92       	push	r12
    16f6:	df 92       	push	r13
    16f8:	ef 92       	push	r14
    16fa:	ff 92       	push	r15
    16fc:	0f 93       	push	r16
    16fe:	1f 93       	push	r17
    1700:	cf 93       	push	r28
    1702:	df 93       	push	r29
    1704:	cd b7       	in	r28, 0x3d	; 61
    1706:	de b7       	in	r29, 0x3e	; 62
    1708:	a4 97       	sbiw	r28, 0x24	; 36
    170a:	0f b6       	in	r0, 0x3f	; 63
    170c:	f8 94       	cli
    170e:	de bf       	out	0x3e, r29	; 62
    1710:	0f be       	out	0x3f, r0	; 63
    1712:	cd bf       	out	0x3d, r28	; 61
    1714:	7c 01       	movw	r14, r24
    1716:	5b 01       	movw	r10, r22
    1718:	6a 01       	movw	r12, r20
	Complex t_matrix[QB1_MATRIX_SIZE][QB1_MATRIX_SIZE]{{Complex(1,0),Complex(0,0)},
													   {Complex(0,0),Complex(1/sqrt(2),1/sqrt(2))}};
    171a:	00 e0       	ldi	r16, 0x00	; 0
    171c:	10 e0       	ldi	r17, 0x00	; 0
    171e:	98 01       	movw	r18, r16
    1720:	40 e0       	ldi	r20, 0x00	; 0
    1722:	50 e0       	ldi	r21, 0x00	; 0
    1724:	60 e8       	ldi	r22, 0x80	; 128
    1726:	7f e3       	ldi	r23, 0x3F	; 63
    1728:	ce 01       	movw	r24, r28
    172a:	01 96       	adiw	r24, 0x01	; 1
    172c:	0e 94 0d 01 	call	0x21a	; 0x21a <_ZN7ComplexC1Eff>
    1730:	00 e0       	ldi	r16, 0x00	; 0
    1732:	10 e0       	ldi	r17, 0x00	; 0
    1734:	98 01       	movw	r18, r16
    1736:	b9 01       	movw	r22, r18
    1738:	a8 01       	movw	r20, r16
    173a:	ce 01       	movw	r24, r28
    173c:	09 96       	adiw	r24, 0x09	; 9
    173e:	0e 94 0d 01 	call	0x21a	; 0x21a <_ZN7ComplexC1Eff>
    1742:	00 e0       	ldi	r16, 0x00	; 0
    1744:	10 e0       	ldi	r17, 0x00	; 0
    1746:	98 01       	movw	r18, r16
    1748:	b9 01       	movw	r22, r18
    174a:	a8 01       	movw	r20, r16
    174c:	ce 01       	movw	r24, r28
    174e:	41 96       	adiw	r24, 0x11	; 17
    1750:	0e 94 0d 01 	call	0x21a	; 0x21a <_ZN7ComplexC1Eff>
    1754:	03 ef       	ldi	r16, 0xF3	; 243
    1756:	14 e0       	ldi	r17, 0x04	; 4
    1758:	25 e3       	ldi	r18, 0x35	; 53
    175a:	3f e3       	ldi	r19, 0x3F	; 63
    175c:	b9 01       	movw	r22, r18
    175e:	a8 01       	movw	r20, r16
    1760:	ce 01       	movw	r24, r28
    1762:	49 96       	adiw	r24, 0x19	; 25
    1764:	0e 94 0d 01 	call	0x21a	; 0x21a <_ZN7ComplexC1Eff>
	int theta_list[QB_SIZE1]={theta}; int phi_list[QB_SIZE1]={phi};
    1768:	bc a2       	std	Y+36, r11	; 0x24
    176a:	ab a2       	std	Y+35, r10	; 0x23
    176c:	da a2       	std	Y+34, r13	; 0x22
    176e:	c9 a2       	std	Y+33, r12	; 0x21
	return vec2ampl(multiply2x2(ampl2vec(QB_SIZE1,theta_list,phi_list),t_matrix),QB_SIZE1);
    1770:	9e 01       	movw	r18, r28
    1772:	2f 5d       	subi	r18, 0xDF	; 223
    1774:	3f 4f       	sbci	r19, 0xFF	; 255
    1776:	ae 01       	movw	r20, r28
    1778:	4d 5d       	subi	r20, 0xDD	; 221
    177a:	5f 4f       	sbci	r21, 0xFF	; 255
    177c:	61 e0       	ldi	r22, 0x01	; 1
    177e:	70 e0       	ldi	r23, 0x00	; 0
    1780:	c7 01       	movw	r24, r14
    1782:	0e 94 be 05 	call	0xb7c	; 0xb7c <_ZN5Gates8ampl2vecEiPiS0_>
    1786:	ae 01       	movw	r20, r28
    1788:	4f 5f       	subi	r20, 0xFF	; 255
    178a:	5f 4f       	sbci	r21, 0xFF	; 255
    178c:	bc 01       	movw	r22, r24
    178e:	c7 01       	movw	r24, r14
    1790:	0e 94 5a 07 	call	0xeb4	; 0xeb4 <_ZN5Gates11multiply2x2EP7ComplexPA2_S0_>
    1794:	41 e0       	ldi	r20, 0x01	; 1
    1796:	50 e0       	ldi	r21, 0x00	; 0
    1798:	bc 01       	movw	r22, r24
    179a:	c7 01       	movw	r24, r14
    179c:	0e 94 c9 06 	call	0xd92	; 0xd92 <_ZN5Gates8vec2amplEP7Complexi>
}
    17a0:	a4 96       	adiw	r28, 0x24	; 36
    17a2:	0f b6       	in	r0, 0x3f	; 63
    17a4:	f8 94       	cli
    17a6:	de bf       	out	0x3e, r29	; 62
    17a8:	0f be       	out	0x3f, r0	; 63
    17aa:	cd bf       	out	0x3d, r28	; 61
    17ac:	df 91       	pop	r29
    17ae:	cf 91       	pop	r28
    17b0:	1f 91       	pop	r17
    17b2:	0f 91       	pop	r16
    17b4:	ff 90       	pop	r15
    17b6:	ef 90       	pop	r14
    17b8:	df 90       	pop	r13
    17ba:	cf 90       	pop	r12
    17bc:	bf 90       	pop	r11
    17be:	af 90       	pop	r10
    17c0:	08 95       	ret

000017c2 <_ZN5Gates3CNOEiiii>:

int * Gates::CNO(int theta1, int phi1, int theta2,int phi2){
    17c2:	6f 92       	push	r6
    17c4:	7f 92       	push	r7
    17c6:	8f 92       	push	r8
    17c8:	9f 92       	push	r9
    17ca:	af 92       	push	r10
    17cc:	bf 92       	push	r11
    17ce:	cf 92       	push	r12
    17d0:	df 92       	push	r13
    17d2:	ef 92       	push	r14
    17d4:	ff 92       	push	r15
    17d6:	0f 93       	push	r16
    17d8:	1f 93       	push	r17
    17da:	cf 93       	push	r28
    17dc:	df 93       	push	r29
    17de:	cd b7       	in	r28, 0x3d	; 61
    17e0:	de b7       	in	r29, 0x3e	; 62
    17e2:	c8 58       	subi	r28, 0x88	; 136
    17e4:	d1 09       	sbc	r29, r1
    17e6:	0f b6       	in	r0, 0x3f	; 63
    17e8:	f8 94       	cli
    17ea:	de bf       	out	0x3e, r29	; 62
    17ec:	0f be       	out	0x3f, r0	; 63
    17ee:	cd bf       	out	0x3d, r28	; 61
    17f0:	7c 01       	movw	r14, r24
    17f2:	3b 01       	movw	r6, r22
    17f4:	5a 01       	movw	r10, r20
    17f6:	49 01       	movw	r8, r18
    17f8:	68 01       	movw	r12, r16
	Complex cno_matrix[QB2_MATRIX_SIZE][QB2_MATRIX_SIZE]{{Complex(1,0),Complex(0,0),Complex(0,0),Complex(0,0)},
													     {Complex(0,0),Complex(1,0),Complex(0,0),Complex(0,0)},
													     {Complex(0,0),Complex(0,0),Complex(0,0),Complex(1,0)},
													     {Complex(0,0),Complex(0,0),Complex(1,0),Complex(0,0)}};
    17fa:	00 e0       	ldi	r16, 0x00	; 0
    17fc:	10 e0       	ldi	r17, 0x00	; 0
    17fe:	98 01       	movw	r18, r16
    1800:	40 e0       	ldi	r20, 0x00	; 0
    1802:	50 e0       	ldi	r21, 0x00	; 0
    1804:	60 e8       	ldi	r22, 0x80	; 128
    1806:	7f e3       	ldi	r23, 0x3F	; 63
    1808:	ce 01       	movw	r24, r28
    180a:	01 96       	adiw	r24, 0x01	; 1
    180c:	0e 94 0d 01 	call	0x21a	; 0x21a <_ZN7ComplexC1Eff>
    1810:	00 e0       	ldi	r16, 0x00	; 0
    1812:	10 e0       	ldi	r17, 0x00	; 0
    1814:	98 01       	movw	r18, r16
    1816:	b9 01       	movw	r22, r18
    1818:	a8 01       	movw	r20, r16
    181a:	ce 01       	movw	r24, r28
    181c:	09 96       	adiw	r24, 0x09	; 9
    181e:	0e 94 0d 01 	call	0x21a	; 0x21a <_ZN7ComplexC1Eff>
    1822:	00 e0       	ldi	r16, 0x00	; 0
    1824:	10 e0       	ldi	r17, 0x00	; 0
    1826:	98 01       	movw	r18, r16
    1828:	b9 01       	movw	r22, r18
    182a:	a8 01       	movw	r20, r16
    182c:	ce 01       	movw	r24, r28
    182e:	41 96       	adiw	r24, 0x11	; 17
    1830:	0e 94 0d 01 	call	0x21a	; 0x21a <_ZN7ComplexC1Eff>
    1834:	00 e0       	ldi	r16, 0x00	; 0
    1836:	10 e0       	ldi	r17, 0x00	; 0
    1838:	98 01       	movw	r18, r16
    183a:	b9 01       	movw	r22, r18
    183c:	a8 01       	movw	r20, r16
    183e:	ce 01       	movw	r24, r28
    1840:	49 96       	adiw	r24, 0x19	; 25
    1842:	0e 94 0d 01 	call	0x21a	; 0x21a <_ZN7ComplexC1Eff>
    1846:	00 e0       	ldi	r16, 0x00	; 0
    1848:	10 e0       	ldi	r17, 0x00	; 0
    184a:	98 01       	movw	r18, r16
    184c:	b9 01       	movw	r22, r18
    184e:	a8 01       	movw	r20, r16
    1850:	ce 01       	movw	r24, r28
    1852:	81 96       	adiw	r24, 0x21	; 33
    1854:	0e 94 0d 01 	call	0x21a	; 0x21a <_ZN7ComplexC1Eff>
    1858:	00 e0       	ldi	r16, 0x00	; 0
    185a:	10 e0       	ldi	r17, 0x00	; 0
    185c:	98 01       	movw	r18, r16
    185e:	40 e0       	ldi	r20, 0x00	; 0
    1860:	50 e0       	ldi	r21, 0x00	; 0
    1862:	60 e8       	ldi	r22, 0x80	; 128
    1864:	7f e3       	ldi	r23, 0x3F	; 63
    1866:	ce 01       	movw	r24, r28
    1868:	89 96       	adiw	r24, 0x29	; 41
    186a:	0e 94 0d 01 	call	0x21a	; 0x21a <_ZN7ComplexC1Eff>
    186e:	00 e0       	ldi	r16, 0x00	; 0
    1870:	10 e0       	ldi	r17, 0x00	; 0
    1872:	98 01       	movw	r18, r16
    1874:	b9 01       	movw	r22, r18
    1876:	a8 01       	movw	r20, r16
    1878:	ce 01       	movw	r24, r28
    187a:	c1 96       	adiw	r24, 0x31	; 49
    187c:	0e 94 0d 01 	call	0x21a	; 0x21a <_ZN7ComplexC1Eff>
    1880:	00 e0       	ldi	r16, 0x00	; 0
    1882:	10 e0       	ldi	r17, 0x00	; 0
    1884:	98 01       	movw	r18, r16
    1886:	b9 01       	movw	r22, r18
    1888:	a8 01       	movw	r20, r16
    188a:	ce 01       	movw	r24, r28
    188c:	c9 96       	adiw	r24, 0x39	; 57
    188e:	0e 94 0d 01 	call	0x21a	; 0x21a <_ZN7ComplexC1Eff>
    1892:	00 e0       	ldi	r16, 0x00	; 0
    1894:	10 e0       	ldi	r17, 0x00	; 0
    1896:	98 01       	movw	r18, r16
    1898:	b9 01       	movw	r22, r18
    189a:	a8 01       	movw	r20, r16
    189c:	ce 01       	movw	r24, r28
    189e:	8f 5b       	subi	r24, 0xBF	; 191
    18a0:	9f 4f       	sbci	r25, 0xFF	; 255
    18a2:	0e 94 0d 01 	call	0x21a	; 0x21a <_ZN7ComplexC1Eff>
    18a6:	00 e0       	ldi	r16, 0x00	; 0
    18a8:	10 e0       	ldi	r17, 0x00	; 0
    18aa:	98 01       	movw	r18, r16
    18ac:	b9 01       	movw	r22, r18
    18ae:	a8 01       	movw	r20, r16
    18b0:	ce 01       	movw	r24, r28
    18b2:	87 5b       	subi	r24, 0xB7	; 183
    18b4:	9f 4f       	sbci	r25, 0xFF	; 255
    18b6:	0e 94 0d 01 	call	0x21a	; 0x21a <_ZN7ComplexC1Eff>
    18ba:	00 e0       	ldi	r16, 0x00	; 0
    18bc:	10 e0       	ldi	r17, 0x00	; 0
    18be:	98 01       	movw	r18, r16
    18c0:	b9 01       	movw	r22, r18
    18c2:	a8 01       	movw	r20, r16
    18c4:	ce 01       	movw	r24, r28
    18c6:	8f 5a       	subi	r24, 0xAF	; 175
    18c8:	9f 4f       	sbci	r25, 0xFF	; 255
    18ca:	0e 94 0d 01 	call	0x21a	; 0x21a <_ZN7ComplexC1Eff>
    18ce:	00 e0       	ldi	r16, 0x00	; 0
    18d0:	10 e0       	ldi	r17, 0x00	; 0
    18d2:	98 01       	movw	r18, r16
    18d4:	40 e0       	ldi	r20, 0x00	; 0
    18d6:	50 e0       	ldi	r21, 0x00	; 0
    18d8:	60 e8       	ldi	r22, 0x80	; 128
    18da:	7f e3       	ldi	r23, 0x3F	; 63
    18dc:	ce 01       	movw	r24, r28
    18de:	87 5a       	subi	r24, 0xA7	; 167
    18e0:	9f 4f       	sbci	r25, 0xFF	; 255
    18e2:	0e 94 0d 01 	call	0x21a	; 0x21a <_ZN7ComplexC1Eff>
    18e6:	00 e0       	ldi	r16, 0x00	; 0
    18e8:	10 e0       	ldi	r17, 0x00	; 0
    18ea:	98 01       	movw	r18, r16
    18ec:	b9 01       	movw	r22, r18
    18ee:	a8 01       	movw	r20, r16
    18f0:	ce 01       	movw	r24, r28
    18f2:	8f 59       	subi	r24, 0x9F	; 159
    18f4:	9f 4f       	sbci	r25, 0xFF	; 255
    18f6:	0e 94 0d 01 	call	0x21a	; 0x21a <_ZN7ComplexC1Eff>
    18fa:	00 e0       	ldi	r16, 0x00	; 0
    18fc:	10 e0       	ldi	r17, 0x00	; 0
    18fe:	98 01       	movw	r18, r16
    1900:	b9 01       	movw	r22, r18
    1902:	a8 01       	movw	r20, r16
    1904:	ce 01       	movw	r24, r28
    1906:	87 59       	subi	r24, 0x97	; 151
    1908:	9f 4f       	sbci	r25, 0xFF	; 255
    190a:	0e 94 0d 01 	call	0x21a	; 0x21a <_ZN7ComplexC1Eff>
    190e:	00 e0       	ldi	r16, 0x00	; 0
    1910:	10 e0       	ldi	r17, 0x00	; 0
    1912:	98 01       	movw	r18, r16
    1914:	40 e0       	ldi	r20, 0x00	; 0
    1916:	50 e0       	ldi	r21, 0x00	; 0
    1918:	60 e8       	ldi	r22, 0x80	; 128
    191a:	7f e3       	ldi	r23, 0x3F	; 63
    191c:	ce 01       	movw	r24, r28
    191e:	8f 58       	subi	r24, 0x8F	; 143
    1920:	9f 4f       	sbci	r25, 0xFF	; 255
    1922:	0e 94 0d 01 	call	0x21a	; 0x21a <_ZN7ComplexC1Eff>
    1926:	00 e0       	ldi	r16, 0x00	; 0
    1928:	10 e0       	ldi	r17, 0x00	; 0
    192a:	98 01       	movw	r18, r16
    192c:	b9 01       	movw	r22, r18
    192e:	a8 01       	movw	r20, r16
    1930:	ce 01       	movw	r24, r28
    1932:	87 58       	subi	r24, 0x87	; 135
    1934:	9f 4f       	sbci	r25, 0xFF	; 255
    1936:	0e 94 0d 01 	call	0x21a	; 0x21a <_ZN7ComplexC1Eff>
	int theta_list[QB_SIZE2]={theta1,theta2}; int phi_list[QB_SIZE2]={phi1,phi2};						
    193a:	cb 57       	subi	r28, 0x7B	; 123
    193c:	df 4f       	sbci	r29, 0xFF	; 255
    193e:	79 82       	std	Y+1, r7	; 0x01
    1940:	68 82       	st	Y, r6
    1942:	c5 58       	subi	r28, 0x85	; 133
    1944:	d0 40       	sbci	r29, 0x00	; 0
    1946:	c9 57       	subi	r28, 0x79	; 121
    1948:	df 4f       	sbci	r29, 0xFF	; 255
    194a:	99 82       	std	Y+1, r9	; 0x01
    194c:	88 82       	st	Y, r8
    194e:	c7 58       	subi	r28, 0x87	; 135
    1950:	d0 40       	sbci	r29, 0x00	; 0
    1952:	cf 57       	subi	r28, 0x7F	; 127
    1954:	df 4f       	sbci	r29, 0xFF	; 255
    1956:	b9 82       	std	Y+1, r11	; 0x01
    1958:	a8 82       	st	Y, r10
    195a:	c1 58       	subi	r28, 0x81	; 129
    195c:	d0 40       	sbci	r29, 0x00	; 0
    195e:	cd 57       	subi	r28, 0x7D	; 125
    1960:	df 4f       	sbci	r29, 0xFF	; 255
    1962:	d9 82       	std	Y+1, r13	; 0x01
    1964:	c8 82       	st	Y, r12
    1966:	c3 58       	subi	r28, 0x83	; 131
    1968:	d0 40       	sbci	r29, 0x00	; 0
	return vec2ampl(multiply4x4(ampl2vec(QB_SIZE2,theta_list,phi_list),cno_matrix),QB_SIZE2);
    196a:	9e 01       	movw	r18, r28
    196c:	2f 57       	subi	r18, 0x7F	; 127
    196e:	3f 4f       	sbci	r19, 0xFF	; 255
    1970:	ae 01       	movw	r20, r28
    1972:	4b 57       	subi	r20, 0x7B	; 123
    1974:	5f 4f       	sbci	r21, 0xFF	; 255
    1976:	62 e0       	ldi	r22, 0x02	; 2
    1978:	70 e0       	ldi	r23, 0x00	; 0
    197a:	c7 01       	movw	r24, r14
    197c:	0e 94 be 05 	call	0xb7c	; 0xb7c <_ZN5Gates8ampl2vecEiPiS0_>
    1980:	ae 01       	movw	r20, r28
    1982:	4f 5f       	subi	r20, 0xFF	; 255
    1984:	5f 4f       	sbci	r21, 0xFF	; 255
    1986:	bc 01       	movw	r22, r24
    1988:	c7 01       	movw	r24, r14
    198a:	0e 94 18 08 	call	0x1030	; 0x1030 <_ZN5Gates11multiply4x4EP7ComplexPA4_S0_>
    198e:	42 e0       	ldi	r20, 0x02	; 2
    1990:	50 e0       	ldi	r21, 0x00	; 0
    1992:	bc 01       	movw	r22, r24
    1994:	c7 01       	movw	r24, r14
    1996:	0e 94 c9 06 	call	0xd92	; 0xd92 <_ZN5Gates8vec2amplEP7Complexi>
}
    199a:	c8 57       	subi	r28, 0x78	; 120
    199c:	df 4f       	sbci	r29, 0xFF	; 255
    199e:	0f b6       	in	r0, 0x3f	; 63
    19a0:	f8 94       	cli
    19a2:	de bf       	out	0x3e, r29	; 62
    19a4:	0f be       	out	0x3f, r0	; 63
    19a6:	cd bf       	out	0x3d, r28	; 61
    19a8:	df 91       	pop	r29
    19aa:	cf 91       	pop	r28
    19ac:	1f 91       	pop	r17
    19ae:	0f 91       	pop	r16
    19b0:	ff 90       	pop	r15
    19b2:	ef 90       	pop	r14
    19b4:	df 90       	pop	r13
    19b6:	cf 90       	pop	r12
    19b8:	bf 90       	pop	r11
    19ba:	af 90       	pop	r10
    19bc:	9f 90       	pop	r9
    19be:	8f 90       	pop	r8
    19c0:	7f 90       	pop	r7
    19c2:	6f 90       	pop	r6
    19c4:	08 95       	ret

000019c6 <_ZN5Gates3CSIEiiii>:
int * Gates::CSI(int theta1, int phi1, int theta2,int phi2){
    19c6:	6f 92       	push	r6
    19c8:	7f 92       	push	r7
    19ca:	8f 92       	push	r8
    19cc:	9f 92       	push	r9
    19ce:	af 92       	push	r10
    19d0:	bf 92       	push	r11
    19d2:	cf 92       	push	r12
    19d4:	df 92       	push	r13
    19d6:	ef 92       	push	r14
    19d8:	ff 92       	push	r15
    19da:	0f 93       	push	r16
    19dc:	1f 93       	push	r17
    19de:	cf 93       	push	r28
    19e0:	df 93       	push	r29
    19e2:	cd b7       	in	r28, 0x3d	; 61
    19e4:	de b7       	in	r29, 0x3e	; 62
    19e6:	c8 58       	subi	r28, 0x88	; 136
    19e8:	d1 09       	sbc	r29, r1
    19ea:	0f b6       	in	r0, 0x3f	; 63
    19ec:	f8 94       	cli
    19ee:	de bf       	out	0x3e, r29	; 62
    19f0:	0f be       	out	0x3f, r0	; 63
    19f2:	cd bf       	out	0x3d, r28	; 61
    19f4:	7c 01       	movw	r14, r24
    19f6:	3b 01       	movw	r6, r22
    19f8:	5a 01       	movw	r10, r20
    19fa:	49 01       	movw	r8, r18
    19fc:	68 01       	movw	r12, r16
	Complex csi_matrix[QB2_MATRIX_SIZE][QB2_MATRIX_SIZE]{{Complex(1,0),Complex(0,0),Complex(0,0),Complex(0,0)},
													     {Complex(0,0),Complex(1,0),Complex(0,0),Complex(0,0)},
													     {Complex(0,0),Complex(0,0),Complex(1,0),Complex(0,0)},
													     {Complex(0,0),Complex(0,0),Complex(0,0),Complex(-1,0)}};
    19fe:	00 e0       	ldi	r16, 0x00	; 0
    1a00:	10 e0       	ldi	r17, 0x00	; 0
    1a02:	98 01       	movw	r18, r16
    1a04:	40 e0       	ldi	r20, 0x00	; 0
    1a06:	50 e0       	ldi	r21, 0x00	; 0
    1a08:	60 e8       	ldi	r22, 0x80	; 128
    1a0a:	7f e3       	ldi	r23, 0x3F	; 63
    1a0c:	ce 01       	movw	r24, r28
    1a0e:	01 96       	adiw	r24, 0x01	; 1
    1a10:	0e 94 0d 01 	call	0x21a	; 0x21a <_ZN7ComplexC1Eff>
    1a14:	00 e0       	ldi	r16, 0x00	; 0
    1a16:	10 e0       	ldi	r17, 0x00	; 0
    1a18:	98 01       	movw	r18, r16
    1a1a:	b9 01       	movw	r22, r18
    1a1c:	a8 01       	movw	r20, r16
    1a1e:	ce 01       	movw	r24, r28
    1a20:	09 96       	adiw	r24, 0x09	; 9
    1a22:	0e 94 0d 01 	call	0x21a	; 0x21a <_ZN7ComplexC1Eff>
    1a26:	00 e0       	ldi	r16, 0x00	; 0
    1a28:	10 e0       	ldi	r17, 0x00	; 0
    1a2a:	98 01       	movw	r18, r16
    1a2c:	b9 01       	movw	r22, r18
    1a2e:	a8 01       	movw	r20, r16
    1a30:	ce 01       	movw	r24, r28
    1a32:	41 96       	adiw	r24, 0x11	; 17
    1a34:	0e 94 0d 01 	call	0x21a	; 0x21a <_ZN7ComplexC1Eff>
    1a38:	00 e0       	ldi	r16, 0x00	; 0
    1a3a:	10 e0       	ldi	r17, 0x00	; 0
    1a3c:	98 01       	movw	r18, r16
    1a3e:	b9 01       	movw	r22, r18
    1a40:	a8 01       	movw	r20, r16
    1a42:	ce 01       	movw	r24, r28
    1a44:	49 96       	adiw	r24, 0x19	; 25
    1a46:	0e 94 0d 01 	call	0x21a	; 0x21a <_ZN7ComplexC1Eff>
    1a4a:	00 e0       	ldi	r16, 0x00	; 0
    1a4c:	10 e0       	ldi	r17, 0x00	; 0
    1a4e:	98 01       	movw	r18, r16
    1a50:	b9 01       	movw	r22, r18
    1a52:	a8 01       	movw	r20, r16
    1a54:	ce 01       	movw	r24, r28
    1a56:	81 96       	adiw	r24, 0x21	; 33
    1a58:	0e 94 0d 01 	call	0x21a	; 0x21a <_ZN7ComplexC1Eff>
    1a5c:	00 e0       	ldi	r16, 0x00	; 0
    1a5e:	10 e0       	ldi	r17, 0x00	; 0
    1a60:	98 01       	movw	r18, r16
    1a62:	40 e0       	ldi	r20, 0x00	; 0
    1a64:	50 e0       	ldi	r21, 0x00	; 0
    1a66:	60 e8       	ldi	r22, 0x80	; 128
    1a68:	7f e3       	ldi	r23, 0x3F	; 63
    1a6a:	ce 01       	movw	r24, r28
    1a6c:	89 96       	adiw	r24, 0x29	; 41
    1a6e:	0e 94 0d 01 	call	0x21a	; 0x21a <_ZN7ComplexC1Eff>
    1a72:	00 e0       	ldi	r16, 0x00	; 0
    1a74:	10 e0       	ldi	r17, 0x00	; 0
    1a76:	98 01       	movw	r18, r16
    1a78:	b9 01       	movw	r22, r18
    1a7a:	a8 01       	movw	r20, r16
    1a7c:	ce 01       	movw	r24, r28
    1a7e:	c1 96       	adiw	r24, 0x31	; 49
    1a80:	0e 94 0d 01 	call	0x21a	; 0x21a <_ZN7ComplexC1Eff>
    1a84:	00 e0       	ldi	r16, 0x00	; 0
    1a86:	10 e0       	ldi	r17, 0x00	; 0
    1a88:	98 01       	movw	r18, r16
    1a8a:	b9 01       	movw	r22, r18
    1a8c:	a8 01       	movw	r20, r16
    1a8e:	ce 01       	movw	r24, r28
    1a90:	c9 96       	adiw	r24, 0x39	; 57
    1a92:	0e 94 0d 01 	call	0x21a	; 0x21a <_ZN7ComplexC1Eff>
    1a96:	00 e0       	ldi	r16, 0x00	; 0
    1a98:	10 e0       	ldi	r17, 0x00	; 0
    1a9a:	98 01       	movw	r18, r16
    1a9c:	b9 01       	movw	r22, r18
    1a9e:	a8 01       	movw	r20, r16
    1aa0:	ce 01       	movw	r24, r28
    1aa2:	8f 5b       	subi	r24, 0xBF	; 191
    1aa4:	9f 4f       	sbci	r25, 0xFF	; 255
    1aa6:	0e 94 0d 01 	call	0x21a	; 0x21a <_ZN7ComplexC1Eff>
    1aaa:	00 e0       	ldi	r16, 0x00	; 0
    1aac:	10 e0       	ldi	r17, 0x00	; 0
    1aae:	98 01       	movw	r18, r16
    1ab0:	b9 01       	movw	r22, r18
    1ab2:	a8 01       	movw	r20, r16
    1ab4:	ce 01       	movw	r24, r28
    1ab6:	87 5b       	subi	r24, 0xB7	; 183
    1ab8:	9f 4f       	sbci	r25, 0xFF	; 255
    1aba:	0e 94 0d 01 	call	0x21a	; 0x21a <_ZN7ComplexC1Eff>
    1abe:	00 e0       	ldi	r16, 0x00	; 0
    1ac0:	10 e0       	ldi	r17, 0x00	; 0
    1ac2:	98 01       	movw	r18, r16
    1ac4:	40 e0       	ldi	r20, 0x00	; 0
    1ac6:	50 e0       	ldi	r21, 0x00	; 0
    1ac8:	60 e8       	ldi	r22, 0x80	; 128
    1aca:	7f e3       	ldi	r23, 0x3F	; 63
    1acc:	ce 01       	movw	r24, r28
    1ace:	8f 5a       	subi	r24, 0xAF	; 175
    1ad0:	9f 4f       	sbci	r25, 0xFF	; 255
    1ad2:	0e 94 0d 01 	call	0x21a	; 0x21a <_ZN7ComplexC1Eff>
    1ad6:	00 e0       	ldi	r16, 0x00	; 0
    1ad8:	10 e0       	ldi	r17, 0x00	; 0
    1ada:	98 01       	movw	r18, r16
    1adc:	b9 01       	movw	r22, r18
    1ade:	a8 01       	movw	r20, r16
    1ae0:	ce 01       	movw	r24, r28
    1ae2:	87 5a       	subi	r24, 0xA7	; 167
    1ae4:	9f 4f       	sbci	r25, 0xFF	; 255
    1ae6:	0e 94 0d 01 	call	0x21a	; 0x21a <_ZN7ComplexC1Eff>
    1aea:	00 e0       	ldi	r16, 0x00	; 0
    1aec:	10 e0       	ldi	r17, 0x00	; 0
    1aee:	98 01       	movw	r18, r16
    1af0:	b9 01       	movw	r22, r18
    1af2:	a8 01       	movw	r20, r16
    1af4:	ce 01       	movw	r24, r28
    1af6:	8f 59       	subi	r24, 0x9F	; 159
    1af8:	9f 4f       	sbci	r25, 0xFF	; 255
    1afa:	0e 94 0d 01 	call	0x21a	; 0x21a <_ZN7ComplexC1Eff>
    1afe:	00 e0       	ldi	r16, 0x00	; 0
    1b00:	10 e0       	ldi	r17, 0x00	; 0
    1b02:	98 01       	movw	r18, r16
    1b04:	b9 01       	movw	r22, r18
    1b06:	a8 01       	movw	r20, r16
    1b08:	ce 01       	movw	r24, r28
    1b0a:	87 59       	subi	r24, 0x97	; 151
    1b0c:	9f 4f       	sbci	r25, 0xFF	; 255
    1b0e:	0e 94 0d 01 	call	0x21a	; 0x21a <_ZN7ComplexC1Eff>
    1b12:	00 e0       	ldi	r16, 0x00	; 0
    1b14:	10 e0       	ldi	r17, 0x00	; 0
    1b16:	98 01       	movw	r18, r16
    1b18:	b9 01       	movw	r22, r18
    1b1a:	a8 01       	movw	r20, r16
    1b1c:	ce 01       	movw	r24, r28
    1b1e:	8f 58       	subi	r24, 0x8F	; 143
    1b20:	9f 4f       	sbci	r25, 0xFF	; 255
    1b22:	0e 94 0d 01 	call	0x21a	; 0x21a <_ZN7ComplexC1Eff>
    1b26:	00 e0       	ldi	r16, 0x00	; 0
    1b28:	10 e0       	ldi	r17, 0x00	; 0
    1b2a:	98 01       	movw	r18, r16
    1b2c:	40 e0       	ldi	r20, 0x00	; 0
    1b2e:	50 e0       	ldi	r21, 0x00	; 0
    1b30:	60 e8       	ldi	r22, 0x80	; 128
    1b32:	7f eb       	ldi	r23, 0xBF	; 191
    1b34:	ce 01       	movw	r24, r28
    1b36:	87 58       	subi	r24, 0x87	; 135
    1b38:	9f 4f       	sbci	r25, 0xFF	; 255
    1b3a:	0e 94 0d 01 	call	0x21a	; 0x21a <_ZN7ComplexC1Eff>
	int theta_list[QB_SIZE2]={theta1,theta2}; int phi_list[QB_SIZE2]={phi1,phi2};
    1b3e:	cb 57       	subi	r28, 0x7B	; 123
    1b40:	df 4f       	sbci	r29, 0xFF	; 255
    1b42:	79 82       	std	Y+1, r7	; 0x01
    1b44:	68 82       	st	Y, r6
    1b46:	c5 58       	subi	r28, 0x85	; 133
    1b48:	d0 40       	sbci	r29, 0x00	; 0
    1b4a:	c9 57       	subi	r28, 0x79	; 121
    1b4c:	df 4f       	sbci	r29, 0xFF	; 255
    1b4e:	99 82       	std	Y+1, r9	; 0x01
    1b50:	88 82       	st	Y, r8
    1b52:	c7 58       	subi	r28, 0x87	; 135
    1b54:	d0 40       	sbci	r29, 0x00	; 0
    1b56:	cf 57       	subi	r28, 0x7F	; 127
    1b58:	df 4f       	sbci	r29, 0xFF	; 255
    1b5a:	b9 82       	std	Y+1, r11	; 0x01
    1b5c:	a8 82       	st	Y, r10
    1b5e:	c1 58       	subi	r28, 0x81	; 129
    1b60:	d0 40       	sbci	r29, 0x00	; 0
    1b62:	cd 57       	subi	r28, 0x7D	; 125
    1b64:	df 4f       	sbci	r29, 0xFF	; 255
    1b66:	d9 82       	std	Y+1, r13	; 0x01
    1b68:	c8 82       	st	Y, r12
    1b6a:	c3 58       	subi	r28, 0x83	; 131
    1b6c:	d0 40       	sbci	r29, 0x00	; 0
	return vec2ampl(multiply4x4(ampl2vec(QB_SIZE2,theta_list,phi_list),csi_matrix),QB_SIZE2);
    1b6e:	9e 01       	movw	r18, r28
    1b70:	2f 57       	subi	r18, 0x7F	; 127
    1b72:	3f 4f       	sbci	r19, 0xFF	; 255
    1b74:	ae 01       	movw	r20, r28
    1b76:	4b 57       	subi	r20, 0x7B	; 123
    1b78:	5f 4f       	sbci	r21, 0xFF	; 255
    1b7a:	62 e0       	ldi	r22, 0x02	; 2
    1b7c:	70 e0       	ldi	r23, 0x00	; 0
    1b7e:	c7 01       	movw	r24, r14
    1b80:	0e 94 be 05 	call	0xb7c	; 0xb7c <_ZN5Gates8ampl2vecEiPiS0_>
    1b84:	ae 01       	movw	r20, r28
    1b86:	4f 5f       	subi	r20, 0xFF	; 255
    1b88:	5f 4f       	sbci	r21, 0xFF	; 255
    1b8a:	bc 01       	movw	r22, r24
    1b8c:	c7 01       	movw	r24, r14
    1b8e:	0e 94 18 08 	call	0x1030	; 0x1030 <_ZN5Gates11multiply4x4EP7ComplexPA4_S0_>
    1b92:	42 e0       	ldi	r20, 0x02	; 2
    1b94:	50 e0       	ldi	r21, 0x00	; 0
    1b96:	bc 01       	movw	r22, r24
    1b98:	c7 01       	movw	r24, r14
    1b9a:	0e 94 c9 06 	call	0xd92	; 0xd92 <_ZN5Gates8vec2amplEP7Complexi>
}
    1b9e:	c8 57       	subi	r28, 0x78	; 120
    1ba0:	df 4f       	sbci	r29, 0xFF	; 255
    1ba2:	0f b6       	in	r0, 0x3f	; 63
    1ba4:	f8 94       	cli
    1ba6:	de bf       	out	0x3e, r29	; 62
    1ba8:	0f be       	out	0x3f, r0	; 63
    1baa:	cd bf       	out	0x3d, r28	; 61
    1bac:	df 91       	pop	r29
    1bae:	cf 91       	pop	r28
    1bb0:	1f 91       	pop	r17
    1bb2:	0f 91       	pop	r16
    1bb4:	ff 90       	pop	r15
    1bb6:	ef 90       	pop	r14
    1bb8:	df 90       	pop	r13
    1bba:	cf 90       	pop	r12
    1bbc:	bf 90       	pop	r11
    1bbe:	af 90       	pop	r10
    1bc0:	9f 90       	pop	r9
    1bc2:	8f 90       	pop	r8
    1bc4:	7f 90       	pop	r7
    1bc6:	6f 90       	pop	r6
    1bc8:	08 95       	ret

00001bca <_ZN5Gates3SWAEiiii>:
int * Gates::SWA(int theta1, int phi1, int theta2,int phi2){
    1bca:	6f 92       	push	r6
    1bcc:	7f 92       	push	r7
    1bce:	8f 92       	push	r8
    1bd0:	9f 92       	push	r9
    1bd2:	af 92       	push	r10
    1bd4:	bf 92       	push	r11
    1bd6:	cf 92       	push	r12
    1bd8:	df 92       	push	r13
    1bda:	ef 92       	push	r14
    1bdc:	ff 92       	push	r15
    1bde:	0f 93       	push	r16
    1be0:	1f 93       	push	r17
    1be2:	cf 93       	push	r28
    1be4:	df 93       	push	r29
    1be6:	cd b7       	in	r28, 0x3d	; 61
    1be8:	de b7       	in	r29, 0x3e	; 62
    1bea:	c8 58       	subi	r28, 0x88	; 136
    1bec:	d1 09       	sbc	r29, r1
    1bee:	0f b6       	in	r0, 0x3f	; 63
    1bf0:	f8 94       	cli
    1bf2:	de bf       	out	0x3e, r29	; 62
    1bf4:	0f be       	out	0x3f, r0	; 63
    1bf6:	cd bf       	out	0x3d, r28	; 61
    1bf8:	7c 01       	movw	r14, r24
    1bfa:	3b 01       	movw	r6, r22
    1bfc:	5a 01       	movw	r10, r20
    1bfe:	49 01       	movw	r8, r18
    1c00:	68 01       	movw	r12, r16
	Complex swa_matrix[QB2_MATRIX_SIZE][QB2_MATRIX_SIZE]{{Complex(1,0),Complex(0,0),Complex(0,0),Complex(0,0)},
													     {Complex(0,0),Complex(0,0),Complex(1,0),Complex(0,0)},
													     {Complex(0,0),Complex(1,0),Complex(0,0),Complex(0,0)},
													     {Complex(0,0),Complex(0,0),Complex(0,0),Complex(1,0)}};
    1c02:	00 e0       	ldi	r16, 0x00	; 0
    1c04:	10 e0       	ldi	r17, 0x00	; 0
    1c06:	98 01       	movw	r18, r16
    1c08:	40 e0       	ldi	r20, 0x00	; 0
    1c0a:	50 e0       	ldi	r21, 0x00	; 0
    1c0c:	60 e8       	ldi	r22, 0x80	; 128
    1c0e:	7f e3       	ldi	r23, 0x3F	; 63
    1c10:	ce 01       	movw	r24, r28
    1c12:	01 96       	adiw	r24, 0x01	; 1
    1c14:	0e 94 0d 01 	call	0x21a	; 0x21a <_ZN7ComplexC1Eff>
    1c18:	00 e0       	ldi	r16, 0x00	; 0
    1c1a:	10 e0       	ldi	r17, 0x00	; 0
    1c1c:	98 01       	movw	r18, r16
    1c1e:	b9 01       	movw	r22, r18
    1c20:	a8 01       	movw	r20, r16
    1c22:	ce 01       	movw	r24, r28
    1c24:	09 96       	adiw	r24, 0x09	; 9
    1c26:	0e 94 0d 01 	call	0x21a	; 0x21a <_ZN7ComplexC1Eff>
    1c2a:	00 e0       	ldi	r16, 0x00	; 0
    1c2c:	10 e0       	ldi	r17, 0x00	; 0
    1c2e:	98 01       	movw	r18, r16
    1c30:	b9 01       	movw	r22, r18
    1c32:	a8 01       	movw	r20, r16
    1c34:	ce 01       	movw	r24, r28
    1c36:	41 96       	adiw	r24, 0x11	; 17
    1c38:	0e 94 0d 01 	call	0x21a	; 0x21a <_ZN7ComplexC1Eff>
    1c3c:	00 e0       	ldi	r16, 0x00	; 0
    1c3e:	10 e0       	ldi	r17, 0x00	; 0
    1c40:	98 01       	movw	r18, r16
    1c42:	b9 01       	movw	r22, r18
    1c44:	a8 01       	movw	r20, r16
    1c46:	ce 01       	movw	r24, r28
    1c48:	49 96       	adiw	r24, 0x19	; 25
    1c4a:	0e 94 0d 01 	call	0x21a	; 0x21a <_ZN7ComplexC1Eff>
    1c4e:	00 e0       	ldi	r16, 0x00	; 0
    1c50:	10 e0       	ldi	r17, 0x00	; 0
    1c52:	98 01       	movw	r18, r16
    1c54:	b9 01       	movw	r22, r18
    1c56:	a8 01       	movw	r20, r16
    1c58:	ce 01       	movw	r24, r28
    1c5a:	81 96       	adiw	r24, 0x21	; 33
    1c5c:	0e 94 0d 01 	call	0x21a	; 0x21a <_ZN7ComplexC1Eff>
    1c60:	00 e0       	ldi	r16, 0x00	; 0
    1c62:	10 e0       	ldi	r17, 0x00	; 0
    1c64:	98 01       	movw	r18, r16
    1c66:	b9 01       	movw	r22, r18
    1c68:	a8 01       	movw	r20, r16
    1c6a:	ce 01       	movw	r24, r28
    1c6c:	89 96       	adiw	r24, 0x29	; 41
    1c6e:	0e 94 0d 01 	call	0x21a	; 0x21a <_ZN7ComplexC1Eff>
    1c72:	00 e0       	ldi	r16, 0x00	; 0
    1c74:	10 e0       	ldi	r17, 0x00	; 0
    1c76:	98 01       	movw	r18, r16
    1c78:	40 e0       	ldi	r20, 0x00	; 0
    1c7a:	50 e0       	ldi	r21, 0x00	; 0
    1c7c:	60 e8       	ldi	r22, 0x80	; 128
    1c7e:	7f e3       	ldi	r23, 0x3F	; 63
    1c80:	ce 01       	movw	r24, r28
    1c82:	c1 96       	adiw	r24, 0x31	; 49
    1c84:	0e 94 0d 01 	call	0x21a	; 0x21a <_ZN7ComplexC1Eff>
    1c88:	00 e0       	ldi	r16, 0x00	; 0
    1c8a:	10 e0       	ldi	r17, 0x00	; 0
    1c8c:	98 01       	movw	r18, r16
    1c8e:	b9 01       	movw	r22, r18
    1c90:	a8 01       	movw	r20, r16
    1c92:	ce 01       	movw	r24, r28
    1c94:	c9 96       	adiw	r24, 0x39	; 57
    1c96:	0e 94 0d 01 	call	0x21a	; 0x21a <_ZN7ComplexC1Eff>
    1c9a:	00 e0       	ldi	r16, 0x00	; 0
    1c9c:	10 e0       	ldi	r17, 0x00	; 0
    1c9e:	98 01       	movw	r18, r16
    1ca0:	b9 01       	movw	r22, r18
    1ca2:	a8 01       	movw	r20, r16
    1ca4:	ce 01       	movw	r24, r28
    1ca6:	8f 5b       	subi	r24, 0xBF	; 191
    1ca8:	9f 4f       	sbci	r25, 0xFF	; 255
    1caa:	0e 94 0d 01 	call	0x21a	; 0x21a <_ZN7ComplexC1Eff>
    1cae:	00 e0       	ldi	r16, 0x00	; 0
    1cb0:	10 e0       	ldi	r17, 0x00	; 0
    1cb2:	98 01       	movw	r18, r16
    1cb4:	40 e0       	ldi	r20, 0x00	; 0
    1cb6:	50 e0       	ldi	r21, 0x00	; 0
    1cb8:	60 e8       	ldi	r22, 0x80	; 128
    1cba:	7f e3       	ldi	r23, 0x3F	; 63
    1cbc:	ce 01       	movw	r24, r28
    1cbe:	87 5b       	subi	r24, 0xB7	; 183
    1cc0:	9f 4f       	sbci	r25, 0xFF	; 255
    1cc2:	0e 94 0d 01 	call	0x21a	; 0x21a <_ZN7ComplexC1Eff>
    1cc6:	00 e0       	ldi	r16, 0x00	; 0
    1cc8:	10 e0       	ldi	r17, 0x00	; 0
    1cca:	98 01       	movw	r18, r16
    1ccc:	b9 01       	movw	r22, r18
    1cce:	a8 01       	movw	r20, r16
    1cd0:	ce 01       	movw	r24, r28
    1cd2:	8f 5a       	subi	r24, 0xAF	; 175
    1cd4:	9f 4f       	sbci	r25, 0xFF	; 255
    1cd6:	0e 94 0d 01 	call	0x21a	; 0x21a <_ZN7ComplexC1Eff>
    1cda:	00 e0       	ldi	r16, 0x00	; 0
    1cdc:	10 e0       	ldi	r17, 0x00	; 0
    1cde:	98 01       	movw	r18, r16
    1ce0:	b9 01       	movw	r22, r18
    1ce2:	a8 01       	movw	r20, r16
    1ce4:	ce 01       	movw	r24, r28
    1ce6:	87 5a       	subi	r24, 0xA7	; 167
    1ce8:	9f 4f       	sbci	r25, 0xFF	; 255
    1cea:	0e 94 0d 01 	call	0x21a	; 0x21a <_ZN7ComplexC1Eff>
    1cee:	00 e0       	ldi	r16, 0x00	; 0
    1cf0:	10 e0       	ldi	r17, 0x00	; 0
    1cf2:	98 01       	movw	r18, r16
    1cf4:	b9 01       	movw	r22, r18
    1cf6:	a8 01       	movw	r20, r16
    1cf8:	ce 01       	movw	r24, r28
    1cfa:	8f 59       	subi	r24, 0x9F	; 159
    1cfc:	9f 4f       	sbci	r25, 0xFF	; 255
    1cfe:	0e 94 0d 01 	call	0x21a	; 0x21a <_ZN7ComplexC1Eff>
    1d02:	00 e0       	ldi	r16, 0x00	; 0
    1d04:	10 e0       	ldi	r17, 0x00	; 0
    1d06:	98 01       	movw	r18, r16
    1d08:	b9 01       	movw	r22, r18
    1d0a:	a8 01       	movw	r20, r16
    1d0c:	ce 01       	movw	r24, r28
    1d0e:	87 59       	subi	r24, 0x97	; 151
    1d10:	9f 4f       	sbci	r25, 0xFF	; 255
    1d12:	0e 94 0d 01 	call	0x21a	; 0x21a <_ZN7ComplexC1Eff>
    1d16:	00 e0       	ldi	r16, 0x00	; 0
    1d18:	10 e0       	ldi	r17, 0x00	; 0
    1d1a:	98 01       	movw	r18, r16
    1d1c:	b9 01       	movw	r22, r18
    1d1e:	a8 01       	movw	r20, r16
    1d20:	ce 01       	movw	r24, r28
    1d22:	8f 58       	subi	r24, 0x8F	; 143
    1d24:	9f 4f       	sbci	r25, 0xFF	; 255
    1d26:	0e 94 0d 01 	call	0x21a	; 0x21a <_ZN7ComplexC1Eff>
    1d2a:	00 e0       	ldi	r16, 0x00	; 0
    1d2c:	10 e0       	ldi	r17, 0x00	; 0
    1d2e:	98 01       	movw	r18, r16
    1d30:	40 e0       	ldi	r20, 0x00	; 0
    1d32:	50 e0       	ldi	r21, 0x00	; 0
    1d34:	60 e8       	ldi	r22, 0x80	; 128
    1d36:	7f e3       	ldi	r23, 0x3F	; 63
    1d38:	ce 01       	movw	r24, r28
    1d3a:	87 58       	subi	r24, 0x87	; 135
    1d3c:	9f 4f       	sbci	r25, 0xFF	; 255
    1d3e:	0e 94 0d 01 	call	0x21a	; 0x21a <_ZN7ComplexC1Eff>
	int theta_list[QB_SIZE2]={theta1,theta2}; int phi_list[QB_SIZE2]={phi1,phi2};
    1d42:	cb 57       	subi	r28, 0x7B	; 123
    1d44:	df 4f       	sbci	r29, 0xFF	; 255
    1d46:	79 82       	std	Y+1, r7	; 0x01
    1d48:	68 82       	st	Y, r6
    1d4a:	c5 58       	subi	r28, 0x85	; 133
    1d4c:	d0 40       	sbci	r29, 0x00	; 0
    1d4e:	c9 57       	subi	r28, 0x79	; 121
    1d50:	df 4f       	sbci	r29, 0xFF	; 255
    1d52:	99 82       	std	Y+1, r9	; 0x01
    1d54:	88 82       	st	Y, r8
    1d56:	c7 58       	subi	r28, 0x87	; 135
    1d58:	d0 40       	sbci	r29, 0x00	; 0
    1d5a:	cf 57       	subi	r28, 0x7F	; 127
    1d5c:	df 4f       	sbci	r29, 0xFF	; 255
    1d5e:	b9 82       	std	Y+1, r11	; 0x01
    1d60:	a8 82       	st	Y, r10
    1d62:	c1 58       	subi	r28, 0x81	; 129
    1d64:	d0 40       	sbci	r29, 0x00	; 0
    1d66:	cd 57       	subi	r28, 0x7D	; 125
    1d68:	df 4f       	sbci	r29, 0xFF	; 255
    1d6a:	d9 82       	std	Y+1, r13	; 0x01
    1d6c:	c8 82       	st	Y, r12
    1d6e:	c3 58       	subi	r28, 0x83	; 131
    1d70:	d0 40       	sbci	r29, 0x00	; 0
	return vec2ampl(multiply4x4(ampl2vec(QB_SIZE2,theta_list,phi_list),swa_matrix),QB_SIZE2);	
    1d72:	9e 01       	movw	r18, r28
    1d74:	2f 57       	subi	r18, 0x7F	; 127
    1d76:	3f 4f       	sbci	r19, 0xFF	; 255
    1d78:	ae 01       	movw	r20, r28
    1d7a:	4b 57       	subi	r20, 0x7B	; 123
    1d7c:	5f 4f       	sbci	r21, 0xFF	; 255
    1d7e:	62 e0       	ldi	r22, 0x02	; 2
    1d80:	70 e0       	ldi	r23, 0x00	; 0
    1d82:	c7 01       	movw	r24, r14
    1d84:	0e 94 be 05 	call	0xb7c	; 0xb7c <_ZN5Gates8ampl2vecEiPiS0_>
    1d88:	ae 01       	movw	r20, r28
    1d8a:	4f 5f       	subi	r20, 0xFF	; 255
    1d8c:	5f 4f       	sbci	r21, 0xFF	; 255
    1d8e:	bc 01       	movw	r22, r24
    1d90:	c7 01       	movw	r24, r14
    1d92:	0e 94 18 08 	call	0x1030	; 0x1030 <_ZN5Gates11multiply4x4EP7ComplexPA4_S0_>
    1d96:	42 e0       	ldi	r20, 0x02	; 2
    1d98:	50 e0       	ldi	r21, 0x00	; 0
    1d9a:	bc 01       	movw	r22, r24
    1d9c:	c7 01       	movw	r24, r14
    1d9e:	0e 94 c9 06 	call	0xd92	; 0xd92 <_ZN5Gates8vec2amplEP7Complexi>
}
    1da2:	c8 57       	subi	r28, 0x78	; 120
    1da4:	df 4f       	sbci	r29, 0xFF	; 255
    1da6:	0f b6       	in	r0, 0x3f	; 63
    1da8:	f8 94       	cli
    1daa:	de bf       	out	0x3e, r29	; 62
    1dac:	0f be       	out	0x3f, r0	; 63
    1dae:	cd bf       	out	0x3d, r28	; 61
    1db0:	df 91       	pop	r29
    1db2:	cf 91       	pop	r28
    1db4:	1f 91       	pop	r17
    1db6:	0f 91       	pop	r16
    1db8:	ff 90       	pop	r15
    1dba:	ef 90       	pop	r14
    1dbc:	df 90       	pop	r13
    1dbe:	cf 90       	pop	r12
    1dc0:	bf 90       	pop	r11
    1dc2:	af 90       	pop	r10
    1dc4:	9f 90       	pop	r9
    1dc6:	8f 90       	pop	r8
    1dc8:	7f 90       	pop	r7
    1dca:	6f 90       	pop	r6
    1dcc:	08 95       	ret

00001dce <_ZN5Gates3INCEiiii>:
int * Gates::INC(int theta1, int phi1, int theta2,int phi2){
    1dce:	6f 92       	push	r6
    1dd0:	7f 92       	push	r7
    1dd2:	8f 92       	push	r8
    1dd4:	9f 92       	push	r9
    1dd6:	af 92       	push	r10
    1dd8:	bf 92       	push	r11
    1dda:	cf 92       	push	r12
    1ddc:	df 92       	push	r13
    1dde:	ef 92       	push	r14
    1de0:	ff 92       	push	r15
    1de2:	0f 93       	push	r16
    1de4:	1f 93       	push	r17
    1de6:	cf 93       	push	r28
    1de8:	df 93       	push	r29
    1dea:	cd b7       	in	r28, 0x3d	; 61
    1dec:	de b7       	in	r29, 0x3e	; 62
    1dee:	c8 58       	subi	r28, 0x88	; 136
    1df0:	d1 09       	sbc	r29, r1
    1df2:	0f b6       	in	r0, 0x3f	; 63
    1df4:	f8 94       	cli
    1df6:	de bf       	out	0x3e, r29	; 62
    1df8:	0f be       	out	0x3f, r0	; 63
    1dfa:	cd bf       	out	0x3d, r28	; 61
    1dfc:	7c 01       	movw	r14, r24
    1dfe:	3b 01       	movw	r6, r22
    1e00:	5a 01       	movw	r10, r20
    1e02:	49 01       	movw	r8, r18
    1e04:	68 01       	movw	r12, r16
	Complex inc_matrix[QB2_MATRIX_SIZE][QB2_MATRIX_SIZE]{{Complex(0,0),Complex(1,0),Complex(0,0),Complex(0,0)},
													     {Complex(0,0),Complex(0,0),Complex(1,0),Complex(0,0)},
													     {Complex(0,0),Complex(0,0),Complex(0,0),Complex(1,0)},
													     {Complex(1,0),Complex(0,0),Complex(0,0),Complex(0,0)}};
    1e06:	00 e0       	ldi	r16, 0x00	; 0
    1e08:	10 e0       	ldi	r17, 0x00	; 0
    1e0a:	98 01       	movw	r18, r16
    1e0c:	b9 01       	movw	r22, r18
    1e0e:	a8 01       	movw	r20, r16
    1e10:	ce 01       	movw	r24, r28
    1e12:	01 96       	adiw	r24, 0x01	; 1
    1e14:	0e 94 0d 01 	call	0x21a	; 0x21a <_ZN7ComplexC1Eff>
    1e18:	00 e0       	ldi	r16, 0x00	; 0
    1e1a:	10 e0       	ldi	r17, 0x00	; 0
    1e1c:	98 01       	movw	r18, r16
    1e1e:	40 e0       	ldi	r20, 0x00	; 0
    1e20:	50 e0       	ldi	r21, 0x00	; 0
    1e22:	60 e8       	ldi	r22, 0x80	; 128
    1e24:	7f e3       	ldi	r23, 0x3F	; 63
    1e26:	ce 01       	movw	r24, r28
    1e28:	09 96       	adiw	r24, 0x09	; 9
    1e2a:	0e 94 0d 01 	call	0x21a	; 0x21a <_ZN7ComplexC1Eff>
    1e2e:	00 e0       	ldi	r16, 0x00	; 0
    1e30:	10 e0       	ldi	r17, 0x00	; 0
    1e32:	98 01       	movw	r18, r16
    1e34:	b9 01       	movw	r22, r18
    1e36:	a8 01       	movw	r20, r16
    1e38:	ce 01       	movw	r24, r28
    1e3a:	41 96       	adiw	r24, 0x11	; 17
    1e3c:	0e 94 0d 01 	call	0x21a	; 0x21a <_ZN7ComplexC1Eff>
    1e40:	00 e0       	ldi	r16, 0x00	; 0
    1e42:	10 e0       	ldi	r17, 0x00	; 0
    1e44:	98 01       	movw	r18, r16
    1e46:	b9 01       	movw	r22, r18
    1e48:	a8 01       	movw	r20, r16
    1e4a:	ce 01       	movw	r24, r28
    1e4c:	49 96       	adiw	r24, 0x19	; 25
    1e4e:	0e 94 0d 01 	call	0x21a	; 0x21a <_ZN7ComplexC1Eff>
    1e52:	00 e0       	ldi	r16, 0x00	; 0
    1e54:	10 e0       	ldi	r17, 0x00	; 0
    1e56:	98 01       	movw	r18, r16
    1e58:	b9 01       	movw	r22, r18
    1e5a:	a8 01       	movw	r20, r16
    1e5c:	ce 01       	movw	r24, r28
    1e5e:	81 96       	adiw	r24, 0x21	; 33
    1e60:	0e 94 0d 01 	call	0x21a	; 0x21a <_ZN7ComplexC1Eff>
    1e64:	00 e0       	ldi	r16, 0x00	; 0
    1e66:	10 e0       	ldi	r17, 0x00	; 0
    1e68:	98 01       	movw	r18, r16
    1e6a:	b9 01       	movw	r22, r18
    1e6c:	a8 01       	movw	r20, r16
    1e6e:	ce 01       	movw	r24, r28
    1e70:	89 96       	adiw	r24, 0x29	; 41
    1e72:	0e 94 0d 01 	call	0x21a	; 0x21a <_ZN7ComplexC1Eff>
    1e76:	00 e0       	ldi	r16, 0x00	; 0
    1e78:	10 e0       	ldi	r17, 0x00	; 0
    1e7a:	98 01       	movw	r18, r16
    1e7c:	40 e0       	ldi	r20, 0x00	; 0
    1e7e:	50 e0       	ldi	r21, 0x00	; 0
    1e80:	60 e8       	ldi	r22, 0x80	; 128
    1e82:	7f e3       	ldi	r23, 0x3F	; 63
    1e84:	ce 01       	movw	r24, r28
    1e86:	c1 96       	adiw	r24, 0x31	; 49
    1e88:	0e 94 0d 01 	call	0x21a	; 0x21a <_ZN7ComplexC1Eff>
    1e8c:	00 e0       	ldi	r16, 0x00	; 0
    1e8e:	10 e0       	ldi	r17, 0x00	; 0
    1e90:	98 01       	movw	r18, r16
    1e92:	b9 01       	movw	r22, r18
    1e94:	a8 01       	movw	r20, r16
    1e96:	ce 01       	movw	r24, r28
    1e98:	c9 96       	adiw	r24, 0x39	; 57
    1e9a:	0e 94 0d 01 	call	0x21a	; 0x21a <_ZN7ComplexC1Eff>
    1e9e:	00 e0       	ldi	r16, 0x00	; 0
    1ea0:	10 e0       	ldi	r17, 0x00	; 0
    1ea2:	98 01       	movw	r18, r16
    1ea4:	b9 01       	movw	r22, r18
    1ea6:	a8 01       	movw	r20, r16
    1ea8:	ce 01       	movw	r24, r28
    1eaa:	8f 5b       	subi	r24, 0xBF	; 191
    1eac:	9f 4f       	sbci	r25, 0xFF	; 255
    1eae:	0e 94 0d 01 	call	0x21a	; 0x21a <_ZN7ComplexC1Eff>
    1eb2:	00 e0       	ldi	r16, 0x00	; 0
    1eb4:	10 e0       	ldi	r17, 0x00	; 0
    1eb6:	98 01       	movw	r18, r16
    1eb8:	b9 01       	movw	r22, r18
    1eba:	a8 01       	movw	r20, r16
    1ebc:	ce 01       	movw	r24, r28
    1ebe:	87 5b       	subi	r24, 0xB7	; 183
    1ec0:	9f 4f       	sbci	r25, 0xFF	; 255
    1ec2:	0e 94 0d 01 	call	0x21a	; 0x21a <_ZN7ComplexC1Eff>
    1ec6:	00 e0       	ldi	r16, 0x00	; 0
    1ec8:	10 e0       	ldi	r17, 0x00	; 0
    1eca:	98 01       	movw	r18, r16
    1ecc:	b9 01       	movw	r22, r18
    1ece:	a8 01       	movw	r20, r16
    1ed0:	ce 01       	movw	r24, r28
    1ed2:	8f 5a       	subi	r24, 0xAF	; 175
    1ed4:	9f 4f       	sbci	r25, 0xFF	; 255
    1ed6:	0e 94 0d 01 	call	0x21a	; 0x21a <_ZN7ComplexC1Eff>
    1eda:	00 e0       	ldi	r16, 0x00	; 0
    1edc:	10 e0       	ldi	r17, 0x00	; 0
    1ede:	98 01       	movw	r18, r16
    1ee0:	40 e0       	ldi	r20, 0x00	; 0
    1ee2:	50 e0       	ldi	r21, 0x00	; 0
    1ee4:	60 e8       	ldi	r22, 0x80	; 128
    1ee6:	7f e3       	ldi	r23, 0x3F	; 63
    1ee8:	ce 01       	movw	r24, r28
    1eea:	87 5a       	subi	r24, 0xA7	; 167
    1eec:	9f 4f       	sbci	r25, 0xFF	; 255
    1eee:	0e 94 0d 01 	call	0x21a	; 0x21a <_ZN7ComplexC1Eff>
    1ef2:	00 e0       	ldi	r16, 0x00	; 0
    1ef4:	10 e0       	ldi	r17, 0x00	; 0
    1ef6:	98 01       	movw	r18, r16
    1ef8:	40 e0       	ldi	r20, 0x00	; 0
    1efa:	50 e0       	ldi	r21, 0x00	; 0
    1efc:	60 e8       	ldi	r22, 0x80	; 128
    1efe:	7f e3       	ldi	r23, 0x3F	; 63
    1f00:	ce 01       	movw	r24, r28
    1f02:	8f 59       	subi	r24, 0x9F	; 159
    1f04:	9f 4f       	sbci	r25, 0xFF	; 255
    1f06:	0e 94 0d 01 	call	0x21a	; 0x21a <_ZN7ComplexC1Eff>
    1f0a:	00 e0       	ldi	r16, 0x00	; 0
    1f0c:	10 e0       	ldi	r17, 0x00	; 0
    1f0e:	98 01       	movw	r18, r16
    1f10:	b9 01       	movw	r22, r18
    1f12:	a8 01       	movw	r20, r16
    1f14:	ce 01       	movw	r24, r28
    1f16:	87 59       	subi	r24, 0x97	; 151
    1f18:	9f 4f       	sbci	r25, 0xFF	; 255
    1f1a:	0e 94 0d 01 	call	0x21a	; 0x21a <_ZN7ComplexC1Eff>
    1f1e:	00 e0       	ldi	r16, 0x00	; 0
    1f20:	10 e0       	ldi	r17, 0x00	; 0
    1f22:	98 01       	movw	r18, r16
    1f24:	b9 01       	movw	r22, r18
    1f26:	a8 01       	movw	r20, r16
    1f28:	ce 01       	movw	r24, r28
    1f2a:	8f 58       	subi	r24, 0x8F	; 143
    1f2c:	9f 4f       	sbci	r25, 0xFF	; 255
    1f2e:	0e 94 0d 01 	call	0x21a	; 0x21a <_ZN7ComplexC1Eff>
    1f32:	00 e0       	ldi	r16, 0x00	; 0
    1f34:	10 e0       	ldi	r17, 0x00	; 0
    1f36:	98 01       	movw	r18, r16
    1f38:	b9 01       	movw	r22, r18
    1f3a:	a8 01       	movw	r20, r16
    1f3c:	ce 01       	movw	r24, r28
    1f3e:	87 58       	subi	r24, 0x87	; 135
    1f40:	9f 4f       	sbci	r25, 0xFF	; 255
    1f42:	0e 94 0d 01 	call	0x21a	; 0x21a <_ZN7ComplexC1Eff>
	int theta_list[QB_SIZE2]={theta1,theta2}; int phi_list[QB_SIZE2]={phi1,phi2};
    1f46:	cb 57       	subi	r28, 0x7B	; 123
    1f48:	df 4f       	sbci	r29, 0xFF	; 255
    1f4a:	79 82       	std	Y+1, r7	; 0x01
    1f4c:	68 82       	st	Y, r6
    1f4e:	c5 58       	subi	r28, 0x85	; 133
    1f50:	d0 40       	sbci	r29, 0x00	; 0
    1f52:	c9 57       	subi	r28, 0x79	; 121
    1f54:	df 4f       	sbci	r29, 0xFF	; 255
    1f56:	99 82       	std	Y+1, r9	; 0x01
    1f58:	88 82       	st	Y, r8
    1f5a:	c7 58       	subi	r28, 0x87	; 135
    1f5c:	d0 40       	sbci	r29, 0x00	; 0
    1f5e:	cf 57       	subi	r28, 0x7F	; 127
    1f60:	df 4f       	sbci	r29, 0xFF	; 255
    1f62:	b9 82       	std	Y+1, r11	; 0x01
    1f64:	a8 82       	st	Y, r10
    1f66:	c1 58       	subi	r28, 0x81	; 129
    1f68:	d0 40       	sbci	r29, 0x00	; 0
    1f6a:	cd 57       	subi	r28, 0x7D	; 125
    1f6c:	df 4f       	sbci	r29, 0xFF	; 255
    1f6e:	d9 82       	std	Y+1, r13	; 0x01
    1f70:	c8 82       	st	Y, r12
    1f72:	c3 58       	subi	r28, 0x83	; 131
    1f74:	d0 40       	sbci	r29, 0x00	; 0
	return vec2ampl(multiply4x4(ampl2vec(QB_SIZE2,theta_list,phi_list),inc_matrix),QB_SIZE2);
    1f76:	9e 01       	movw	r18, r28
    1f78:	2f 57       	subi	r18, 0x7F	; 127
    1f7a:	3f 4f       	sbci	r19, 0xFF	; 255
    1f7c:	ae 01       	movw	r20, r28
    1f7e:	4b 57       	subi	r20, 0x7B	; 123
    1f80:	5f 4f       	sbci	r21, 0xFF	; 255
    1f82:	62 e0       	ldi	r22, 0x02	; 2
    1f84:	70 e0       	ldi	r23, 0x00	; 0
    1f86:	c7 01       	movw	r24, r14
    1f88:	0e 94 be 05 	call	0xb7c	; 0xb7c <_ZN5Gates8ampl2vecEiPiS0_>
    1f8c:	ae 01       	movw	r20, r28
    1f8e:	4f 5f       	subi	r20, 0xFF	; 255
    1f90:	5f 4f       	sbci	r21, 0xFF	; 255
    1f92:	bc 01       	movw	r22, r24
    1f94:	c7 01       	movw	r24, r14
    1f96:	0e 94 18 08 	call	0x1030	; 0x1030 <_ZN5Gates11multiply4x4EP7ComplexPA4_S0_>
    1f9a:	42 e0       	ldi	r20, 0x02	; 2
    1f9c:	50 e0       	ldi	r21, 0x00	; 0
    1f9e:	bc 01       	movw	r22, r24
    1fa0:	c7 01       	movw	r24, r14
    1fa2:	0e 94 c9 06 	call	0xd92	; 0xd92 <_ZN5Gates8vec2amplEP7Complexi>
}
    1fa6:	c8 57       	subi	r28, 0x78	; 120
    1fa8:	df 4f       	sbci	r29, 0xFF	; 255
    1faa:	0f b6       	in	r0, 0x3f	; 63
    1fac:	f8 94       	cli
    1fae:	de bf       	out	0x3e, r29	; 62
    1fb0:	0f be       	out	0x3f, r0	; 63
    1fb2:	cd bf       	out	0x3d, r28	; 61
    1fb4:	df 91       	pop	r29
    1fb6:	cf 91       	pop	r28
    1fb8:	1f 91       	pop	r17
    1fba:	0f 91       	pop	r16
    1fbc:	ff 90       	pop	r15
    1fbe:	ef 90       	pop	r14
    1fc0:	df 90       	pop	r13
    1fc2:	cf 90       	pop	r12
    1fc4:	bf 90       	pop	r11
    1fc6:	af 90       	pop	r10
    1fc8:	9f 90       	pop	r9
    1fca:	8f 90       	pop	r8
    1fcc:	7f 90       	pop	r7
    1fce:	6f 90       	pop	r6
    1fd0:	08 95       	ret

00001fd2 <_ZN5Gates3DECEiiii>:
int * Gates::DEC(int theta1, int phi1, int theta2,int phi2){
    1fd2:	6f 92       	push	r6
    1fd4:	7f 92       	push	r7
    1fd6:	8f 92       	push	r8
    1fd8:	9f 92       	push	r9
    1fda:	af 92       	push	r10
    1fdc:	bf 92       	push	r11
    1fde:	cf 92       	push	r12
    1fe0:	df 92       	push	r13
    1fe2:	ef 92       	push	r14
    1fe4:	ff 92       	push	r15
    1fe6:	0f 93       	push	r16
    1fe8:	1f 93       	push	r17
    1fea:	cf 93       	push	r28
    1fec:	df 93       	push	r29
    1fee:	cd b7       	in	r28, 0x3d	; 61
    1ff0:	de b7       	in	r29, 0x3e	; 62
    1ff2:	c8 58       	subi	r28, 0x88	; 136
    1ff4:	d1 09       	sbc	r29, r1
    1ff6:	0f b6       	in	r0, 0x3f	; 63
    1ff8:	f8 94       	cli
    1ffa:	de bf       	out	0x3e, r29	; 62
    1ffc:	0f be       	out	0x3f, r0	; 63
    1ffe:	cd bf       	out	0x3d, r28	; 61
    2000:	7c 01       	movw	r14, r24
    2002:	3b 01       	movw	r6, r22
    2004:	5a 01       	movw	r10, r20
    2006:	49 01       	movw	r8, r18
    2008:	68 01       	movw	r12, r16
	Complex dec_matrix[QB2_MATRIX_SIZE][QB2_MATRIX_SIZE]{{Complex(0,0),Complex(0,0),Complex(0,0),Complex(1,0)},
													     {Complex(1,0),Complex(0,0),Complex(0,0),Complex(0,0)},
													     {Complex(0,0),Complex(1,0),Complex(0,0),Complex(0,0)},
													     {Complex(0,0),Complex(0,0),Complex(1,0),Complex(0,0)}};
    200a:	00 e0       	ldi	r16, 0x00	; 0
    200c:	10 e0       	ldi	r17, 0x00	; 0
    200e:	98 01       	movw	r18, r16
    2010:	b9 01       	movw	r22, r18
    2012:	a8 01       	movw	r20, r16
    2014:	ce 01       	movw	r24, r28
    2016:	01 96       	adiw	r24, 0x01	; 1
    2018:	0e 94 0d 01 	call	0x21a	; 0x21a <_ZN7ComplexC1Eff>
    201c:	00 e0       	ldi	r16, 0x00	; 0
    201e:	10 e0       	ldi	r17, 0x00	; 0
    2020:	98 01       	movw	r18, r16
    2022:	b9 01       	movw	r22, r18
    2024:	a8 01       	movw	r20, r16
    2026:	ce 01       	movw	r24, r28
    2028:	09 96       	adiw	r24, 0x09	; 9
    202a:	0e 94 0d 01 	call	0x21a	; 0x21a <_ZN7ComplexC1Eff>
    202e:	00 e0       	ldi	r16, 0x00	; 0
    2030:	10 e0       	ldi	r17, 0x00	; 0
    2032:	98 01       	movw	r18, r16
    2034:	b9 01       	movw	r22, r18
    2036:	a8 01       	movw	r20, r16
    2038:	ce 01       	movw	r24, r28
    203a:	41 96       	adiw	r24, 0x11	; 17
    203c:	0e 94 0d 01 	call	0x21a	; 0x21a <_ZN7ComplexC1Eff>
    2040:	00 e0       	ldi	r16, 0x00	; 0
    2042:	10 e0       	ldi	r17, 0x00	; 0
    2044:	98 01       	movw	r18, r16
    2046:	40 e0       	ldi	r20, 0x00	; 0
    2048:	50 e0       	ldi	r21, 0x00	; 0
    204a:	60 e8       	ldi	r22, 0x80	; 128
    204c:	7f e3       	ldi	r23, 0x3F	; 63
    204e:	ce 01       	movw	r24, r28
    2050:	49 96       	adiw	r24, 0x19	; 25
    2052:	0e 94 0d 01 	call	0x21a	; 0x21a <_ZN7ComplexC1Eff>
    2056:	00 e0       	ldi	r16, 0x00	; 0
    2058:	10 e0       	ldi	r17, 0x00	; 0
    205a:	98 01       	movw	r18, r16
    205c:	40 e0       	ldi	r20, 0x00	; 0
    205e:	50 e0       	ldi	r21, 0x00	; 0
    2060:	60 e8       	ldi	r22, 0x80	; 128
    2062:	7f e3       	ldi	r23, 0x3F	; 63
    2064:	ce 01       	movw	r24, r28
    2066:	81 96       	adiw	r24, 0x21	; 33
    2068:	0e 94 0d 01 	call	0x21a	; 0x21a <_ZN7ComplexC1Eff>
    206c:	00 e0       	ldi	r16, 0x00	; 0
    206e:	10 e0       	ldi	r17, 0x00	; 0
    2070:	98 01       	movw	r18, r16
    2072:	b9 01       	movw	r22, r18
    2074:	a8 01       	movw	r20, r16
    2076:	ce 01       	movw	r24, r28
    2078:	89 96       	adiw	r24, 0x29	; 41
    207a:	0e 94 0d 01 	call	0x21a	; 0x21a <_ZN7ComplexC1Eff>
    207e:	00 e0       	ldi	r16, 0x00	; 0
    2080:	10 e0       	ldi	r17, 0x00	; 0
    2082:	98 01       	movw	r18, r16
    2084:	b9 01       	movw	r22, r18
    2086:	a8 01       	movw	r20, r16
    2088:	ce 01       	movw	r24, r28
    208a:	c1 96       	adiw	r24, 0x31	; 49
    208c:	0e 94 0d 01 	call	0x21a	; 0x21a <_ZN7ComplexC1Eff>
    2090:	00 e0       	ldi	r16, 0x00	; 0
    2092:	10 e0       	ldi	r17, 0x00	; 0
    2094:	98 01       	movw	r18, r16
    2096:	b9 01       	movw	r22, r18
    2098:	a8 01       	movw	r20, r16
    209a:	ce 01       	movw	r24, r28
    209c:	c9 96       	adiw	r24, 0x39	; 57
    209e:	0e 94 0d 01 	call	0x21a	; 0x21a <_ZN7ComplexC1Eff>
    20a2:	00 e0       	ldi	r16, 0x00	; 0
    20a4:	10 e0       	ldi	r17, 0x00	; 0
    20a6:	98 01       	movw	r18, r16
    20a8:	b9 01       	movw	r22, r18
    20aa:	a8 01       	movw	r20, r16
    20ac:	ce 01       	movw	r24, r28
    20ae:	8f 5b       	subi	r24, 0xBF	; 191
    20b0:	9f 4f       	sbci	r25, 0xFF	; 255
    20b2:	0e 94 0d 01 	call	0x21a	; 0x21a <_ZN7ComplexC1Eff>
    20b6:	00 e0       	ldi	r16, 0x00	; 0
    20b8:	10 e0       	ldi	r17, 0x00	; 0
    20ba:	98 01       	movw	r18, r16
    20bc:	40 e0       	ldi	r20, 0x00	; 0
    20be:	50 e0       	ldi	r21, 0x00	; 0
    20c0:	60 e8       	ldi	r22, 0x80	; 128
    20c2:	7f e3       	ldi	r23, 0x3F	; 63
    20c4:	ce 01       	movw	r24, r28
    20c6:	87 5b       	subi	r24, 0xB7	; 183
    20c8:	9f 4f       	sbci	r25, 0xFF	; 255
    20ca:	0e 94 0d 01 	call	0x21a	; 0x21a <_ZN7ComplexC1Eff>
    20ce:	00 e0       	ldi	r16, 0x00	; 0
    20d0:	10 e0       	ldi	r17, 0x00	; 0
    20d2:	98 01       	movw	r18, r16
    20d4:	b9 01       	movw	r22, r18
    20d6:	a8 01       	movw	r20, r16
    20d8:	ce 01       	movw	r24, r28
    20da:	8f 5a       	subi	r24, 0xAF	; 175
    20dc:	9f 4f       	sbci	r25, 0xFF	; 255
    20de:	0e 94 0d 01 	call	0x21a	; 0x21a <_ZN7ComplexC1Eff>
    20e2:	00 e0       	ldi	r16, 0x00	; 0
    20e4:	10 e0       	ldi	r17, 0x00	; 0
    20e6:	98 01       	movw	r18, r16
    20e8:	b9 01       	movw	r22, r18
    20ea:	a8 01       	movw	r20, r16
    20ec:	ce 01       	movw	r24, r28
    20ee:	87 5a       	subi	r24, 0xA7	; 167
    20f0:	9f 4f       	sbci	r25, 0xFF	; 255
    20f2:	0e 94 0d 01 	call	0x21a	; 0x21a <_ZN7ComplexC1Eff>
    20f6:	00 e0       	ldi	r16, 0x00	; 0
    20f8:	10 e0       	ldi	r17, 0x00	; 0
    20fa:	98 01       	movw	r18, r16
    20fc:	b9 01       	movw	r22, r18
    20fe:	a8 01       	movw	r20, r16
    2100:	ce 01       	movw	r24, r28
    2102:	8f 59       	subi	r24, 0x9F	; 159
    2104:	9f 4f       	sbci	r25, 0xFF	; 255
    2106:	0e 94 0d 01 	call	0x21a	; 0x21a <_ZN7ComplexC1Eff>
    210a:	00 e0       	ldi	r16, 0x00	; 0
    210c:	10 e0       	ldi	r17, 0x00	; 0
    210e:	98 01       	movw	r18, r16
    2110:	b9 01       	movw	r22, r18
    2112:	a8 01       	movw	r20, r16
    2114:	ce 01       	movw	r24, r28
    2116:	87 59       	subi	r24, 0x97	; 151
    2118:	9f 4f       	sbci	r25, 0xFF	; 255
    211a:	0e 94 0d 01 	call	0x21a	; 0x21a <_ZN7ComplexC1Eff>
    211e:	00 e0       	ldi	r16, 0x00	; 0
    2120:	10 e0       	ldi	r17, 0x00	; 0
    2122:	98 01       	movw	r18, r16
    2124:	40 e0       	ldi	r20, 0x00	; 0
    2126:	50 e0       	ldi	r21, 0x00	; 0
    2128:	60 e8       	ldi	r22, 0x80	; 128
    212a:	7f e3       	ldi	r23, 0x3F	; 63
    212c:	ce 01       	movw	r24, r28
    212e:	8f 58       	subi	r24, 0x8F	; 143
    2130:	9f 4f       	sbci	r25, 0xFF	; 255
    2132:	0e 94 0d 01 	call	0x21a	; 0x21a <_ZN7ComplexC1Eff>
    2136:	00 e0       	ldi	r16, 0x00	; 0
    2138:	10 e0       	ldi	r17, 0x00	; 0
    213a:	98 01       	movw	r18, r16
    213c:	b9 01       	movw	r22, r18
    213e:	a8 01       	movw	r20, r16
    2140:	ce 01       	movw	r24, r28
    2142:	87 58       	subi	r24, 0x87	; 135
    2144:	9f 4f       	sbci	r25, 0xFF	; 255
    2146:	0e 94 0d 01 	call	0x21a	; 0x21a <_ZN7ComplexC1Eff>
	int theta_list[QB_SIZE2]={theta1,theta2}; int phi_list[QB_SIZE2]={phi1,phi2};
    214a:	cb 57       	subi	r28, 0x7B	; 123
    214c:	df 4f       	sbci	r29, 0xFF	; 255
    214e:	79 82       	std	Y+1, r7	; 0x01
    2150:	68 82       	st	Y, r6
    2152:	c5 58       	subi	r28, 0x85	; 133
    2154:	d0 40       	sbci	r29, 0x00	; 0
    2156:	c9 57       	subi	r28, 0x79	; 121
    2158:	df 4f       	sbci	r29, 0xFF	; 255
    215a:	99 82       	std	Y+1, r9	; 0x01
    215c:	88 82       	st	Y, r8
    215e:	c7 58       	subi	r28, 0x87	; 135
    2160:	d0 40       	sbci	r29, 0x00	; 0
    2162:	cf 57       	subi	r28, 0x7F	; 127
    2164:	df 4f       	sbci	r29, 0xFF	; 255
    2166:	b9 82       	std	Y+1, r11	; 0x01
    2168:	a8 82       	st	Y, r10
    216a:	c1 58       	subi	r28, 0x81	; 129
    216c:	d0 40       	sbci	r29, 0x00	; 0
    216e:	cd 57       	subi	r28, 0x7D	; 125
    2170:	df 4f       	sbci	r29, 0xFF	; 255
    2172:	d9 82       	std	Y+1, r13	; 0x01
    2174:	c8 82       	st	Y, r12
    2176:	c3 58       	subi	r28, 0x83	; 131
    2178:	d0 40       	sbci	r29, 0x00	; 0
	return vec2ampl(multiply4x4(ampl2vec(QB_SIZE2,theta_list,phi_list),dec_matrix),QB_SIZE2);
    217a:	9e 01       	movw	r18, r28
    217c:	2f 57       	subi	r18, 0x7F	; 127
    217e:	3f 4f       	sbci	r19, 0xFF	; 255
    2180:	ae 01       	movw	r20, r28
    2182:	4b 57       	subi	r20, 0x7B	; 123
    2184:	5f 4f       	sbci	r21, 0xFF	; 255
    2186:	62 e0       	ldi	r22, 0x02	; 2
    2188:	70 e0       	ldi	r23, 0x00	; 0
    218a:	c7 01       	movw	r24, r14
    218c:	0e 94 be 05 	call	0xb7c	; 0xb7c <_ZN5Gates8ampl2vecEiPiS0_>
    2190:	ae 01       	movw	r20, r28
    2192:	4f 5f       	subi	r20, 0xFF	; 255
    2194:	5f 4f       	sbci	r21, 0xFF	; 255
    2196:	bc 01       	movw	r22, r24
    2198:	c7 01       	movw	r24, r14
    219a:	0e 94 18 08 	call	0x1030	; 0x1030 <_ZN5Gates11multiply4x4EP7ComplexPA4_S0_>
    219e:	42 e0       	ldi	r20, 0x02	; 2
    21a0:	50 e0       	ldi	r21, 0x00	; 0
    21a2:	bc 01       	movw	r22, r24
    21a4:	c7 01       	movw	r24, r14
    21a6:	0e 94 c9 06 	call	0xd92	; 0xd92 <_ZN5Gates8vec2amplEP7Complexi>
}
    21aa:	c8 57       	subi	r28, 0x78	; 120
    21ac:	df 4f       	sbci	r29, 0xFF	; 255
    21ae:	0f b6       	in	r0, 0x3f	; 63
    21b0:	f8 94       	cli
    21b2:	de bf       	out	0x3e, r29	; 62
    21b4:	0f be       	out	0x3f, r0	; 63
    21b6:	cd bf       	out	0x3d, r28	; 61
    21b8:	df 91       	pop	r29
    21ba:	cf 91       	pop	r28
    21bc:	1f 91       	pop	r17
    21be:	0f 91       	pop	r16
    21c0:	ff 90       	pop	r15
    21c2:	ef 90       	pop	r14
    21c4:	df 90       	pop	r13
    21c6:	cf 90       	pop	r12
    21c8:	bf 90       	pop	r11
    21ca:	af 90       	pop	r10
    21cc:	9f 90       	pop	r9
    21ce:	8f 90       	pop	r8
    21d0:	7f 90       	pop	r7
    21d2:	6f 90       	pop	r6
    21d4:	08 95       	ret

000021d6 <_ZN5Gates3SWQEiiii>:
int * Gates::SWQ(int theta1, int phi1, int theta2,int phi2){
    21d6:	6f 92       	push	r6
    21d8:	7f 92       	push	r7
    21da:	8f 92       	push	r8
    21dc:	9f 92       	push	r9
    21de:	af 92       	push	r10
    21e0:	bf 92       	push	r11
    21e2:	cf 92       	push	r12
    21e4:	df 92       	push	r13
    21e6:	ef 92       	push	r14
    21e8:	ff 92       	push	r15
    21ea:	0f 93       	push	r16
    21ec:	1f 93       	push	r17
    21ee:	cf 93       	push	r28
    21f0:	df 93       	push	r29
    21f2:	cd b7       	in	r28, 0x3d	; 61
    21f4:	de b7       	in	r29, 0x3e	; 62
    21f6:	c8 58       	subi	r28, 0x88	; 136
    21f8:	d1 09       	sbc	r29, r1
    21fa:	0f b6       	in	r0, 0x3f	; 63
    21fc:	f8 94       	cli
    21fe:	de bf       	out	0x3e, r29	; 62
    2200:	0f be       	out	0x3f, r0	; 63
    2202:	cd bf       	out	0x3d, r28	; 61
    2204:	7c 01       	movw	r14, r24
    2206:	3b 01       	movw	r6, r22
    2208:	5a 01       	movw	r10, r20
    220a:	49 01       	movw	r8, r18
    220c:	68 01       	movw	r12, r16
	Complex swq_matrix[QB2_MATRIX_SIZE][QB2_MATRIX_SIZE]{{Complex(1,0),Complex(0,0),   Complex(0,0),   Complex(0,0)},
	 												     {Complex(0,0),Complex(.5,.5), Complex(.5,-.5),Complex(0,0)},
													     {Complex(0,0),Complex(.5,-.5),Complex(.5,.5), Complex(0,0)},
													     {Complex(0,0),Complex(0,0),   Complex(0,0),   Complex(1,0)}};
    220e:	00 e0       	ldi	r16, 0x00	; 0
    2210:	10 e0       	ldi	r17, 0x00	; 0
    2212:	98 01       	movw	r18, r16
    2214:	40 e0       	ldi	r20, 0x00	; 0
    2216:	50 e0       	ldi	r21, 0x00	; 0
    2218:	60 e8       	ldi	r22, 0x80	; 128
    221a:	7f e3       	ldi	r23, 0x3F	; 63
    221c:	ce 01       	movw	r24, r28
    221e:	01 96       	adiw	r24, 0x01	; 1
    2220:	0e 94 0d 01 	call	0x21a	; 0x21a <_ZN7ComplexC1Eff>
    2224:	00 e0       	ldi	r16, 0x00	; 0
    2226:	10 e0       	ldi	r17, 0x00	; 0
    2228:	98 01       	movw	r18, r16
    222a:	b9 01       	movw	r22, r18
    222c:	a8 01       	movw	r20, r16
    222e:	ce 01       	movw	r24, r28
    2230:	09 96       	adiw	r24, 0x09	; 9
    2232:	0e 94 0d 01 	call	0x21a	; 0x21a <_ZN7ComplexC1Eff>
    2236:	00 e0       	ldi	r16, 0x00	; 0
    2238:	10 e0       	ldi	r17, 0x00	; 0
    223a:	98 01       	movw	r18, r16
    223c:	b9 01       	movw	r22, r18
    223e:	a8 01       	movw	r20, r16
    2240:	ce 01       	movw	r24, r28
    2242:	41 96       	adiw	r24, 0x11	; 17
    2244:	0e 94 0d 01 	call	0x21a	; 0x21a <_ZN7ComplexC1Eff>
    2248:	00 e0       	ldi	r16, 0x00	; 0
    224a:	10 e0       	ldi	r17, 0x00	; 0
    224c:	98 01       	movw	r18, r16
    224e:	b9 01       	movw	r22, r18
    2250:	a8 01       	movw	r20, r16
    2252:	ce 01       	movw	r24, r28
    2254:	49 96       	adiw	r24, 0x19	; 25
    2256:	0e 94 0d 01 	call	0x21a	; 0x21a <_ZN7ComplexC1Eff>
    225a:	00 e0       	ldi	r16, 0x00	; 0
    225c:	10 e0       	ldi	r17, 0x00	; 0
    225e:	98 01       	movw	r18, r16
    2260:	b9 01       	movw	r22, r18
    2262:	a8 01       	movw	r20, r16
    2264:	ce 01       	movw	r24, r28
    2266:	81 96       	adiw	r24, 0x21	; 33
    2268:	0e 94 0d 01 	call	0x21a	; 0x21a <_ZN7ComplexC1Eff>
    226c:	00 e0       	ldi	r16, 0x00	; 0
    226e:	10 e0       	ldi	r17, 0x00	; 0
    2270:	20 e0       	ldi	r18, 0x00	; 0
    2272:	3f e3       	ldi	r19, 0x3F	; 63
    2274:	b9 01       	movw	r22, r18
    2276:	a8 01       	movw	r20, r16
    2278:	ce 01       	movw	r24, r28
    227a:	89 96       	adiw	r24, 0x29	; 41
    227c:	0e 94 0d 01 	call	0x21a	; 0x21a <_ZN7ComplexC1Eff>
    2280:	00 e0       	ldi	r16, 0x00	; 0
    2282:	10 e0       	ldi	r17, 0x00	; 0
    2284:	20 e0       	ldi	r18, 0x00	; 0
    2286:	3f eb       	ldi	r19, 0xBF	; 191
    2288:	40 e0       	ldi	r20, 0x00	; 0
    228a:	50 e0       	ldi	r21, 0x00	; 0
    228c:	60 e0       	ldi	r22, 0x00	; 0
    228e:	7f e3       	ldi	r23, 0x3F	; 63
    2290:	ce 01       	movw	r24, r28
    2292:	c1 96       	adiw	r24, 0x31	; 49
    2294:	0e 94 0d 01 	call	0x21a	; 0x21a <_ZN7ComplexC1Eff>
    2298:	00 e0       	ldi	r16, 0x00	; 0
    229a:	10 e0       	ldi	r17, 0x00	; 0
    229c:	98 01       	movw	r18, r16
    229e:	b9 01       	movw	r22, r18
    22a0:	a8 01       	movw	r20, r16
    22a2:	ce 01       	movw	r24, r28
    22a4:	c9 96       	adiw	r24, 0x39	; 57
    22a6:	0e 94 0d 01 	call	0x21a	; 0x21a <_ZN7ComplexC1Eff>
    22aa:	00 e0       	ldi	r16, 0x00	; 0
    22ac:	10 e0       	ldi	r17, 0x00	; 0
    22ae:	98 01       	movw	r18, r16
    22b0:	b9 01       	movw	r22, r18
    22b2:	a8 01       	movw	r20, r16
    22b4:	ce 01       	movw	r24, r28
    22b6:	8f 5b       	subi	r24, 0xBF	; 191
    22b8:	9f 4f       	sbci	r25, 0xFF	; 255
    22ba:	0e 94 0d 01 	call	0x21a	; 0x21a <_ZN7ComplexC1Eff>
    22be:	00 e0       	ldi	r16, 0x00	; 0
    22c0:	10 e0       	ldi	r17, 0x00	; 0
    22c2:	20 e0       	ldi	r18, 0x00	; 0
    22c4:	3f eb       	ldi	r19, 0xBF	; 191
    22c6:	40 e0       	ldi	r20, 0x00	; 0
    22c8:	50 e0       	ldi	r21, 0x00	; 0
    22ca:	60 e0       	ldi	r22, 0x00	; 0
    22cc:	7f e3       	ldi	r23, 0x3F	; 63
    22ce:	ce 01       	movw	r24, r28
    22d0:	87 5b       	subi	r24, 0xB7	; 183
    22d2:	9f 4f       	sbci	r25, 0xFF	; 255
    22d4:	0e 94 0d 01 	call	0x21a	; 0x21a <_ZN7ComplexC1Eff>
    22d8:	00 e0       	ldi	r16, 0x00	; 0
    22da:	10 e0       	ldi	r17, 0x00	; 0
    22dc:	20 e0       	ldi	r18, 0x00	; 0
    22de:	3f e3       	ldi	r19, 0x3F	; 63
    22e0:	b9 01       	movw	r22, r18
    22e2:	a8 01       	movw	r20, r16
    22e4:	ce 01       	movw	r24, r28
    22e6:	8f 5a       	subi	r24, 0xAF	; 175
    22e8:	9f 4f       	sbci	r25, 0xFF	; 255
    22ea:	0e 94 0d 01 	call	0x21a	; 0x21a <_ZN7ComplexC1Eff>
    22ee:	00 e0       	ldi	r16, 0x00	; 0
    22f0:	10 e0       	ldi	r17, 0x00	; 0
    22f2:	98 01       	movw	r18, r16
    22f4:	b9 01       	movw	r22, r18
    22f6:	a8 01       	movw	r20, r16
    22f8:	ce 01       	movw	r24, r28
    22fa:	87 5a       	subi	r24, 0xA7	; 167
    22fc:	9f 4f       	sbci	r25, 0xFF	; 255
    22fe:	0e 94 0d 01 	call	0x21a	; 0x21a <_ZN7ComplexC1Eff>
    2302:	00 e0       	ldi	r16, 0x00	; 0
    2304:	10 e0       	ldi	r17, 0x00	; 0
    2306:	98 01       	movw	r18, r16
    2308:	b9 01       	movw	r22, r18
    230a:	a8 01       	movw	r20, r16
    230c:	ce 01       	movw	r24, r28
    230e:	8f 59       	subi	r24, 0x9F	; 159
    2310:	9f 4f       	sbci	r25, 0xFF	; 255
    2312:	0e 94 0d 01 	call	0x21a	; 0x21a <_ZN7ComplexC1Eff>
    2316:	00 e0       	ldi	r16, 0x00	; 0
    2318:	10 e0       	ldi	r17, 0x00	; 0
    231a:	98 01       	movw	r18, r16
    231c:	b9 01       	movw	r22, r18
    231e:	a8 01       	movw	r20, r16
    2320:	ce 01       	movw	r24, r28
    2322:	87 59       	subi	r24, 0x97	; 151
    2324:	9f 4f       	sbci	r25, 0xFF	; 255
    2326:	0e 94 0d 01 	call	0x21a	; 0x21a <_ZN7ComplexC1Eff>
    232a:	00 e0       	ldi	r16, 0x00	; 0
    232c:	10 e0       	ldi	r17, 0x00	; 0
    232e:	98 01       	movw	r18, r16
    2330:	b9 01       	movw	r22, r18
    2332:	a8 01       	movw	r20, r16
    2334:	ce 01       	movw	r24, r28
    2336:	8f 58       	subi	r24, 0x8F	; 143
    2338:	9f 4f       	sbci	r25, 0xFF	; 255
    233a:	0e 94 0d 01 	call	0x21a	; 0x21a <_ZN7ComplexC1Eff>
    233e:	00 e0       	ldi	r16, 0x00	; 0
    2340:	10 e0       	ldi	r17, 0x00	; 0
    2342:	98 01       	movw	r18, r16
    2344:	40 e0       	ldi	r20, 0x00	; 0
    2346:	50 e0       	ldi	r21, 0x00	; 0
    2348:	60 e8       	ldi	r22, 0x80	; 128
    234a:	7f e3       	ldi	r23, 0x3F	; 63
    234c:	ce 01       	movw	r24, r28
    234e:	87 58       	subi	r24, 0x87	; 135
    2350:	9f 4f       	sbci	r25, 0xFF	; 255
    2352:	0e 94 0d 01 	call	0x21a	; 0x21a <_ZN7ComplexC1Eff>
	int theta_list[QB_SIZE2]={theta1,theta2}; int phi_list[QB_SIZE2]={phi1,phi2};
    2356:	cb 57       	subi	r28, 0x7B	; 123
    2358:	df 4f       	sbci	r29, 0xFF	; 255
    235a:	79 82       	std	Y+1, r7	; 0x01
    235c:	68 82       	st	Y, r6
    235e:	c5 58       	subi	r28, 0x85	; 133
    2360:	d0 40       	sbci	r29, 0x00	; 0
    2362:	c9 57       	subi	r28, 0x79	; 121
    2364:	df 4f       	sbci	r29, 0xFF	; 255
    2366:	99 82       	std	Y+1, r9	; 0x01
    2368:	88 82       	st	Y, r8
    236a:	c7 58       	subi	r28, 0x87	; 135
    236c:	d0 40       	sbci	r29, 0x00	; 0
    236e:	cf 57       	subi	r28, 0x7F	; 127
    2370:	df 4f       	sbci	r29, 0xFF	; 255
    2372:	b9 82       	std	Y+1, r11	; 0x01
    2374:	a8 82       	st	Y, r10
    2376:	c1 58       	subi	r28, 0x81	; 129
    2378:	d0 40       	sbci	r29, 0x00	; 0
    237a:	cd 57       	subi	r28, 0x7D	; 125
    237c:	df 4f       	sbci	r29, 0xFF	; 255
    237e:	d9 82       	std	Y+1, r13	; 0x01
    2380:	c8 82       	st	Y, r12
    2382:	c3 58       	subi	r28, 0x83	; 131
    2384:	d0 40       	sbci	r29, 0x00	; 0
	return vec2ampl(multiply4x4(ampl2vec(QB_SIZE2,theta_list,phi_list),swq_matrix),QB_SIZE2);
    2386:	9e 01       	movw	r18, r28
    2388:	2f 57       	subi	r18, 0x7F	; 127
    238a:	3f 4f       	sbci	r19, 0xFF	; 255
    238c:	ae 01       	movw	r20, r28
    238e:	4b 57       	subi	r20, 0x7B	; 123
    2390:	5f 4f       	sbci	r21, 0xFF	; 255
    2392:	62 e0       	ldi	r22, 0x02	; 2
    2394:	70 e0       	ldi	r23, 0x00	; 0
    2396:	c7 01       	movw	r24, r14
    2398:	0e 94 be 05 	call	0xb7c	; 0xb7c <_ZN5Gates8ampl2vecEiPiS0_>
    239c:	ae 01       	movw	r20, r28
    239e:	4f 5f       	subi	r20, 0xFF	; 255
    23a0:	5f 4f       	sbci	r21, 0xFF	; 255
    23a2:	bc 01       	movw	r22, r24
    23a4:	c7 01       	movw	r24, r14
    23a6:	0e 94 18 08 	call	0x1030	; 0x1030 <_ZN5Gates11multiply4x4EP7ComplexPA4_S0_>
    23aa:	42 e0       	ldi	r20, 0x02	; 2
    23ac:	50 e0       	ldi	r21, 0x00	; 0
    23ae:	bc 01       	movw	r22, r24
    23b0:	c7 01       	movw	r24, r14
    23b2:	0e 94 c9 06 	call	0xd92	; 0xd92 <_ZN5Gates8vec2amplEP7Complexi>
}
    23b6:	c8 57       	subi	r28, 0x78	; 120
    23b8:	df 4f       	sbci	r29, 0xFF	; 255
    23ba:	0f b6       	in	r0, 0x3f	; 63
    23bc:	f8 94       	cli
    23be:	de bf       	out	0x3e, r29	; 62
    23c0:	0f be       	out	0x3f, r0	; 63
    23c2:	cd bf       	out	0x3d, r28	; 61
    23c4:	df 91       	pop	r29
    23c6:	cf 91       	pop	r28
    23c8:	1f 91       	pop	r17
    23ca:	0f 91       	pop	r16
    23cc:	ff 90       	pop	r15
    23ce:	ef 90       	pop	r14
    23d0:	df 90       	pop	r13
    23d2:	cf 90       	pop	r12
    23d4:	bf 90       	pop	r11
    23d6:	af 90       	pop	r10
    23d8:	9f 90       	pop	r9
    23da:	8f 90       	pop	r8
    23dc:	7f 90       	pop	r7
    23de:	6f 90       	pop	r6
    23e0:	08 95       	ret

000023e2 <_ZN5Gates3SWIEiiii>:
int * Gates::SWI(int theta1, int phi1, int theta2,int phi2){
    23e2:	6f 92       	push	r6
    23e4:	7f 92       	push	r7
    23e6:	8f 92       	push	r8
    23e8:	9f 92       	push	r9
    23ea:	af 92       	push	r10
    23ec:	bf 92       	push	r11
    23ee:	cf 92       	push	r12
    23f0:	df 92       	push	r13
    23f2:	ef 92       	push	r14
    23f4:	ff 92       	push	r15
    23f6:	0f 93       	push	r16
    23f8:	1f 93       	push	r17
    23fa:	cf 93       	push	r28
    23fc:	df 93       	push	r29
    23fe:	cd b7       	in	r28, 0x3d	; 61
    2400:	de b7       	in	r29, 0x3e	; 62
    2402:	c8 58       	subi	r28, 0x88	; 136
    2404:	d1 09       	sbc	r29, r1
    2406:	0f b6       	in	r0, 0x3f	; 63
    2408:	f8 94       	cli
    240a:	de bf       	out	0x3e, r29	; 62
    240c:	0f be       	out	0x3f, r0	; 63
    240e:	cd bf       	out	0x3d, r28	; 61
    2410:	7c 01       	movw	r14, r24
    2412:	3b 01       	movw	r6, r22
    2414:	5a 01       	movw	r10, r20
    2416:	49 01       	movw	r8, r18
    2418:	68 01       	movw	r12, r16
	Complex dec_matrix[QB2_MATRIX_SIZE][QB2_MATRIX_SIZE]{{Complex(1,0),Complex(0,0),Complex(0,0),Complex(0,0)},
													     {Complex(0,0),Complex(0,0),Complex(0,1),Complex(0,0)},
 													     {Complex(0,0),Complex(0,1),Complex(0,0),Complex(0,0)},
													     {Complex(0,0),Complex(0,0),Complex(0,0),Complex(1,0)}};
    241a:	00 e0       	ldi	r16, 0x00	; 0
    241c:	10 e0       	ldi	r17, 0x00	; 0
    241e:	98 01       	movw	r18, r16
    2420:	40 e0       	ldi	r20, 0x00	; 0
    2422:	50 e0       	ldi	r21, 0x00	; 0
    2424:	60 e8       	ldi	r22, 0x80	; 128
    2426:	7f e3       	ldi	r23, 0x3F	; 63
    2428:	ce 01       	movw	r24, r28
    242a:	01 96       	adiw	r24, 0x01	; 1
    242c:	0e 94 0d 01 	call	0x21a	; 0x21a <_ZN7ComplexC1Eff>
    2430:	00 e0       	ldi	r16, 0x00	; 0
    2432:	10 e0       	ldi	r17, 0x00	; 0
    2434:	98 01       	movw	r18, r16
    2436:	b9 01       	movw	r22, r18
    2438:	a8 01       	movw	r20, r16
    243a:	ce 01       	movw	r24, r28
    243c:	09 96       	adiw	r24, 0x09	; 9
    243e:	0e 94 0d 01 	call	0x21a	; 0x21a <_ZN7ComplexC1Eff>
    2442:	00 e0       	ldi	r16, 0x00	; 0
    2444:	10 e0       	ldi	r17, 0x00	; 0
    2446:	98 01       	movw	r18, r16
    2448:	b9 01       	movw	r22, r18
    244a:	a8 01       	movw	r20, r16
    244c:	ce 01       	movw	r24, r28
    244e:	41 96       	adiw	r24, 0x11	; 17
    2450:	0e 94 0d 01 	call	0x21a	; 0x21a <_ZN7ComplexC1Eff>
    2454:	00 e0       	ldi	r16, 0x00	; 0
    2456:	10 e0       	ldi	r17, 0x00	; 0
    2458:	98 01       	movw	r18, r16
    245a:	b9 01       	movw	r22, r18
    245c:	a8 01       	movw	r20, r16
    245e:	ce 01       	movw	r24, r28
    2460:	49 96       	adiw	r24, 0x19	; 25
    2462:	0e 94 0d 01 	call	0x21a	; 0x21a <_ZN7ComplexC1Eff>
    2466:	00 e0       	ldi	r16, 0x00	; 0
    2468:	10 e0       	ldi	r17, 0x00	; 0
    246a:	98 01       	movw	r18, r16
    246c:	b9 01       	movw	r22, r18
    246e:	a8 01       	movw	r20, r16
    2470:	ce 01       	movw	r24, r28
    2472:	81 96       	adiw	r24, 0x21	; 33
    2474:	0e 94 0d 01 	call	0x21a	; 0x21a <_ZN7ComplexC1Eff>
    2478:	00 e0       	ldi	r16, 0x00	; 0
    247a:	10 e0       	ldi	r17, 0x00	; 0
    247c:	98 01       	movw	r18, r16
    247e:	b9 01       	movw	r22, r18
    2480:	a8 01       	movw	r20, r16
    2482:	ce 01       	movw	r24, r28
    2484:	89 96       	adiw	r24, 0x29	; 41
    2486:	0e 94 0d 01 	call	0x21a	; 0x21a <_ZN7ComplexC1Eff>
    248a:	00 e0       	ldi	r16, 0x00	; 0
    248c:	10 e0       	ldi	r17, 0x00	; 0
    248e:	20 e8       	ldi	r18, 0x80	; 128
    2490:	3f e3       	ldi	r19, 0x3F	; 63
    2492:	40 e0       	ldi	r20, 0x00	; 0
    2494:	50 e0       	ldi	r21, 0x00	; 0
    2496:	ba 01       	movw	r22, r20
    2498:	ce 01       	movw	r24, r28
    249a:	c1 96       	adiw	r24, 0x31	; 49
    249c:	0e 94 0d 01 	call	0x21a	; 0x21a <_ZN7ComplexC1Eff>
    24a0:	00 e0       	ldi	r16, 0x00	; 0
    24a2:	10 e0       	ldi	r17, 0x00	; 0
    24a4:	98 01       	movw	r18, r16
    24a6:	b9 01       	movw	r22, r18
    24a8:	a8 01       	movw	r20, r16
    24aa:	ce 01       	movw	r24, r28
    24ac:	c9 96       	adiw	r24, 0x39	; 57
    24ae:	0e 94 0d 01 	call	0x21a	; 0x21a <_ZN7ComplexC1Eff>
    24b2:	00 e0       	ldi	r16, 0x00	; 0
    24b4:	10 e0       	ldi	r17, 0x00	; 0
    24b6:	98 01       	movw	r18, r16
    24b8:	b9 01       	movw	r22, r18
    24ba:	a8 01       	movw	r20, r16
    24bc:	ce 01       	movw	r24, r28
    24be:	8f 5b       	subi	r24, 0xBF	; 191
    24c0:	9f 4f       	sbci	r25, 0xFF	; 255
    24c2:	0e 94 0d 01 	call	0x21a	; 0x21a <_ZN7ComplexC1Eff>
    24c6:	00 e0       	ldi	r16, 0x00	; 0
    24c8:	10 e0       	ldi	r17, 0x00	; 0
    24ca:	20 e8       	ldi	r18, 0x80	; 128
    24cc:	3f e3       	ldi	r19, 0x3F	; 63
    24ce:	40 e0       	ldi	r20, 0x00	; 0
    24d0:	50 e0       	ldi	r21, 0x00	; 0
    24d2:	ba 01       	movw	r22, r20
    24d4:	ce 01       	movw	r24, r28
    24d6:	87 5b       	subi	r24, 0xB7	; 183
    24d8:	9f 4f       	sbci	r25, 0xFF	; 255
    24da:	0e 94 0d 01 	call	0x21a	; 0x21a <_ZN7ComplexC1Eff>
    24de:	00 e0       	ldi	r16, 0x00	; 0
    24e0:	10 e0       	ldi	r17, 0x00	; 0
    24e2:	98 01       	movw	r18, r16
    24e4:	b9 01       	movw	r22, r18
    24e6:	a8 01       	movw	r20, r16
    24e8:	ce 01       	movw	r24, r28
    24ea:	8f 5a       	subi	r24, 0xAF	; 175
    24ec:	9f 4f       	sbci	r25, 0xFF	; 255
    24ee:	0e 94 0d 01 	call	0x21a	; 0x21a <_ZN7ComplexC1Eff>
    24f2:	00 e0       	ldi	r16, 0x00	; 0
    24f4:	10 e0       	ldi	r17, 0x00	; 0
    24f6:	98 01       	movw	r18, r16
    24f8:	b9 01       	movw	r22, r18
    24fa:	a8 01       	movw	r20, r16
    24fc:	ce 01       	movw	r24, r28
    24fe:	87 5a       	subi	r24, 0xA7	; 167
    2500:	9f 4f       	sbci	r25, 0xFF	; 255
    2502:	0e 94 0d 01 	call	0x21a	; 0x21a <_ZN7ComplexC1Eff>
    2506:	00 e0       	ldi	r16, 0x00	; 0
    2508:	10 e0       	ldi	r17, 0x00	; 0
    250a:	98 01       	movw	r18, r16
    250c:	b9 01       	movw	r22, r18
    250e:	a8 01       	movw	r20, r16
    2510:	ce 01       	movw	r24, r28
    2512:	8f 59       	subi	r24, 0x9F	; 159
    2514:	9f 4f       	sbci	r25, 0xFF	; 255
    2516:	0e 94 0d 01 	call	0x21a	; 0x21a <_ZN7ComplexC1Eff>
    251a:	00 e0       	ldi	r16, 0x00	; 0
    251c:	10 e0       	ldi	r17, 0x00	; 0
    251e:	98 01       	movw	r18, r16
    2520:	b9 01       	movw	r22, r18
    2522:	a8 01       	movw	r20, r16
    2524:	ce 01       	movw	r24, r28
    2526:	87 59       	subi	r24, 0x97	; 151
    2528:	9f 4f       	sbci	r25, 0xFF	; 255
    252a:	0e 94 0d 01 	call	0x21a	; 0x21a <_ZN7ComplexC1Eff>
    252e:	00 e0       	ldi	r16, 0x00	; 0
    2530:	10 e0       	ldi	r17, 0x00	; 0
    2532:	98 01       	movw	r18, r16
    2534:	b9 01       	movw	r22, r18
    2536:	a8 01       	movw	r20, r16
    2538:	ce 01       	movw	r24, r28
    253a:	8f 58       	subi	r24, 0x8F	; 143
    253c:	9f 4f       	sbci	r25, 0xFF	; 255
    253e:	0e 94 0d 01 	call	0x21a	; 0x21a <_ZN7ComplexC1Eff>
    2542:	00 e0       	ldi	r16, 0x00	; 0
    2544:	10 e0       	ldi	r17, 0x00	; 0
    2546:	98 01       	movw	r18, r16
    2548:	40 e0       	ldi	r20, 0x00	; 0
    254a:	50 e0       	ldi	r21, 0x00	; 0
    254c:	60 e8       	ldi	r22, 0x80	; 128
    254e:	7f e3       	ldi	r23, 0x3F	; 63
    2550:	ce 01       	movw	r24, r28
    2552:	87 58       	subi	r24, 0x87	; 135
    2554:	9f 4f       	sbci	r25, 0xFF	; 255
    2556:	0e 94 0d 01 	call	0x21a	; 0x21a <_ZN7ComplexC1Eff>
	int theta_list[QB_SIZE2]={theta1,theta2}; int phi_list[QB_SIZE2]={phi1,phi2};
    255a:	cb 57       	subi	r28, 0x7B	; 123
    255c:	df 4f       	sbci	r29, 0xFF	; 255
    255e:	79 82       	std	Y+1, r7	; 0x01
    2560:	68 82       	st	Y, r6
    2562:	c5 58       	subi	r28, 0x85	; 133
    2564:	d0 40       	sbci	r29, 0x00	; 0
    2566:	c9 57       	subi	r28, 0x79	; 121
    2568:	df 4f       	sbci	r29, 0xFF	; 255
    256a:	99 82       	std	Y+1, r9	; 0x01
    256c:	88 82       	st	Y, r8
    256e:	c7 58       	subi	r28, 0x87	; 135
    2570:	d0 40       	sbci	r29, 0x00	; 0
    2572:	cf 57       	subi	r28, 0x7F	; 127
    2574:	df 4f       	sbci	r29, 0xFF	; 255
    2576:	b9 82       	std	Y+1, r11	; 0x01
    2578:	a8 82       	st	Y, r10
    257a:	c1 58       	subi	r28, 0x81	; 129
    257c:	d0 40       	sbci	r29, 0x00	; 0
    257e:	cd 57       	subi	r28, 0x7D	; 125
    2580:	df 4f       	sbci	r29, 0xFF	; 255
    2582:	d9 82       	std	Y+1, r13	; 0x01
    2584:	c8 82       	st	Y, r12
    2586:	c3 58       	subi	r28, 0x83	; 131
    2588:	d0 40       	sbci	r29, 0x00	; 0
	return vec2ampl(multiply4x4(ampl2vec(QB_SIZE2,theta_list,phi_list),dec_matrix),QB_SIZE2);
    258a:	9e 01       	movw	r18, r28
    258c:	2f 57       	subi	r18, 0x7F	; 127
    258e:	3f 4f       	sbci	r19, 0xFF	; 255
    2590:	ae 01       	movw	r20, r28
    2592:	4b 57       	subi	r20, 0x7B	; 123
    2594:	5f 4f       	sbci	r21, 0xFF	; 255
    2596:	62 e0       	ldi	r22, 0x02	; 2
    2598:	70 e0       	ldi	r23, 0x00	; 0
    259a:	c7 01       	movw	r24, r14
    259c:	0e 94 be 05 	call	0xb7c	; 0xb7c <_ZN5Gates8ampl2vecEiPiS0_>
    25a0:	ae 01       	movw	r20, r28
    25a2:	4f 5f       	subi	r20, 0xFF	; 255
    25a4:	5f 4f       	sbci	r21, 0xFF	; 255
    25a6:	bc 01       	movw	r22, r24
    25a8:	c7 01       	movw	r24, r14
    25aa:	0e 94 18 08 	call	0x1030	; 0x1030 <_ZN5Gates11multiply4x4EP7ComplexPA4_S0_>
    25ae:	42 e0       	ldi	r20, 0x02	; 2
    25b0:	50 e0       	ldi	r21, 0x00	; 0
    25b2:	bc 01       	movw	r22, r24
    25b4:	c7 01       	movw	r24, r14
    25b6:	0e 94 c9 06 	call	0xd92	; 0xd92 <_ZN5Gates8vec2amplEP7Complexi>
}
    25ba:	c8 57       	subi	r28, 0x78	; 120
    25bc:	df 4f       	sbci	r29, 0xFF	; 255
    25be:	0f b6       	in	r0, 0x3f	; 63
    25c0:	f8 94       	cli
    25c2:	de bf       	out	0x3e, r29	; 62
    25c4:	0f be       	out	0x3f, r0	; 63
    25c6:	cd bf       	out	0x3d, r28	; 61
    25c8:	df 91       	pop	r29
    25ca:	cf 91       	pop	r28
    25cc:	1f 91       	pop	r17
    25ce:	0f 91       	pop	r16
    25d0:	ff 90       	pop	r15
    25d2:	ef 90       	pop	r14
    25d4:	df 90       	pop	r13
    25d6:	cf 90       	pop	r12
    25d8:	bf 90       	pop	r11
    25da:	af 90       	pop	r10
    25dc:	9f 90       	pop	r9
    25de:	8f 90       	pop	r8
    25e0:	7f 90       	pop	r7
    25e2:	6f 90       	pop	r6
    25e4:	08 95       	ret

000025e6 <_ZN5Gates3ROXEiii>:
int * Gates::ROX(int theta,int phi,int delta){
    25e6:	2f 92       	push	r2
    25e8:	3f 92       	push	r3
    25ea:	4f 92       	push	r4
    25ec:	5f 92       	push	r5
    25ee:	6f 92       	push	r6
    25f0:	7f 92       	push	r7
    25f2:	8f 92       	push	r8
    25f4:	9f 92       	push	r9
    25f6:	af 92       	push	r10
    25f8:	bf 92       	push	r11
    25fa:	cf 92       	push	r12
    25fc:	df 92       	push	r13
    25fe:	ef 92       	push	r14
    2600:	ff 92       	push	r15
    2602:	0f 93       	push	r16
    2604:	1f 93       	push	r17
    2606:	cf 93       	push	r28
    2608:	df 93       	push	r29
    260a:	cd b7       	in	r28, 0x3d	; 61
    260c:	de b7       	in	r29, 0x3e	; 62
    260e:	a4 97       	sbiw	r28, 0x24	; 36
    2610:	0f b6       	in	r0, 0x3f	; 63
    2612:	f8 94       	cli
    2614:	de bf       	out	0x3e, r29	; 62
    2616:	0f be       	out	0x3f, r0	; 63
    2618:	cd bf       	out	0x3d, r28	; 61
    261a:	7c 01       	movw	r14, r24
    261c:	1b 01       	movw	r2, r22
    261e:	6a 01       	movw	r12, r20
	float delta_float=(delta*M_PI)/180;
    2620:	b9 01       	movw	r22, r18
    2622:	88 27       	eor	r24, r24
    2624:	77 fd       	sbrc	r23, 7
    2626:	80 95       	com	r24
    2628:	98 2f       	mov	r25, r24
    262a:	0e 94 7f 30 	call	0x60fe	; 0x60fe <__floatsisf>
    262e:	2b ed       	ldi	r18, 0xDB	; 219
    2630:	3f e0       	ldi	r19, 0x0F	; 15
    2632:	49 e4       	ldi	r20, 0x49	; 73
    2634:	50 e4       	ldi	r21, 0x40	; 64
    2636:	0e 94 61 32 	call	0x64c2	; 0x64c2 <__mulsf3>
    263a:	20 e0       	ldi	r18, 0x00	; 0
    263c:	30 e0       	ldi	r19, 0x00	; 0
    263e:	44 e3       	ldi	r20, 0x34	; 52
    2640:	53 e4       	ldi	r21, 0x43	; 67
    2642:	0e 94 b3 2f 	call	0x5f66	; 0x5f66 <__divsf3>
	Complex rox_matrix[QB1_MATRIX_SIZE][QB1_MATRIX_SIZE]{{Complex(cos(delta_float/2),0), Complex(0,-sin(delta_float/2))},
    2646:	20 e0       	ldi	r18, 0x00	; 0
    2648:	30 e0       	ldi	r19, 0x00	; 0
    264a:	40 e0       	ldi	r20, 0x00	; 0
    264c:	5f e3       	ldi	r21, 0x3F	; 63
    264e:	0e 94 61 32 	call	0x64c2	; 0x64c2 <__mulsf3>
    2652:	4b 01       	movw	r8, r22
    2654:	5c 01       	movw	r10, r24
    2656:	0e 94 b0 2f 	call	0x5f60	; 0x5f60 <cos>
    265a:	2b 01       	movw	r4, r22
    265c:	3c 01       	movw	r6, r24
														 {Complex(0,-sin(delta_float/2)),Complex(cos(delta_float/2),0)}};
    265e:	00 e0       	ldi	r16, 0x00	; 0
    2660:	10 e0       	ldi	r17, 0x00	; 0
    2662:	98 01       	movw	r18, r16
    2664:	ab 01       	movw	r20, r22
    2666:	bc 01       	movw	r22, r24
    2668:	ce 01       	movw	r24, r28
    266a:	01 96       	adiw	r24, 0x01	; 1
    266c:	0e 94 0d 01 	call	0x21a	; 0x21a <_ZN7ComplexC1Eff>
	int theta_list[QB_SIZE2]={theta1,theta2}; int phi_list[QB_SIZE2]={phi1,phi2};
	return vec2ampl(multiply4x4(ampl2vec(QB_SIZE2,theta_list,phi_list),dec_matrix),QB_SIZE2);
}
int * Gates::ROX(int theta,int phi,int delta){
	float delta_float=(delta*M_PI)/180;
	Complex rox_matrix[QB1_MATRIX_SIZE][QB1_MATRIX_SIZE]{{Complex(cos(delta_float/2),0), Complex(0,-sin(delta_float/2))},
    2670:	c5 01       	movw	r24, r10
    2672:	b4 01       	movw	r22, r8
    2674:	0e 94 c4 32 	call	0x6588	; 0x6588 <sin>
														 {Complex(0,-sin(delta_float/2)),Complex(cos(delta_float/2),0)}};
    2678:	4b 01       	movw	r8, r22
    267a:	5c 01       	movw	r10, r24
    267c:	b7 fa       	bst	r11, 7
    267e:	b0 94       	com	r11
    2680:	b7 f8       	bld	r11, 7
    2682:	b0 94       	com	r11
    2684:	95 01       	movw	r18, r10
    2686:	84 01       	movw	r16, r8
    2688:	40 e0       	ldi	r20, 0x00	; 0
    268a:	50 e0       	ldi	r21, 0x00	; 0
    268c:	ba 01       	movw	r22, r20
    268e:	ce 01       	movw	r24, r28
    2690:	09 96       	adiw	r24, 0x09	; 9
    2692:	0e 94 0d 01 	call	0x21a	; 0x21a <_ZN7ComplexC1Eff>
    2696:	95 01       	movw	r18, r10
    2698:	84 01       	movw	r16, r8
    269a:	40 e0       	ldi	r20, 0x00	; 0
    269c:	50 e0       	ldi	r21, 0x00	; 0
    269e:	ba 01       	movw	r22, r20
    26a0:	ce 01       	movw	r24, r28
    26a2:	41 96       	adiw	r24, 0x11	; 17
    26a4:	0e 94 0d 01 	call	0x21a	; 0x21a <_ZN7ComplexC1Eff>
    26a8:	00 e0       	ldi	r16, 0x00	; 0
    26aa:	10 e0       	ldi	r17, 0x00	; 0
    26ac:	98 01       	movw	r18, r16
    26ae:	b3 01       	movw	r22, r6
    26b0:	a2 01       	movw	r20, r4
    26b2:	ce 01       	movw	r24, r28
    26b4:	49 96       	adiw	r24, 0x19	; 25
    26b6:	0e 94 0d 01 	call	0x21a	; 0x21a <_ZN7ComplexC1Eff>
	int theta_list[QB_SIZE1]={theta}; int phi_list[QB_SIZE1]={phi};
    26ba:	3c a2       	std	Y+36, r3	; 0x24
    26bc:	2b a2       	std	Y+35, r2	; 0x23
    26be:	da a2       	std	Y+34, r13	; 0x22
    26c0:	c9 a2       	std	Y+33, r12	; 0x21
	return vec2ampl(multiply2x2(ampl2vec(QB_SIZE1,theta_list,phi_list),rox_matrix),QB_SIZE1);		
    26c2:	9e 01       	movw	r18, r28
    26c4:	2f 5d       	subi	r18, 0xDF	; 223
    26c6:	3f 4f       	sbci	r19, 0xFF	; 255
    26c8:	ae 01       	movw	r20, r28
    26ca:	4d 5d       	subi	r20, 0xDD	; 221
    26cc:	5f 4f       	sbci	r21, 0xFF	; 255
    26ce:	61 e0       	ldi	r22, 0x01	; 1
    26d0:	70 e0       	ldi	r23, 0x00	; 0
    26d2:	c7 01       	movw	r24, r14
    26d4:	0e 94 be 05 	call	0xb7c	; 0xb7c <_ZN5Gates8ampl2vecEiPiS0_>
    26d8:	ae 01       	movw	r20, r28
    26da:	4f 5f       	subi	r20, 0xFF	; 255
    26dc:	5f 4f       	sbci	r21, 0xFF	; 255
    26de:	bc 01       	movw	r22, r24
    26e0:	c7 01       	movw	r24, r14
    26e2:	0e 94 5a 07 	call	0xeb4	; 0xeb4 <_ZN5Gates11multiply2x2EP7ComplexPA2_S0_>
    26e6:	41 e0       	ldi	r20, 0x01	; 1
    26e8:	50 e0       	ldi	r21, 0x00	; 0
    26ea:	bc 01       	movw	r22, r24
    26ec:	c7 01       	movw	r24, r14
    26ee:	0e 94 c9 06 	call	0xd92	; 0xd92 <_ZN5Gates8vec2amplEP7Complexi>
}
    26f2:	a4 96       	adiw	r28, 0x24	; 36
    26f4:	0f b6       	in	r0, 0x3f	; 63
    26f6:	f8 94       	cli
    26f8:	de bf       	out	0x3e, r29	; 62
    26fa:	0f be       	out	0x3f, r0	; 63
    26fc:	cd bf       	out	0x3d, r28	; 61
    26fe:	df 91       	pop	r29
    2700:	cf 91       	pop	r28
    2702:	1f 91       	pop	r17
    2704:	0f 91       	pop	r16
    2706:	ff 90       	pop	r15
    2708:	ef 90       	pop	r14
    270a:	df 90       	pop	r13
    270c:	cf 90       	pop	r12
    270e:	bf 90       	pop	r11
    2710:	af 90       	pop	r10
    2712:	9f 90       	pop	r9
    2714:	8f 90       	pop	r8
    2716:	7f 90       	pop	r7
    2718:	6f 90       	pop	r6
    271a:	5f 90       	pop	r5
    271c:	4f 90       	pop	r4
    271e:	3f 90       	pop	r3
    2720:	2f 90       	pop	r2
    2722:	08 95       	ret

00002724 <_ZN5Gates3ROYEiii>:
int * Gates::ROY(int theta,int phi,int delta){
    2724:	2f 92       	push	r2
    2726:	3f 92       	push	r3
    2728:	4f 92       	push	r4
    272a:	5f 92       	push	r5
    272c:	6f 92       	push	r6
    272e:	7f 92       	push	r7
    2730:	8f 92       	push	r8
    2732:	9f 92       	push	r9
    2734:	af 92       	push	r10
    2736:	bf 92       	push	r11
    2738:	cf 92       	push	r12
    273a:	df 92       	push	r13
    273c:	ef 92       	push	r14
    273e:	ff 92       	push	r15
    2740:	0f 93       	push	r16
    2742:	1f 93       	push	r17
    2744:	cf 93       	push	r28
    2746:	df 93       	push	r29
    2748:	cd b7       	in	r28, 0x3d	; 61
    274a:	de b7       	in	r29, 0x3e	; 62
    274c:	a4 97       	sbiw	r28, 0x24	; 36
    274e:	0f b6       	in	r0, 0x3f	; 63
    2750:	f8 94       	cli
    2752:	de bf       	out	0x3e, r29	; 62
    2754:	0f be       	out	0x3f, r0	; 63
    2756:	cd bf       	out	0x3d, r28	; 61
    2758:	7c 01       	movw	r14, r24
    275a:	1b 01       	movw	r2, r22
    275c:	6a 01       	movw	r12, r20
	float delta_float=(delta*M_PI)/180;
    275e:	b9 01       	movw	r22, r18
    2760:	88 27       	eor	r24, r24
    2762:	77 fd       	sbrc	r23, 7
    2764:	80 95       	com	r24
    2766:	98 2f       	mov	r25, r24
    2768:	0e 94 7f 30 	call	0x60fe	; 0x60fe <__floatsisf>
    276c:	2b ed       	ldi	r18, 0xDB	; 219
    276e:	3f e0       	ldi	r19, 0x0F	; 15
    2770:	49 e4       	ldi	r20, 0x49	; 73
    2772:	50 e4       	ldi	r21, 0x40	; 64
    2774:	0e 94 61 32 	call	0x64c2	; 0x64c2 <__mulsf3>
    2778:	20 e0       	ldi	r18, 0x00	; 0
    277a:	30 e0       	ldi	r19, 0x00	; 0
    277c:	44 e3       	ldi	r20, 0x34	; 52
    277e:	53 e4       	ldi	r21, 0x43	; 67
    2780:	0e 94 b3 2f 	call	0x5f66	; 0x5f66 <__divsf3>
	Complex roy_matrix[QB1_MATRIX_SIZE][QB1_MATRIX_SIZE]{{Complex(cos(delta_float/2),0),Complex(-sin(delta_float/2),0)},
    2784:	20 e0       	ldi	r18, 0x00	; 0
    2786:	30 e0       	ldi	r19, 0x00	; 0
    2788:	40 e0       	ldi	r20, 0x00	; 0
    278a:	5f e3       	ldi	r21, 0x3F	; 63
    278c:	0e 94 61 32 	call	0x64c2	; 0x64c2 <__mulsf3>
    2790:	4b 01       	movw	r8, r22
    2792:	5c 01       	movw	r10, r24
    2794:	0e 94 b0 2f 	call	0x5f60	; 0x5f60 <cos>
    2798:	2b 01       	movw	r4, r22
    279a:	3c 01       	movw	r6, r24
														 {Complex(sin(delta_float/2),0),Complex(cos(delta_float/2),0)}};
    279c:	00 e0       	ldi	r16, 0x00	; 0
    279e:	10 e0       	ldi	r17, 0x00	; 0
    27a0:	98 01       	movw	r18, r16
    27a2:	ab 01       	movw	r20, r22
    27a4:	bc 01       	movw	r22, r24
    27a6:	ce 01       	movw	r24, r28
    27a8:	01 96       	adiw	r24, 0x01	; 1
    27aa:	0e 94 0d 01 	call	0x21a	; 0x21a <_ZN7ComplexC1Eff>
	int theta_list[QB_SIZE1]={theta}; int phi_list[QB_SIZE1]={phi};
	return vec2ampl(multiply2x2(ampl2vec(QB_SIZE1,theta_list,phi_list),rox_matrix),QB_SIZE1);		
}
int * Gates::ROY(int theta,int phi,int delta){
	float delta_float=(delta*M_PI)/180;
	Complex roy_matrix[QB1_MATRIX_SIZE][QB1_MATRIX_SIZE]{{Complex(cos(delta_float/2),0),Complex(-sin(delta_float/2),0)},
    27ae:	c5 01       	movw	r24, r10
    27b0:	b4 01       	movw	r22, r8
    27b2:	0e 94 c4 32 	call	0x6588	; 0x6588 <sin>
    27b6:	4b 01       	movw	r8, r22
    27b8:	5c 01       	movw	r10, r24
														 {Complex(sin(delta_float/2),0),Complex(cos(delta_float/2),0)}};
    27ba:	ab 01       	movw	r20, r22
    27bc:	bc 01       	movw	r22, r24
    27be:	70 58       	subi	r23, 0x80	; 128
    27c0:	00 e0       	ldi	r16, 0x00	; 0
    27c2:	10 e0       	ldi	r17, 0x00	; 0
    27c4:	98 01       	movw	r18, r16
    27c6:	ce 01       	movw	r24, r28
    27c8:	09 96       	adiw	r24, 0x09	; 9
    27ca:	0e 94 0d 01 	call	0x21a	; 0x21a <_ZN7ComplexC1Eff>
    27ce:	00 e0       	ldi	r16, 0x00	; 0
    27d0:	10 e0       	ldi	r17, 0x00	; 0
    27d2:	98 01       	movw	r18, r16
    27d4:	b5 01       	movw	r22, r10
    27d6:	a4 01       	movw	r20, r8
    27d8:	ce 01       	movw	r24, r28
    27da:	41 96       	adiw	r24, 0x11	; 17
    27dc:	0e 94 0d 01 	call	0x21a	; 0x21a <_ZN7ComplexC1Eff>
    27e0:	00 e0       	ldi	r16, 0x00	; 0
    27e2:	10 e0       	ldi	r17, 0x00	; 0
    27e4:	98 01       	movw	r18, r16
    27e6:	b3 01       	movw	r22, r6
    27e8:	a2 01       	movw	r20, r4
    27ea:	ce 01       	movw	r24, r28
    27ec:	49 96       	adiw	r24, 0x19	; 25
    27ee:	0e 94 0d 01 	call	0x21a	; 0x21a <_ZN7ComplexC1Eff>
	int theta_list[QB_SIZE1]={theta}; int phi_list[QB_SIZE1]={phi};
    27f2:	3c a2       	std	Y+36, r3	; 0x24
    27f4:	2b a2       	std	Y+35, r2	; 0x23
    27f6:	da a2       	std	Y+34, r13	; 0x22
    27f8:	c9 a2       	std	Y+33, r12	; 0x21
	return vec2ampl(multiply2x2(ampl2vec(QB_SIZE1,theta_list,phi_list),roy_matrix),QB_SIZE1);
    27fa:	9e 01       	movw	r18, r28
    27fc:	2f 5d       	subi	r18, 0xDF	; 223
    27fe:	3f 4f       	sbci	r19, 0xFF	; 255
    2800:	ae 01       	movw	r20, r28
    2802:	4d 5d       	subi	r20, 0xDD	; 221
    2804:	5f 4f       	sbci	r21, 0xFF	; 255
    2806:	61 e0       	ldi	r22, 0x01	; 1
    2808:	70 e0       	ldi	r23, 0x00	; 0
    280a:	c7 01       	movw	r24, r14
    280c:	0e 94 be 05 	call	0xb7c	; 0xb7c <_ZN5Gates8ampl2vecEiPiS0_>
    2810:	ae 01       	movw	r20, r28
    2812:	4f 5f       	subi	r20, 0xFF	; 255
    2814:	5f 4f       	sbci	r21, 0xFF	; 255
    2816:	bc 01       	movw	r22, r24
    2818:	c7 01       	movw	r24, r14
    281a:	0e 94 5a 07 	call	0xeb4	; 0xeb4 <_ZN5Gates11multiply2x2EP7ComplexPA2_S0_>
    281e:	41 e0       	ldi	r20, 0x01	; 1
    2820:	50 e0       	ldi	r21, 0x00	; 0
    2822:	bc 01       	movw	r22, r24
    2824:	c7 01       	movw	r24, r14
    2826:	0e 94 c9 06 	call	0xd92	; 0xd92 <_ZN5Gates8vec2amplEP7Complexi>
}
    282a:	a4 96       	adiw	r28, 0x24	; 36
    282c:	0f b6       	in	r0, 0x3f	; 63
    282e:	f8 94       	cli
    2830:	de bf       	out	0x3e, r29	; 62
    2832:	0f be       	out	0x3f, r0	; 63
    2834:	cd bf       	out	0x3d, r28	; 61
    2836:	df 91       	pop	r29
    2838:	cf 91       	pop	r28
    283a:	1f 91       	pop	r17
    283c:	0f 91       	pop	r16
    283e:	ff 90       	pop	r15
    2840:	ef 90       	pop	r14
    2842:	df 90       	pop	r13
    2844:	cf 90       	pop	r12
    2846:	bf 90       	pop	r11
    2848:	af 90       	pop	r10
    284a:	9f 90       	pop	r9
    284c:	8f 90       	pop	r8
    284e:	7f 90       	pop	r7
    2850:	6f 90       	pop	r6
    2852:	5f 90       	pop	r5
    2854:	4f 90       	pop	r4
    2856:	3f 90       	pop	r3
    2858:	2f 90       	pop	r2
    285a:	08 95       	ret

0000285c <_ZN5Gates3ROZEiii>:
int * Gates::ROZ(int theta,int phi,int delta){
    285c:	4f 92       	push	r4
    285e:	5f 92       	push	r5
    2860:	6f 92       	push	r6
    2862:	7f 92       	push	r7
    2864:	af 92       	push	r10
    2866:	bf 92       	push	r11
    2868:	cf 92       	push	r12
    286a:	df 92       	push	r13
    286c:	ef 92       	push	r14
    286e:	ff 92       	push	r15
    2870:	0f 93       	push	r16
    2872:	1f 93       	push	r17
    2874:	cf 93       	push	r28
    2876:	df 93       	push	r29
    2878:	cd b7       	in	r28, 0x3d	; 61
    287a:	de b7       	in	r29, 0x3e	; 62
    287c:	a4 97       	sbiw	r28, 0x24	; 36
    287e:	0f b6       	in	r0, 0x3f	; 63
    2880:	f8 94       	cli
    2882:	de bf       	out	0x3e, r29	; 62
    2884:	0f be       	out	0x3f, r0	; 63
    2886:	cd bf       	out	0x3d, r28	; 61
    2888:	7c 01       	movw	r14, r24
    288a:	5b 01       	movw	r10, r22
    288c:	6a 01       	movw	r12, r20
	float delta_float=(delta*M_PI)/180;
    288e:	b9 01       	movw	r22, r18
    2890:	88 27       	eor	r24, r24
    2892:	77 fd       	sbrc	r23, 7
    2894:	80 95       	com	r24
    2896:	98 2f       	mov	r25, r24
    2898:	0e 94 7f 30 	call	0x60fe	; 0x60fe <__floatsisf>
    289c:	2b ed       	ldi	r18, 0xDB	; 219
    289e:	3f e0       	ldi	r19, 0x0F	; 15
    28a0:	49 e4       	ldi	r20, 0x49	; 73
    28a2:	50 e4       	ldi	r21, 0x40	; 64
    28a4:	0e 94 61 32 	call	0x64c2	; 0x64c2 <__mulsf3>
    28a8:	20 e0       	ldi	r18, 0x00	; 0
    28aa:	30 e0       	ldi	r19, 0x00	; 0
    28ac:	44 e3       	ldi	r20, 0x34	; 52
    28ae:	53 e4       	ldi	r21, 0x43	; 67
    28b0:	0e 94 b3 2f 	call	0x5f66	; 0x5f66 <__divsf3>
    28b4:	2b 01       	movw	r4, r22
    28b6:	3c 01       	movw	r6, r24
	Complex roy_matrix[QB1_MATRIX_SIZE][QB1_MATRIX_SIZE]{{Complex(0,exp(-delta_float/2)),Complex(0,0)},
    28b8:	90 58       	subi	r25, 0x80	; 128
    28ba:	20 e0       	ldi	r18, 0x00	; 0
    28bc:	30 e0       	ldi	r19, 0x00	; 0
    28be:	40 e0       	ldi	r20, 0x00	; 0
    28c0:	5f e3       	ldi	r21, 0x3F	; 63
    28c2:	0e 94 61 32 	call	0x64c2	; 0x64c2 <__mulsf3>
    28c6:	0e 94 20 30 	call	0x6040	; 0x6040 <exp>
    28ca:	8b 01       	movw	r16, r22
    28cc:	9c 01       	movw	r18, r24
														 {Complex(0,0),		  		     Complex(0,exp(delta_float/2))}};
    28ce:	40 e0       	ldi	r20, 0x00	; 0
    28d0:	50 e0       	ldi	r21, 0x00	; 0
    28d2:	ba 01       	movw	r22, r20
    28d4:	ce 01       	movw	r24, r28
    28d6:	01 96       	adiw	r24, 0x01	; 1
    28d8:	0e 94 0d 01 	call	0x21a	; 0x21a <_ZN7ComplexC1Eff>
    28dc:	00 e0       	ldi	r16, 0x00	; 0
    28de:	10 e0       	ldi	r17, 0x00	; 0
    28e0:	98 01       	movw	r18, r16
    28e2:	b9 01       	movw	r22, r18
    28e4:	a8 01       	movw	r20, r16
    28e6:	ce 01       	movw	r24, r28
    28e8:	09 96       	adiw	r24, 0x09	; 9
    28ea:	0e 94 0d 01 	call	0x21a	; 0x21a <_ZN7ComplexC1Eff>
    28ee:	00 e0       	ldi	r16, 0x00	; 0
    28f0:	10 e0       	ldi	r17, 0x00	; 0
    28f2:	98 01       	movw	r18, r16
    28f4:	b9 01       	movw	r22, r18
    28f6:	a8 01       	movw	r20, r16
    28f8:	ce 01       	movw	r24, r28
    28fa:	41 96       	adiw	r24, 0x11	; 17
    28fc:	0e 94 0d 01 	call	0x21a	; 0x21a <_ZN7ComplexC1Eff>
    2900:	20 e0       	ldi	r18, 0x00	; 0
    2902:	30 e0       	ldi	r19, 0x00	; 0
    2904:	40 e0       	ldi	r20, 0x00	; 0
    2906:	5f e3       	ldi	r21, 0x3F	; 63
    2908:	c3 01       	movw	r24, r6
    290a:	b2 01       	movw	r22, r4
    290c:	0e 94 61 32 	call	0x64c2	; 0x64c2 <__mulsf3>
    2910:	0e 94 20 30 	call	0x6040	; 0x6040 <exp>
    2914:	8b 01       	movw	r16, r22
    2916:	9c 01       	movw	r18, r24
    2918:	40 e0       	ldi	r20, 0x00	; 0
    291a:	50 e0       	ldi	r21, 0x00	; 0
    291c:	ba 01       	movw	r22, r20
    291e:	ce 01       	movw	r24, r28
    2920:	49 96       	adiw	r24, 0x19	; 25
    2922:	0e 94 0d 01 	call	0x21a	; 0x21a <_ZN7ComplexC1Eff>
	int theta_list[QB_SIZE1]={theta}; int phi_list[QB_SIZE1]={phi};
    2926:	bc a2       	std	Y+36, r11	; 0x24
    2928:	ab a2       	std	Y+35, r10	; 0x23
    292a:	da a2       	std	Y+34, r13	; 0x22
    292c:	c9 a2       	std	Y+33, r12	; 0x21
	return vec2ampl(multiply2x2(ampl2vec(QB_SIZE1,theta_list,phi_list),roy_matrix),QB_SIZE1);
    292e:	9e 01       	movw	r18, r28
    2930:	2f 5d       	subi	r18, 0xDF	; 223
    2932:	3f 4f       	sbci	r19, 0xFF	; 255
    2934:	ae 01       	movw	r20, r28
    2936:	4d 5d       	subi	r20, 0xDD	; 221
    2938:	5f 4f       	sbci	r21, 0xFF	; 255
    293a:	61 e0       	ldi	r22, 0x01	; 1
    293c:	70 e0       	ldi	r23, 0x00	; 0
    293e:	c7 01       	movw	r24, r14
    2940:	0e 94 be 05 	call	0xb7c	; 0xb7c <_ZN5Gates8ampl2vecEiPiS0_>
    2944:	ae 01       	movw	r20, r28
    2946:	4f 5f       	subi	r20, 0xFF	; 255
    2948:	5f 4f       	sbci	r21, 0xFF	; 255
    294a:	bc 01       	movw	r22, r24
    294c:	c7 01       	movw	r24, r14
    294e:	0e 94 5a 07 	call	0xeb4	; 0xeb4 <_ZN5Gates11multiply2x2EP7ComplexPA2_S0_>
    2952:	41 e0       	ldi	r20, 0x01	; 1
    2954:	50 e0       	ldi	r21, 0x00	; 0
    2956:	bc 01       	movw	r22, r24
    2958:	c7 01       	movw	r24, r14
    295a:	0e 94 c9 06 	call	0xd92	; 0xd92 <_ZN5Gates8vec2amplEP7Complexi>
}
    295e:	a4 96       	adiw	r28, 0x24	; 36
    2960:	0f b6       	in	r0, 0x3f	; 63
    2962:	f8 94       	cli
    2964:	de bf       	out	0x3e, r29	; 62
    2966:	0f be       	out	0x3f, r0	; 63
    2968:	cd bf       	out	0x3d, r28	; 61
    296a:	df 91       	pop	r29
    296c:	cf 91       	pop	r28
    296e:	1f 91       	pop	r17
    2970:	0f 91       	pop	r16
    2972:	ff 90       	pop	r15
    2974:	ef 90       	pop	r14
    2976:	df 90       	pop	r13
    2978:	cf 90       	pop	r12
    297a:	bf 90       	pop	r11
    297c:	af 90       	pop	r10
    297e:	7f 90       	pop	r7
    2980:	6f 90       	pop	r6
    2982:	5f 90       	pop	r5
    2984:	4f 90       	pop	r4
    2986:	08 95       	ret

00002988 <_ZN5Gates3CSWEiiiiii>:
int * Gates::CSW(int theta1, int phi1,int theta2,int phi2,int theta3,int phi3){
    2988:	2f 92       	push	r2
    298a:	3f 92       	push	r3
    298c:	4f 92       	push	r4
    298e:	5f 92       	push	r5
    2990:	6f 92       	push	r6
    2992:	7f 92       	push	r7
    2994:	8f 92       	push	r8
    2996:	9f 92       	push	r9
    2998:	af 92       	push	r10
    299a:	bf 92       	push	r11
    299c:	cf 92       	push	r12
    299e:	df 92       	push	r13
    29a0:	ef 92       	push	r14
    29a2:	ff 92       	push	r15
    29a4:	0f 93       	push	r16
    29a6:	1f 93       	push	r17
    29a8:	cf 93       	push	r28
    29aa:	df 93       	push	r29
    29ac:	cd b7       	in	r28, 0x3d	; 61
    29ae:	de b7       	in	r29, 0x3e	; 62
    29b0:	cc 50       	subi	r28, 0x0C	; 12
    29b2:	d2 40       	sbci	r29, 0x02	; 2
    29b4:	0f b6       	in	r0, 0x3f	; 63
    29b6:	f8 94       	cli
    29b8:	de bf       	out	0x3e, r29	; 62
    29ba:	0f be       	out	0x3f, r0	; 63
    29bc:	cd bf       	out	0x3d, r28	; 61
    29be:	5c 01       	movw	r10, r24
    29c0:	3b 01       	movw	r6, r22
    29c2:	2a 01       	movw	r4, r20
    29c4:	49 01       	movw	r8, r18
    29c6:	18 01       	movw	r2, r16
														  {Complex(0,0),Complex(0,0),Complex(1,0),Complex(0,0),Complex(0,0),Complex(0,0),Complex(0,0),Complex(0,0)},
														  {Complex(0,0),Complex(0,0),Complex(0,0),Complex(1,0),Complex(0,0),Complex(0,0),Complex(0,0),Complex(0,0)},
														  {Complex(0,0),Complex(0,0),Complex(0,0),Complex(0,0),Complex(1,0),Complex(0,0),Complex(0,0),Complex(0,0)},
														  {Complex(0,0),Complex(0,0),Complex(0,0),Complex(0,0),Complex(0,0),Complex(0,0),Complex(1,0),Complex(0,0)},
														  {Complex(0,0),Complex(0,0),Complex(0,0),Complex(0,0),Complex(0,0),Complex(1,0),Complex(0,0),Complex(0,0)},
														  {Complex(0,0),Complex(0,0),Complex(0,0),Complex(0,0),Complex(0,0),Complex(0,0),Complex(0,0),Complex(1,0)}};
    29c8:	00 e0       	ldi	r16, 0x00	; 0
    29ca:	10 e0       	ldi	r17, 0x00	; 0
    29cc:	98 01       	movw	r18, r16
    29ce:	40 e0       	ldi	r20, 0x00	; 0
    29d0:	50 e0       	ldi	r21, 0x00	; 0
    29d2:	60 e8       	ldi	r22, 0x80	; 128
    29d4:	7f e3       	ldi	r23, 0x3F	; 63
    29d6:	ce 01       	movw	r24, r28
    29d8:	01 96       	adiw	r24, 0x01	; 1
    29da:	0e 94 0d 01 	call	0x21a	; 0x21a <_ZN7ComplexC1Eff>
    29de:	00 e0       	ldi	r16, 0x00	; 0
    29e0:	10 e0       	ldi	r17, 0x00	; 0
    29e2:	98 01       	movw	r18, r16
    29e4:	b9 01       	movw	r22, r18
    29e6:	a8 01       	movw	r20, r16
    29e8:	ce 01       	movw	r24, r28
    29ea:	09 96       	adiw	r24, 0x09	; 9
    29ec:	0e 94 0d 01 	call	0x21a	; 0x21a <_ZN7ComplexC1Eff>
    29f0:	00 e0       	ldi	r16, 0x00	; 0
    29f2:	10 e0       	ldi	r17, 0x00	; 0
    29f4:	98 01       	movw	r18, r16
    29f6:	b9 01       	movw	r22, r18
    29f8:	a8 01       	movw	r20, r16
    29fa:	ce 01       	movw	r24, r28
    29fc:	41 96       	adiw	r24, 0x11	; 17
    29fe:	0e 94 0d 01 	call	0x21a	; 0x21a <_ZN7ComplexC1Eff>
    2a02:	00 e0       	ldi	r16, 0x00	; 0
    2a04:	10 e0       	ldi	r17, 0x00	; 0
    2a06:	98 01       	movw	r18, r16
    2a08:	b9 01       	movw	r22, r18
    2a0a:	a8 01       	movw	r20, r16
    2a0c:	ce 01       	movw	r24, r28
    2a0e:	49 96       	adiw	r24, 0x19	; 25
    2a10:	0e 94 0d 01 	call	0x21a	; 0x21a <_ZN7ComplexC1Eff>
    2a14:	00 e0       	ldi	r16, 0x00	; 0
    2a16:	10 e0       	ldi	r17, 0x00	; 0
    2a18:	98 01       	movw	r18, r16
    2a1a:	b9 01       	movw	r22, r18
    2a1c:	a8 01       	movw	r20, r16
    2a1e:	ce 01       	movw	r24, r28
    2a20:	81 96       	adiw	r24, 0x21	; 33
    2a22:	0e 94 0d 01 	call	0x21a	; 0x21a <_ZN7ComplexC1Eff>
    2a26:	00 e0       	ldi	r16, 0x00	; 0
    2a28:	10 e0       	ldi	r17, 0x00	; 0
    2a2a:	98 01       	movw	r18, r16
    2a2c:	b9 01       	movw	r22, r18
    2a2e:	a8 01       	movw	r20, r16
    2a30:	ce 01       	movw	r24, r28
    2a32:	89 96       	adiw	r24, 0x29	; 41
    2a34:	0e 94 0d 01 	call	0x21a	; 0x21a <_ZN7ComplexC1Eff>
    2a38:	00 e0       	ldi	r16, 0x00	; 0
    2a3a:	10 e0       	ldi	r17, 0x00	; 0
    2a3c:	98 01       	movw	r18, r16
    2a3e:	b9 01       	movw	r22, r18
    2a40:	a8 01       	movw	r20, r16
    2a42:	ce 01       	movw	r24, r28
    2a44:	c1 96       	adiw	r24, 0x31	; 49
    2a46:	0e 94 0d 01 	call	0x21a	; 0x21a <_ZN7ComplexC1Eff>
    2a4a:	00 e0       	ldi	r16, 0x00	; 0
    2a4c:	10 e0       	ldi	r17, 0x00	; 0
    2a4e:	98 01       	movw	r18, r16
    2a50:	b9 01       	movw	r22, r18
    2a52:	a8 01       	movw	r20, r16
    2a54:	ce 01       	movw	r24, r28
    2a56:	c9 96       	adiw	r24, 0x39	; 57
    2a58:	0e 94 0d 01 	call	0x21a	; 0x21a <_ZN7ComplexC1Eff>
    2a5c:	00 e0       	ldi	r16, 0x00	; 0
    2a5e:	10 e0       	ldi	r17, 0x00	; 0
    2a60:	98 01       	movw	r18, r16
    2a62:	b9 01       	movw	r22, r18
    2a64:	a8 01       	movw	r20, r16
    2a66:	ce 01       	movw	r24, r28
    2a68:	8f 5b       	subi	r24, 0xBF	; 191
    2a6a:	9f 4f       	sbci	r25, 0xFF	; 255
    2a6c:	0e 94 0d 01 	call	0x21a	; 0x21a <_ZN7ComplexC1Eff>
    2a70:	00 e0       	ldi	r16, 0x00	; 0
    2a72:	10 e0       	ldi	r17, 0x00	; 0
    2a74:	98 01       	movw	r18, r16
    2a76:	40 e0       	ldi	r20, 0x00	; 0
    2a78:	50 e0       	ldi	r21, 0x00	; 0
    2a7a:	60 e8       	ldi	r22, 0x80	; 128
    2a7c:	7f e3       	ldi	r23, 0x3F	; 63
    2a7e:	ce 01       	movw	r24, r28
    2a80:	87 5b       	subi	r24, 0xB7	; 183
    2a82:	9f 4f       	sbci	r25, 0xFF	; 255
    2a84:	0e 94 0d 01 	call	0x21a	; 0x21a <_ZN7ComplexC1Eff>
    2a88:	00 e0       	ldi	r16, 0x00	; 0
    2a8a:	10 e0       	ldi	r17, 0x00	; 0
    2a8c:	98 01       	movw	r18, r16
    2a8e:	b9 01       	movw	r22, r18
    2a90:	a8 01       	movw	r20, r16
    2a92:	ce 01       	movw	r24, r28
    2a94:	8f 5a       	subi	r24, 0xAF	; 175
    2a96:	9f 4f       	sbci	r25, 0xFF	; 255
    2a98:	0e 94 0d 01 	call	0x21a	; 0x21a <_ZN7ComplexC1Eff>
    2a9c:	00 e0       	ldi	r16, 0x00	; 0
    2a9e:	10 e0       	ldi	r17, 0x00	; 0
    2aa0:	98 01       	movw	r18, r16
    2aa2:	b9 01       	movw	r22, r18
    2aa4:	a8 01       	movw	r20, r16
    2aa6:	ce 01       	movw	r24, r28
    2aa8:	87 5a       	subi	r24, 0xA7	; 167
    2aaa:	9f 4f       	sbci	r25, 0xFF	; 255
    2aac:	0e 94 0d 01 	call	0x21a	; 0x21a <_ZN7ComplexC1Eff>
    2ab0:	00 e0       	ldi	r16, 0x00	; 0
    2ab2:	10 e0       	ldi	r17, 0x00	; 0
    2ab4:	98 01       	movw	r18, r16
    2ab6:	b9 01       	movw	r22, r18
    2ab8:	a8 01       	movw	r20, r16
    2aba:	ce 01       	movw	r24, r28
    2abc:	8f 59       	subi	r24, 0x9F	; 159
    2abe:	9f 4f       	sbci	r25, 0xFF	; 255
    2ac0:	0e 94 0d 01 	call	0x21a	; 0x21a <_ZN7ComplexC1Eff>
    2ac4:	00 e0       	ldi	r16, 0x00	; 0
    2ac6:	10 e0       	ldi	r17, 0x00	; 0
    2ac8:	98 01       	movw	r18, r16
    2aca:	b9 01       	movw	r22, r18
    2acc:	a8 01       	movw	r20, r16
    2ace:	ce 01       	movw	r24, r28
    2ad0:	87 59       	subi	r24, 0x97	; 151
    2ad2:	9f 4f       	sbci	r25, 0xFF	; 255
    2ad4:	0e 94 0d 01 	call	0x21a	; 0x21a <_ZN7ComplexC1Eff>
    2ad8:	00 e0       	ldi	r16, 0x00	; 0
    2ada:	10 e0       	ldi	r17, 0x00	; 0
    2adc:	98 01       	movw	r18, r16
    2ade:	b9 01       	movw	r22, r18
    2ae0:	a8 01       	movw	r20, r16
    2ae2:	ce 01       	movw	r24, r28
    2ae4:	8f 58       	subi	r24, 0x8F	; 143
    2ae6:	9f 4f       	sbci	r25, 0xFF	; 255
    2ae8:	0e 94 0d 01 	call	0x21a	; 0x21a <_ZN7ComplexC1Eff>
    2aec:	00 e0       	ldi	r16, 0x00	; 0
    2aee:	10 e0       	ldi	r17, 0x00	; 0
    2af0:	98 01       	movw	r18, r16
    2af2:	b9 01       	movw	r22, r18
    2af4:	a8 01       	movw	r20, r16
    2af6:	ce 01       	movw	r24, r28
    2af8:	87 58       	subi	r24, 0x87	; 135
    2afa:	9f 4f       	sbci	r25, 0xFF	; 255
    2afc:	0e 94 0d 01 	call	0x21a	; 0x21a <_ZN7ComplexC1Eff>
    2b00:	00 e0       	ldi	r16, 0x00	; 0
    2b02:	10 e0       	ldi	r17, 0x00	; 0
    2b04:	98 01       	movw	r18, r16
    2b06:	b9 01       	movw	r22, r18
    2b08:	a8 01       	movw	r20, r16
    2b0a:	ce 01       	movw	r24, r28
    2b0c:	8f 57       	subi	r24, 0x7F	; 127
    2b0e:	9f 4f       	sbci	r25, 0xFF	; 255
    2b10:	0e 94 0d 01 	call	0x21a	; 0x21a <_ZN7ComplexC1Eff>
    2b14:	00 e0       	ldi	r16, 0x00	; 0
    2b16:	10 e0       	ldi	r17, 0x00	; 0
    2b18:	98 01       	movw	r18, r16
    2b1a:	b9 01       	movw	r22, r18
    2b1c:	a8 01       	movw	r20, r16
    2b1e:	ce 01       	movw	r24, r28
    2b20:	87 57       	subi	r24, 0x77	; 119
    2b22:	9f 4f       	sbci	r25, 0xFF	; 255
    2b24:	0e 94 0d 01 	call	0x21a	; 0x21a <_ZN7ComplexC1Eff>
    2b28:	00 e0       	ldi	r16, 0x00	; 0
    2b2a:	10 e0       	ldi	r17, 0x00	; 0
    2b2c:	98 01       	movw	r18, r16
    2b2e:	40 e0       	ldi	r20, 0x00	; 0
    2b30:	50 e0       	ldi	r21, 0x00	; 0
    2b32:	60 e8       	ldi	r22, 0x80	; 128
    2b34:	7f e3       	ldi	r23, 0x3F	; 63
    2b36:	ce 01       	movw	r24, r28
    2b38:	8f 56       	subi	r24, 0x6F	; 111
    2b3a:	9f 4f       	sbci	r25, 0xFF	; 255
    2b3c:	0e 94 0d 01 	call	0x21a	; 0x21a <_ZN7ComplexC1Eff>
    2b40:	00 e0       	ldi	r16, 0x00	; 0
    2b42:	10 e0       	ldi	r17, 0x00	; 0
    2b44:	98 01       	movw	r18, r16
    2b46:	b9 01       	movw	r22, r18
    2b48:	a8 01       	movw	r20, r16
    2b4a:	ce 01       	movw	r24, r28
    2b4c:	87 56       	subi	r24, 0x67	; 103
    2b4e:	9f 4f       	sbci	r25, 0xFF	; 255
    2b50:	0e 94 0d 01 	call	0x21a	; 0x21a <_ZN7ComplexC1Eff>
    2b54:	00 e0       	ldi	r16, 0x00	; 0
    2b56:	10 e0       	ldi	r17, 0x00	; 0
    2b58:	98 01       	movw	r18, r16
    2b5a:	b9 01       	movw	r22, r18
    2b5c:	a8 01       	movw	r20, r16
    2b5e:	ce 01       	movw	r24, r28
    2b60:	8f 55       	subi	r24, 0x5F	; 95
    2b62:	9f 4f       	sbci	r25, 0xFF	; 255
    2b64:	0e 94 0d 01 	call	0x21a	; 0x21a <_ZN7ComplexC1Eff>
    2b68:	00 e0       	ldi	r16, 0x00	; 0
    2b6a:	10 e0       	ldi	r17, 0x00	; 0
    2b6c:	98 01       	movw	r18, r16
    2b6e:	b9 01       	movw	r22, r18
    2b70:	a8 01       	movw	r20, r16
    2b72:	ce 01       	movw	r24, r28
    2b74:	87 55       	subi	r24, 0x57	; 87
    2b76:	9f 4f       	sbci	r25, 0xFF	; 255
    2b78:	0e 94 0d 01 	call	0x21a	; 0x21a <_ZN7ComplexC1Eff>
    2b7c:	00 e0       	ldi	r16, 0x00	; 0
    2b7e:	10 e0       	ldi	r17, 0x00	; 0
    2b80:	98 01       	movw	r18, r16
    2b82:	b9 01       	movw	r22, r18
    2b84:	a8 01       	movw	r20, r16
    2b86:	ce 01       	movw	r24, r28
    2b88:	8f 54       	subi	r24, 0x4F	; 79
    2b8a:	9f 4f       	sbci	r25, 0xFF	; 255
    2b8c:	0e 94 0d 01 	call	0x21a	; 0x21a <_ZN7ComplexC1Eff>
    2b90:	00 e0       	ldi	r16, 0x00	; 0
    2b92:	10 e0       	ldi	r17, 0x00	; 0
    2b94:	98 01       	movw	r18, r16
    2b96:	b9 01       	movw	r22, r18
    2b98:	a8 01       	movw	r20, r16
    2b9a:	ce 01       	movw	r24, r28
    2b9c:	87 54       	subi	r24, 0x47	; 71
    2b9e:	9f 4f       	sbci	r25, 0xFF	; 255
    2ba0:	0e 94 0d 01 	call	0x21a	; 0x21a <_ZN7ComplexC1Eff>
    2ba4:	00 e0       	ldi	r16, 0x00	; 0
    2ba6:	10 e0       	ldi	r17, 0x00	; 0
    2ba8:	98 01       	movw	r18, r16
    2baa:	b9 01       	movw	r22, r18
    2bac:	a8 01       	movw	r20, r16
    2bae:	ce 01       	movw	r24, r28
    2bb0:	8f 53       	subi	r24, 0x3F	; 63
    2bb2:	9f 4f       	sbci	r25, 0xFF	; 255
    2bb4:	0e 94 0d 01 	call	0x21a	; 0x21a <_ZN7ComplexC1Eff>
    2bb8:	00 e0       	ldi	r16, 0x00	; 0
    2bba:	10 e0       	ldi	r17, 0x00	; 0
    2bbc:	98 01       	movw	r18, r16
    2bbe:	b9 01       	movw	r22, r18
    2bc0:	a8 01       	movw	r20, r16
    2bc2:	ce 01       	movw	r24, r28
    2bc4:	87 53       	subi	r24, 0x37	; 55
    2bc6:	9f 4f       	sbci	r25, 0xFF	; 255
    2bc8:	0e 94 0d 01 	call	0x21a	; 0x21a <_ZN7ComplexC1Eff>
    2bcc:	00 e0       	ldi	r16, 0x00	; 0
    2bce:	10 e0       	ldi	r17, 0x00	; 0
    2bd0:	98 01       	movw	r18, r16
    2bd2:	b9 01       	movw	r22, r18
    2bd4:	a8 01       	movw	r20, r16
    2bd6:	ce 01       	movw	r24, r28
    2bd8:	8f 52       	subi	r24, 0x2F	; 47
    2bda:	9f 4f       	sbci	r25, 0xFF	; 255
    2bdc:	0e 94 0d 01 	call	0x21a	; 0x21a <_ZN7ComplexC1Eff>
    2be0:	00 e0       	ldi	r16, 0x00	; 0
    2be2:	10 e0       	ldi	r17, 0x00	; 0
    2be4:	98 01       	movw	r18, r16
    2be6:	40 e0       	ldi	r20, 0x00	; 0
    2be8:	50 e0       	ldi	r21, 0x00	; 0
    2bea:	60 e8       	ldi	r22, 0x80	; 128
    2bec:	7f e3       	ldi	r23, 0x3F	; 63
    2bee:	ce 01       	movw	r24, r28
    2bf0:	87 52       	subi	r24, 0x27	; 39
    2bf2:	9f 4f       	sbci	r25, 0xFF	; 255
    2bf4:	0e 94 0d 01 	call	0x21a	; 0x21a <_ZN7ComplexC1Eff>
    2bf8:	00 e0       	ldi	r16, 0x00	; 0
    2bfa:	10 e0       	ldi	r17, 0x00	; 0
    2bfc:	98 01       	movw	r18, r16
    2bfe:	b9 01       	movw	r22, r18
    2c00:	a8 01       	movw	r20, r16
    2c02:	ce 01       	movw	r24, r28
    2c04:	8f 51       	subi	r24, 0x1F	; 31
    2c06:	9f 4f       	sbci	r25, 0xFF	; 255
    2c08:	0e 94 0d 01 	call	0x21a	; 0x21a <_ZN7ComplexC1Eff>
    2c0c:	00 e0       	ldi	r16, 0x00	; 0
    2c0e:	10 e0       	ldi	r17, 0x00	; 0
    2c10:	98 01       	movw	r18, r16
    2c12:	b9 01       	movw	r22, r18
    2c14:	a8 01       	movw	r20, r16
    2c16:	ce 01       	movw	r24, r28
    2c18:	87 51       	subi	r24, 0x17	; 23
    2c1a:	9f 4f       	sbci	r25, 0xFF	; 255
    2c1c:	0e 94 0d 01 	call	0x21a	; 0x21a <_ZN7ComplexC1Eff>
    2c20:	00 e0       	ldi	r16, 0x00	; 0
    2c22:	10 e0       	ldi	r17, 0x00	; 0
    2c24:	98 01       	movw	r18, r16
    2c26:	b9 01       	movw	r22, r18
    2c28:	a8 01       	movw	r20, r16
    2c2a:	ce 01       	movw	r24, r28
    2c2c:	8f 50       	subi	r24, 0x0F	; 15
    2c2e:	9f 4f       	sbci	r25, 0xFF	; 255
    2c30:	0e 94 0d 01 	call	0x21a	; 0x21a <_ZN7ComplexC1Eff>
    2c34:	00 e0       	ldi	r16, 0x00	; 0
    2c36:	10 e0       	ldi	r17, 0x00	; 0
    2c38:	98 01       	movw	r18, r16
    2c3a:	b9 01       	movw	r22, r18
    2c3c:	a8 01       	movw	r20, r16
    2c3e:	ce 01       	movw	r24, r28
    2c40:	87 50       	subi	r24, 0x07	; 7
    2c42:	9f 4f       	sbci	r25, 0xFF	; 255
    2c44:	0e 94 0d 01 	call	0x21a	; 0x21a <_ZN7ComplexC1Eff>
    2c48:	00 e0       	ldi	r16, 0x00	; 0
    2c4a:	10 e0       	ldi	r17, 0x00	; 0
    2c4c:	98 01       	movw	r18, r16
    2c4e:	b9 01       	movw	r22, r18
    2c50:	a8 01       	movw	r20, r16
    2c52:	ce 01       	movw	r24, r28
    2c54:	8f 5f       	subi	r24, 0xFF	; 255
    2c56:	9e 4f       	sbci	r25, 0xFE	; 254
    2c58:	0e 94 0d 01 	call	0x21a	; 0x21a <_ZN7ComplexC1Eff>
    2c5c:	00 e0       	ldi	r16, 0x00	; 0
    2c5e:	10 e0       	ldi	r17, 0x00	; 0
    2c60:	98 01       	movw	r18, r16
    2c62:	b9 01       	movw	r22, r18
    2c64:	a8 01       	movw	r20, r16
    2c66:	ce 01       	movw	r24, r28
    2c68:	87 5f       	subi	r24, 0xF7	; 247
    2c6a:	9e 4f       	sbci	r25, 0xFE	; 254
    2c6c:	0e 94 0d 01 	call	0x21a	; 0x21a <_ZN7ComplexC1Eff>
    2c70:	00 e0       	ldi	r16, 0x00	; 0
    2c72:	10 e0       	ldi	r17, 0x00	; 0
    2c74:	98 01       	movw	r18, r16
    2c76:	b9 01       	movw	r22, r18
    2c78:	a8 01       	movw	r20, r16
    2c7a:	ce 01       	movw	r24, r28
    2c7c:	8f 5e       	subi	r24, 0xEF	; 239
    2c7e:	9e 4f       	sbci	r25, 0xFE	; 254
    2c80:	0e 94 0d 01 	call	0x21a	; 0x21a <_ZN7ComplexC1Eff>
    2c84:	00 e0       	ldi	r16, 0x00	; 0
    2c86:	10 e0       	ldi	r17, 0x00	; 0
    2c88:	98 01       	movw	r18, r16
    2c8a:	b9 01       	movw	r22, r18
    2c8c:	a8 01       	movw	r20, r16
    2c8e:	ce 01       	movw	r24, r28
    2c90:	87 5e       	subi	r24, 0xE7	; 231
    2c92:	9e 4f       	sbci	r25, 0xFE	; 254
    2c94:	0e 94 0d 01 	call	0x21a	; 0x21a <_ZN7ComplexC1Eff>
    2c98:	00 e0       	ldi	r16, 0x00	; 0
    2c9a:	10 e0       	ldi	r17, 0x00	; 0
    2c9c:	98 01       	movw	r18, r16
    2c9e:	40 e0       	ldi	r20, 0x00	; 0
    2ca0:	50 e0       	ldi	r21, 0x00	; 0
    2ca2:	60 e8       	ldi	r22, 0x80	; 128
    2ca4:	7f e3       	ldi	r23, 0x3F	; 63
    2ca6:	ce 01       	movw	r24, r28
    2ca8:	8f 5d       	subi	r24, 0xDF	; 223
    2caa:	9e 4f       	sbci	r25, 0xFE	; 254
    2cac:	0e 94 0d 01 	call	0x21a	; 0x21a <_ZN7ComplexC1Eff>
    2cb0:	00 e0       	ldi	r16, 0x00	; 0
    2cb2:	10 e0       	ldi	r17, 0x00	; 0
    2cb4:	98 01       	movw	r18, r16
    2cb6:	b9 01       	movw	r22, r18
    2cb8:	a8 01       	movw	r20, r16
    2cba:	ce 01       	movw	r24, r28
    2cbc:	87 5d       	subi	r24, 0xD7	; 215
    2cbe:	9e 4f       	sbci	r25, 0xFE	; 254
    2cc0:	0e 94 0d 01 	call	0x21a	; 0x21a <_ZN7ComplexC1Eff>
    2cc4:	00 e0       	ldi	r16, 0x00	; 0
    2cc6:	10 e0       	ldi	r17, 0x00	; 0
    2cc8:	98 01       	movw	r18, r16
    2cca:	b9 01       	movw	r22, r18
    2ccc:	a8 01       	movw	r20, r16
    2cce:	ce 01       	movw	r24, r28
    2cd0:	8f 5c       	subi	r24, 0xCF	; 207
    2cd2:	9e 4f       	sbci	r25, 0xFE	; 254
    2cd4:	0e 94 0d 01 	call	0x21a	; 0x21a <_ZN7ComplexC1Eff>
    2cd8:	00 e0       	ldi	r16, 0x00	; 0
    2cda:	10 e0       	ldi	r17, 0x00	; 0
    2cdc:	98 01       	movw	r18, r16
    2cde:	b9 01       	movw	r22, r18
    2ce0:	a8 01       	movw	r20, r16
    2ce2:	ce 01       	movw	r24, r28
    2ce4:	87 5c       	subi	r24, 0xC7	; 199
    2ce6:	9e 4f       	sbci	r25, 0xFE	; 254
    2ce8:	0e 94 0d 01 	call	0x21a	; 0x21a <_ZN7ComplexC1Eff>
    2cec:	00 e0       	ldi	r16, 0x00	; 0
    2cee:	10 e0       	ldi	r17, 0x00	; 0
    2cf0:	98 01       	movw	r18, r16
    2cf2:	b9 01       	movw	r22, r18
    2cf4:	a8 01       	movw	r20, r16
    2cf6:	ce 01       	movw	r24, r28
    2cf8:	8f 5b       	subi	r24, 0xBF	; 191
    2cfa:	9e 4f       	sbci	r25, 0xFE	; 254
    2cfc:	0e 94 0d 01 	call	0x21a	; 0x21a <_ZN7ComplexC1Eff>
    2d00:	00 e0       	ldi	r16, 0x00	; 0
    2d02:	10 e0       	ldi	r17, 0x00	; 0
    2d04:	98 01       	movw	r18, r16
    2d06:	b9 01       	movw	r22, r18
    2d08:	a8 01       	movw	r20, r16
    2d0a:	ce 01       	movw	r24, r28
    2d0c:	87 5b       	subi	r24, 0xB7	; 183
    2d0e:	9e 4f       	sbci	r25, 0xFE	; 254
    2d10:	0e 94 0d 01 	call	0x21a	; 0x21a <_ZN7ComplexC1Eff>
    2d14:	00 e0       	ldi	r16, 0x00	; 0
    2d16:	10 e0       	ldi	r17, 0x00	; 0
    2d18:	98 01       	movw	r18, r16
    2d1a:	b9 01       	movw	r22, r18
    2d1c:	a8 01       	movw	r20, r16
    2d1e:	ce 01       	movw	r24, r28
    2d20:	8f 5a       	subi	r24, 0xAF	; 175
    2d22:	9e 4f       	sbci	r25, 0xFE	; 254
    2d24:	0e 94 0d 01 	call	0x21a	; 0x21a <_ZN7ComplexC1Eff>
    2d28:	00 e0       	ldi	r16, 0x00	; 0
    2d2a:	10 e0       	ldi	r17, 0x00	; 0
    2d2c:	98 01       	movw	r18, r16
    2d2e:	b9 01       	movw	r22, r18
    2d30:	a8 01       	movw	r20, r16
    2d32:	ce 01       	movw	r24, r28
    2d34:	87 5a       	subi	r24, 0xA7	; 167
    2d36:	9e 4f       	sbci	r25, 0xFE	; 254
    2d38:	0e 94 0d 01 	call	0x21a	; 0x21a <_ZN7ComplexC1Eff>
    2d3c:	00 e0       	ldi	r16, 0x00	; 0
    2d3e:	10 e0       	ldi	r17, 0x00	; 0
    2d40:	98 01       	movw	r18, r16
    2d42:	b9 01       	movw	r22, r18
    2d44:	a8 01       	movw	r20, r16
    2d46:	ce 01       	movw	r24, r28
    2d48:	8f 59       	subi	r24, 0x9F	; 159
    2d4a:	9e 4f       	sbci	r25, 0xFE	; 254
    2d4c:	0e 94 0d 01 	call	0x21a	; 0x21a <_ZN7ComplexC1Eff>
    2d50:	00 e0       	ldi	r16, 0x00	; 0
    2d52:	10 e0       	ldi	r17, 0x00	; 0
    2d54:	98 01       	movw	r18, r16
    2d56:	b9 01       	movw	r22, r18
    2d58:	a8 01       	movw	r20, r16
    2d5a:	ce 01       	movw	r24, r28
    2d5c:	87 59       	subi	r24, 0x97	; 151
    2d5e:	9e 4f       	sbci	r25, 0xFE	; 254
    2d60:	0e 94 0d 01 	call	0x21a	; 0x21a <_ZN7ComplexC1Eff>
    2d64:	00 e0       	ldi	r16, 0x00	; 0
    2d66:	10 e0       	ldi	r17, 0x00	; 0
    2d68:	98 01       	movw	r18, r16
    2d6a:	40 e0       	ldi	r20, 0x00	; 0
    2d6c:	50 e0       	ldi	r21, 0x00	; 0
    2d6e:	60 e8       	ldi	r22, 0x80	; 128
    2d70:	7f e3       	ldi	r23, 0x3F	; 63
    2d72:	ce 01       	movw	r24, r28
    2d74:	8f 58       	subi	r24, 0x8F	; 143
    2d76:	9e 4f       	sbci	r25, 0xFE	; 254
    2d78:	0e 94 0d 01 	call	0x21a	; 0x21a <_ZN7ComplexC1Eff>
    2d7c:	00 e0       	ldi	r16, 0x00	; 0
    2d7e:	10 e0       	ldi	r17, 0x00	; 0
    2d80:	98 01       	movw	r18, r16
    2d82:	b9 01       	movw	r22, r18
    2d84:	a8 01       	movw	r20, r16
    2d86:	ce 01       	movw	r24, r28
    2d88:	87 58       	subi	r24, 0x87	; 135
    2d8a:	9e 4f       	sbci	r25, 0xFE	; 254
    2d8c:	0e 94 0d 01 	call	0x21a	; 0x21a <_ZN7ComplexC1Eff>
    2d90:	00 e0       	ldi	r16, 0x00	; 0
    2d92:	10 e0       	ldi	r17, 0x00	; 0
    2d94:	98 01       	movw	r18, r16
    2d96:	b9 01       	movw	r22, r18
    2d98:	a8 01       	movw	r20, r16
    2d9a:	ce 01       	movw	r24, r28
    2d9c:	8f 57       	subi	r24, 0x7F	; 127
    2d9e:	9e 4f       	sbci	r25, 0xFE	; 254
    2da0:	0e 94 0d 01 	call	0x21a	; 0x21a <_ZN7ComplexC1Eff>
    2da4:	00 e0       	ldi	r16, 0x00	; 0
    2da6:	10 e0       	ldi	r17, 0x00	; 0
    2da8:	98 01       	movw	r18, r16
    2daa:	b9 01       	movw	r22, r18
    2dac:	a8 01       	movw	r20, r16
    2dae:	ce 01       	movw	r24, r28
    2db0:	87 57       	subi	r24, 0x77	; 119
    2db2:	9e 4f       	sbci	r25, 0xFE	; 254
    2db4:	0e 94 0d 01 	call	0x21a	; 0x21a <_ZN7ComplexC1Eff>
    2db8:	00 e0       	ldi	r16, 0x00	; 0
    2dba:	10 e0       	ldi	r17, 0x00	; 0
    2dbc:	98 01       	movw	r18, r16
    2dbe:	b9 01       	movw	r22, r18
    2dc0:	a8 01       	movw	r20, r16
    2dc2:	ce 01       	movw	r24, r28
    2dc4:	8f 56       	subi	r24, 0x6F	; 111
    2dc6:	9e 4f       	sbci	r25, 0xFE	; 254
    2dc8:	0e 94 0d 01 	call	0x21a	; 0x21a <_ZN7ComplexC1Eff>
    2dcc:	00 e0       	ldi	r16, 0x00	; 0
    2dce:	10 e0       	ldi	r17, 0x00	; 0
    2dd0:	98 01       	movw	r18, r16
    2dd2:	b9 01       	movw	r22, r18
    2dd4:	a8 01       	movw	r20, r16
    2dd6:	ce 01       	movw	r24, r28
    2dd8:	87 56       	subi	r24, 0x67	; 103
    2dda:	9e 4f       	sbci	r25, 0xFE	; 254
    2ddc:	0e 94 0d 01 	call	0x21a	; 0x21a <_ZN7ComplexC1Eff>
    2de0:	00 e0       	ldi	r16, 0x00	; 0
    2de2:	10 e0       	ldi	r17, 0x00	; 0
    2de4:	98 01       	movw	r18, r16
    2de6:	b9 01       	movw	r22, r18
    2de8:	a8 01       	movw	r20, r16
    2dea:	ce 01       	movw	r24, r28
    2dec:	8f 55       	subi	r24, 0x5F	; 95
    2dee:	9e 4f       	sbci	r25, 0xFE	; 254
    2df0:	0e 94 0d 01 	call	0x21a	; 0x21a <_ZN7ComplexC1Eff>
    2df4:	00 e0       	ldi	r16, 0x00	; 0
    2df6:	10 e0       	ldi	r17, 0x00	; 0
    2df8:	98 01       	movw	r18, r16
    2dfa:	40 e0       	ldi	r20, 0x00	; 0
    2dfc:	50 e0       	ldi	r21, 0x00	; 0
    2dfe:	60 e8       	ldi	r22, 0x80	; 128
    2e00:	7f e3       	ldi	r23, 0x3F	; 63
    2e02:	ce 01       	movw	r24, r28
    2e04:	87 55       	subi	r24, 0x57	; 87
    2e06:	9e 4f       	sbci	r25, 0xFE	; 254
    2e08:	0e 94 0d 01 	call	0x21a	; 0x21a <_ZN7ComplexC1Eff>
    2e0c:	00 e0       	ldi	r16, 0x00	; 0
    2e0e:	10 e0       	ldi	r17, 0x00	; 0
    2e10:	98 01       	movw	r18, r16
    2e12:	b9 01       	movw	r22, r18
    2e14:	a8 01       	movw	r20, r16
    2e16:	ce 01       	movw	r24, r28
    2e18:	8f 54       	subi	r24, 0x4F	; 79
    2e1a:	9e 4f       	sbci	r25, 0xFE	; 254
    2e1c:	0e 94 0d 01 	call	0x21a	; 0x21a <_ZN7ComplexC1Eff>
    2e20:	00 e0       	ldi	r16, 0x00	; 0
    2e22:	10 e0       	ldi	r17, 0x00	; 0
    2e24:	98 01       	movw	r18, r16
    2e26:	b9 01       	movw	r22, r18
    2e28:	a8 01       	movw	r20, r16
    2e2a:	ce 01       	movw	r24, r28
    2e2c:	87 54       	subi	r24, 0x47	; 71
    2e2e:	9e 4f       	sbci	r25, 0xFE	; 254
    2e30:	0e 94 0d 01 	call	0x21a	; 0x21a <_ZN7ComplexC1Eff>
    2e34:	00 e0       	ldi	r16, 0x00	; 0
    2e36:	10 e0       	ldi	r17, 0x00	; 0
    2e38:	98 01       	movw	r18, r16
    2e3a:	b9 01       	movw	r22, r18
    2e3c:	a8 01       	movw	r20, r16
    2e3e:	ce 01       	movw	r24, r28
    2e40:	8f 53       	subi	r24, 0x3F	; 63
    2e42:	9e 4f       	sbci	r25, 0xFE	; 254
    2e44:	0e 94 0d 01 	call	0x21a	; 0x21a <_ZN7ComplexC1Eff>
    2e48:	00 e0       	ldi	r16, 0x00	; 0
    2e4a:	10 e0       	ldi	r17, 0x00	; 0
    2e4c:	98 01       	movw	r18, r16
    2e4e:	b9 01       	movw	r22, r18
    2e50:	a8 01       	movw	r20, r16
    2e52:	ce 01       	movw	r24, r28
    2e54:	87 53       	subi	r24, 0x37	; 55
    2e56:	9e 4f       	sbci	r25, 0xFE	; 254
    2e58:	0e 94 0d 01 	call	0x21a	; 0x21a <_ZN7ComplexC1Eff>
    2e5c:	00 e0       	ldi	r16, 0x00	; 0
    2e5e:	10 e0       	ldi	r17, 0x00	; 0
    2e60:	98 01       	movw	r18, r16
    2e62:	b9 01       	movw	r22, r18
    2e64:	a8 01       	movw	r20, r16
    2e66:	ce 01       	movw	r24, r28
    2e68:	8f 52       	subi	r24, 0x2F	; 47
    2e6a:	9e 4f       	sbci	r25, 0xFE	; 254
    2e6c:	0e 94 0d 01 	call	0x21a	; 0x21a <_ZN7ComplexC1Eff>
    2e70:	00 e0       	ldi	r16, 0x00	; 0
    2e72:	10 e0       	ldi	r17, 0x00	; 0
    2e74:	98 01       	movw	r18, r16
    2e76:	b9 01       	movw	r22, r18
    2e78:	a8 01       	movw	r20, r16
    2e7a:	ce 01       	movw	r24, r28
    2e7c:	87 52       	subi	r24, 0x27	; 39
    2e7e:	9e 4f       	sbci	r25, 0xFE	; 254
    2e80:	0e 94 0d 01 	call	0x21a	; 0x21a <_ZN7ComplexC1Eff>
    2e84:	00 e0       	ldi	r16, 0x00	; 0
    2e86:	10 e0       	ldi	r17, 0x00	; 0
    2e88:	98 01       	movw	r18, r16
    2e8a:	b9 01       	movw	r22, r18
    2e8c:	a8 01       	movw	r20, r16
    2e8e:	ce 01       	movw	r24, r28
    2e90:	8f 51       	subi	r24, 0x1F	; 31
    2e92:	9e 4f       	sbci	r25, 0xFE	; 254
    2e94:	0e 94 0d 01 	call	0x21a	; 0x21a <_ZN7ComplexC1Eff>
    2e98:	00 e0       	ldi	r16, 0x00	; 0
    2e9a:	10 e0       	ldi	r17, 0x00	; 0
    2e9c:	98 01       	movw	r18, r16
    2e9e:	b9 01       	movw	r22, r18
    2ea0:	a8 01       	movw	r20, r16
    2ea2:	ce 01       	movw	r24, r28
    2ea4:	87 51       	subi	r24, 0x17	; 23
    2ea6:	9e 4f       	sbci	r25, 0xFE	; 254
    2ea8:	0e 94 0d 01 	call	0x21a	; 0x21a <_ZN7ComplexC1Eff>
    2eac:	00 e0       	ldi	r16, 0x00	; 0
    2eae:	10 e0       	ldi	r17, 0x00	; 0
    2eb0:	98 01       	movw	r18, r16
    2eb2:	b9 01       	movw	r22, r18
    2eb4:	a8 01       	movw	r20, r16
    2eb6:	ce 01       	movw	r24, r28
    2eb8:	8f 50       	subi	r24, 0x0F	; 15
    2eba:	9e 4f       	sbci	r25, 0xFE	; 254
    2ebc:	0e 94 0d 01 	call	0x21a	; 0x21a <_ZN7ComplexC1Eff>
    2ec0:	00 e0       	ldi	r16, 0x00	; 0
    2ec2:	10 e0       	ldi	r17, 0x00	; 0
    2ec4:	98 01       	movw	r18, r16
    2ec6:	40 e0       	ldi	r20, 0x00	; 0
    2ec8:	50 e0       	ldi	r21, 0x00	; 0
    2eca:	60 e8       	ldi	r22, 0x80	; 128
    2ecc:	7f e3       	ldi	r23, 0x3F	; 63
    2ece:	ce 01       	movw	r24, r28
    2ed0:	87 50       	subi	r24, 0x07	; 7
    2ed2:	9e 4f       	sbci	r25, 0xFE	; 254
    2ed4:	0e 94 0d 01 	call	0x21a	; 0x21a <_ZN7ComplexC1Eff>
	int theta_list[QB_SIZE3]={theta1,theta2,theta3}; int phi_list[QB_SIZE3]={phi1,phi2,phi3};
    2ed8:	c9 5f       	subi	r28, 0xF9	; 249
    2eda:	dd 4f       	sbci	r29, 0xFD	; 253
    2edc:	79 82       	std	Y+1, r7	; 0x01
    2ede:	68 82       	st	Y, r6
    2ee0:	c7 50       	subi	r28, 0x07	; 7
    2ee2:	d2 40       	sbci	r29, 0x02	; 2
    2ee4:	c7 5f       	subi	r28, 0xF7	; 247
    2ee6:	dd 4f       	sbci	r29, 0xFD	; 253
    2ee8:	99 82       	std	Y+1, r9	; 0x01
    2eea:	88 82       	st	Y, r8
    2eec:	c9 50       	subi	r28, 0x09	; 9
    2eee:	d2 40       	sbci	r29, 0x02	; 2
    2ef0:	c5 5f       	subi	r28, 0xF5	; 245
    2ef2:	dd 4f       	sbci	r29, 0xFD	; 253
    2ef4:	f9 82       	std	Y+1, r15	; 0x01
    2ef6:	e8 82       	st	Y, r14
    2ef8:	cb 50       	subi	r28, 0x0B	; 11
    2efa:	d2 40       	sbci	r29, 0x02	; 2
    2efc:	cf 5f       	subi	r28, 0xFF	; 255
    2efe:	dd 4f       	sbci	r29, 0xFD	; 253
    2f00:	59 82       	std	Y+1, r5	; 0x01
    2f02:	48 82       	st	Y, r4
    2f04:	c1 50       	subi	r28, 0x01	; 1
    2f06:	d2 40       	sbci	r29, 0x02	; 2
    2f08:	cd 5f       	subi	r28, 0xFD	; 253
    2f0a:	dd 4f       	sbci	r29, 0xFD	; 253
    2f0c:	39 82       	std	Y+1, r3	; 0x01
    2f0e:	28 82       	st	Y, r2
    2f10:	c3 50       	subi	r28, 0x03	; 3
    2f12:	d2 40       	sbci	r29, 0x02	; 2
    2f14:	cb 5f       	subi	r28, 0xFB	; 251
    2f16:	dd 4f       	sbci	r29, 0xFD	; 253
    2f18:	d9 82       	std	Y+1, r13	; 0x01
    2f1a:	c8 82       	st	Y, r12
    2f1c:	c5 50       	subi	r28, 0x05	; 5
    2f1e:	d2 40       	sbci	r29, 0x02	; 2
	return vec2ampl(multiply8x8(ampl2vec(QB_SIZE3,theta_list,phi_list),csw_matrix),QB_SIZE3);
    2f20:	9e 01       	movw	r18, r28
    2f22:	2f 5f       	subi	r18, 0xFF	; 255
    2f24:	3d 4f       	sbci	r19, 0xFD	; 253
    2f26:	ae 01       	movw	r20, r28
    2f28:	49 5f       	subi	r20, 0xF9	; 249
    2f2a:	5d 4f       	sbci	r21, 0xFD	; 253
    2f2c:	63 e0       	ldi	r22, 0x03	; 3
    2f2e:	70 e0       	ldi	r23, 0x00	; 0
    2f30:	c5 01       	movw	r24, r10
    2f32:	0e 94 be 05 	call	0xb7c	; 0xb7c <_ZN5Gates8ampl2vecEiPiS0_>
    2f36:	ae 01       	movw	r20, r28
    2f38:	4f 5f       	subi	r20, 0xFF	; 255
    2f3a:	5f 4f       	sbci	r21, 0xFF	; 255
    2f3c:	bc 01       	movw	r22, r24
    2f3e:	c5 01       	movw	r24, r10
    2f40:	0e 94 bf 08 	call	0x117e	; 0x117e <_ZN5Gates11multiply8x8EP7ComplexPA8_S0_>
    2f44:	43 e0       	ldi	r20, 0x03	; 3
    2f46:	50 e0       	ldi	r21, 0x00	; 0
    2f48:	bc 01       	movw	r22, r24
    2f4a:	c5 01       	movw	r24, r10
    2f4c:	0e 94 c9 06 	call	0xd92	; 0xd92 <_ZN5Gates8vec2amplEP7Complexi>
}
    2f50:	c4 5f       	subi	r28, 0xF4	; 244
    2f52:	dd 4f       	sbci	r29, 0xFD	; 253
    2f54:	0f b6       	in	r0, 0x3f	; 63
    2f56:	f8 94       	cli
    2f58:	de bf       	out	0x3e, r29	; 62
    2f5a:	0f be       	out	0x3f, r0	; 63
    2f5c:	cd bf       	out	0x3d, r28	; 61
    2f5e:	df 91       	pop	r29
    2f60:	cf 91       	pop	r28
    2f62:	1f 91       	pop	r17
    2f64:	0f 91       	pop	r16
    2f66:	ff 90       	pop	r15
    2f68:	ef 90       	pop	r14
    2f6a:	df 90       	pop	r13
    2f6c:	cf 90       	pop	r12
    2f6e:	bf 90       	pop	r11
    2f70:	af 90       	pop	r10
    2f72:	9f 90       	pop	r9
    2f74:	8f 90       	pop	r8
    2f76:	7f 90       	pop	r7
    2f78:	6f 90       	pop	r6
    2f7a:	5f 90       	pop	r5
    2f7c:	4f 90       	pop	r4
    2f7e:	3f 90       	pop	r3
    2f80:	2f 90       	pop	r2
    2f82:	08 95       	ret

00002f84 <_ZN5Gates3TOFEiiiiii>:
int * Gates::TOF(int theta1, int phi1,int theta2,int phi2,int theta3,int phi3){
    2f84:	2f 92       	push	r2
    2f86:	3f 92       	push	r3
    2f88:	4f 92       	push	r4
    2f8a:	5f 92       	push	r5
    2f8c:	6f 92       	push	r6
    2f8e:	7f 92       	push	r7
    2f90:	8f 92       	push	r8
    2f92:	9f 92       	push	r9
    2f94:	af 92       	push	r10
    2f96:	bf 92       	push	r11
    2f98:	cf 92       	push	r12
    2f9a:	df 92       	push	r13
    2f9c:	ef 92       	push	r14
    2f9e:	ff 92       	push	r15
    2fa0:	0f 93       	push	r16
    2fa2:	1f 93       	push	r17
    2fa4:	cf 93       	push	r28
    2fa6:	df 93       	push	r29
    2fa8:	cd b7       	in	r28, 0x3d	; 61
    2faa:	de b7       	in	r29, 0x3e	; 62
    2fac:	cc 50       	subi	r28, 0x0C	; 12
    2fae:	d2 40       	sbci	r29, 0x02	; 2
    2fb0:	0f b6       	in	r0, 0x3f	; 63
    2fb2:	f8 94       	cli
    2fb4:	de bf       	out	0x3e, r29	; 62
    2fb6:	0f be       	out	0x3f, r0	; 63
    2fb8:	cd bf       	out	0x3d, r28	; 61
    2fba:	5c 01       	movw	r10, r24
    2fbc:	3b 01       	movw	r6, r22
    2fbe:	2a 01       	movw	r4, r20
    2fc0:	49 01       	movw	r8, r18
    2fc2:	18 01       	movw	r2, r16
														  {Complex(0,0),Complex(0,0),Complex(1,0),Complex(0,0),Complex(0,0),Complex(0,0),Complex(0,0),Complex(0,0)},
														  {Complex(0,0),Complex(0,0),Complex(0,0),Complex(1,0),Complex(0,0),Complex(0,0),Complex(0,0),Complex(0,0)},
														  {Complex(0,0),Complex(0,0),Complex(0,0),Complex(0,0),Complex(1,0),Complex(0,0),Complex(0,0),Complex(0,0)},
														  {Complex(0,0),Complex(0,0),Complex(0,0),Complex(0,0),Complex(0,0),Complex(1,0),Complex(0,0),Complex(0,0)},
														  {Complex(0,0),Complex(0,0),Complex(0,0),Complex(0,0),Complex(0,0),Complex(0,0),Complex(0,0),Complex(1,0)},
														  {Complex(0,0),Complex(0,0),Complex(0,0),Complex(0,0),Complex(0,0),Complex(0,0),Complex(1,0),Complex(0,0)}};
    2fc4:	00 e0       	ldi	r16, 0x00	; 0
    2fc6:	10 e0       	ldi	r17, 0x00	; 0
    2fc8:	98 01       	movw	r18, r16
    2fca:	40 e0       	ldi	r20, 0x00	; 0
    2fcc:	50 e0       	ldi	r21, 0x00	; 0
    2fce:	60 e8       	ldi	r22, 0x80	; 128
    2fd0:	7f e3       	ldi	r23, 0x3F	; 63
    2fd2:	ce 01       	movw	r24, r28
    2fd4:	01 96       	adiw	r24, 0x01	; 1
    2fd6:	0e 94 0d 01 	call	0x21a	; 0x21a <_ZN7ComplexC1Eff>
    2fda:	00 e0       	ldi	r16, 0x00	; 0
    2fdc:	10 e0       	ldi	r17, 0x00	; 0
    2fde:	98 01       	movw	r18, r16
    2fe0:	b9 01       	movw	r22, r18
    2fe2:	a8 01       	movw	r20, r16
    2fe4:	ce 01       	movw	r24, r28
    2fe6:	09 96       	adiw	r24, 0x09	; 9
    2fe8:	0e 94 0d 01 	call	0x21a	; 0x21a <_ZN7ComplexC1Eff>
    2fec:	00 e0       	ldi	r16, 0x00	; 0
    2fee:	10 e0       	ldi	r17, 0x00	; 0
    2ff0:	98 01       	movw	r18, r16
    2ff2:	b9 01       	movw	r22, r18
    2ff4:	a8 01       	movw	r20, r16
    2ff6:	ce 01       	movw	r24, r28
    2ff8:	41 96       	adiw	r24, 0x11	; 17
    2ffa:	0e 94 0d 01 	call	0x21a	; 0x21a <_ZN7ComplexC1Eff>
    2ffe:	00 e0       	ldi	r16, 0x00	; 0
    3000:	10 e0       	ldi	r17, 0x00	; 0
    3002:	98 01       	movw	r18, r16
    3004:	b9 01       	movw	r22, r18
    3006:	a8 01       	movw	r20, r16
    3008:	ce 01       	movw	r24, r28
    300a:	49 96       	adiw	r24, 0x19	; 25
    300c:	0e 94 0d 01 	call	0x21a	; 0x21a <_ZN7ComplexC1Eff>
    3010:	00 e0       	ldi	r16, 0x00	; 0
    3012:	10 e0       	ldi	r17, 0x00	; 0
    3014:	98 01       	movw	r18, r16
    3016:	b9 01       	movw	r22, r18
    3018:	a8 01       	movw	r20, r16
    301a:	ce 01       	movw	r24, r28
    301c:	81 96       	adiw	r24, 0x21	; 33
    301e:	0e 94 0d 01 	call	0x21a	; 0x21a <_ZN7ComplexC1Eff>
    3022:	00 e0       	ldi	r16, 0x00	; 0
    3024:	10 e0       	ldi	r17, 0x00	; 0
    3026:	98 01       	movw	r18, r16
    3028:	b9 01       	movw	r22, r18
    302a:	a8 01       	movw	r20, r16
    302c:	ce 01       	movw	r24, r28
    302e:	89 96       	adiw	r24, 0x29	; 41
    3030:	0e 94 0d 01 	call	0x21a	; 0x21a <_ZN7ComplexC1Eff>
    3034:	00 e0       	ldi	r16, 0x00	; 0
    3036:	10 e0       	ldi	r17, 0x00	; 0
    3038:	98 01       	movw	r18, r16
    303a:	b9 01       	movw	r22, r18
    303c:	a8 01       	movw	r20, r16
    303e:	ce 01       	movw	r24, r28
    3040:	c1 96       	adiw	r24, 0x31	; 49
    3042:	0e 94 0d 01 	call	0x21a	; 0x21a <_ZN7ComplexC1Eff>
    3046:	00 e0       	ldi	r16, 0x00	; 0
    3048:	10 e0       	ldi	r17, 0x00	; 0
    304a:	98 01       	movw	r18, r16
    304c:	b9 01       	movw	r22, r18
    304e:	a8 01       	movw	r20, r16
    3050:	ce 01       	movw	r24, r28
    3052:	c9 96       	adiw	r24, 0x39	; 57
    3054:	0e 94 0d 01 	call	0x21a	; 0x21a <_ZN7ComplexC1Eff>
    3058:	00 e0       	ldi	r16, 0x00	; 0
    305a:	10 e0       	ldi	r17, 0x00	; 0
    305c:	98 01       	movw	r18, r16
    305e:	b9 01       	movw	r22, r18
    3060:	a8 01       	movw	r20, r16
    3062:	ce 01       	movw	r24, r28
    3064:	8f 5b       	subi	r24, 0xBF	; 191
    3066:	9f 4f       	sbci	r25, 0xFF	; 255
    3068:	0e 94 0d 01 	call	0x21a	; 0x21a <_ZN7ComplexC1Eff>
    306c:	00 e0       	ldi	r16, 0x00	; 0
    306e:	10 e0       	ldi	r17, 0x00	; 0
    3070:	98 01       	movw	r18, r16
    3072:	40 e0       	ldi	r20, 0x00	; 0
    3074:	50 e0       	ldi	r21, 0x00	; 0
    3076:	60 e8       	ldi	r22, 0x80	; 128
    3078:	7f e3       	ldi	r23, 0x3F	; 63
    307a:	ce 01       	movw	r24, r28
    307c:	87 5b       	subi	r24, 0xB7	; 183
    307e:	9f 4f       	sbci	r25, 0xFF	; 255
    3080:	0e 94 0d 01 	call	0x21a	; 0x21a <_ZN7ComplexC1Eff>
    3084:	00 e0       	ldi	r16, 0x00	; 0
    3086:	10 e0       	ldi	r17, 0x00	; 0
    3088:	98 01       	movw	r18, r16
    308a:	b9 01       	movw	r22, r18
    308c:	a8 01       	movw	r20, r16
    308e:	ce 01       	movw	r24, r28
    3090:	8f 5a       	subi	r24, 0xAF	; 175
    3092:	9f 4f       	sbci	r25, 0xFF	; 255
    3094:	0e 94 0d 01 	call	0x21a	; 0x21a <_ZN7ComplexC1Eff>
    3098:	00 e0       	ldi	r16, 0x00	; 0
    309a:	10 e0       	ldi	r17, 0x00	; 0
    309c:	98 01       	movw	r18, r16
    309e:	b9 01       	movw	r22, r18
    30a0:	a8 01       	movw	r20, r16
    30a2:	ce 01       	movw	r24, r28
    30a4:	87 5a       	subi	r24, 0xA7	; 167
    30a6:	9f 4f       	sbci	r25, 0xFF	; 255
    30a8:	0e 94 0d 01 	call	0x21a	; 0x21a <_ZN7ComplexC1Eff>
    30ac:	00 e0       	ldi	r16, 0x00	; 0
    30ae:	10 e0       	ldi	r17, 0x00	; 0
    30b0:	98 01       	movw	r18, r16
    30b2:	b9 01       	movw	r22, r18
    30b4:	a8 01       	movw	r20, r16
    30b6:	ce 01       	movw	r24, r28
    30b8:	8f 59       	subi	r24, 0x9F	; 159
    30ba:	9f 4f       	sbci	r25, 0xFF	; 255
    30bc:	0e 94 0d 01 	call	0x21a	; 0x21a <_ZN7ComplexC1Eff>
    30c0:	00 e0       	ldi	r16, 0x00	; 0
    30c2:	10 e0       	ldi	r17, 0x00	; 0
    30c4:	98 01       	movw	r18, r16
    30c6:	b9 01       	movw	r22, r18
    30c8:	a8 01       	movw	r20, r16
    30ca:	ce 01       	movw	r24, r28
    30cc:	87 59       	subi	r24, 0x97	; 151
    30ce:	9f 4f       	sbci	r25, 0xFF	; 255
    30d0:	0e 94 0d 01 	call	0x21a	; 0x21a <_ZN7ComplexC1Eff>
    30d4:	00 e0       	ldi	r16, 0x00	; 0
    30d6:	10 e0       	ldi	r17, 0x00	; 0
    30d8:	98 01       	movw	r18, r16
    30da:	b9 01       	movw	r22, r18
    30dc:	a8 01       	movw	r20, r16
    30de:	ce 01       	movw	r24, r28
    30e0:	8f 58       	subi	r24, 0x8F	; 143
    30e2:	9f 4f       	sbci	r25, 0xFF	; 255
    30e4:	0e 94 0d 01 	call	0x21a	; 0x21a <_ZN7ComplexC1Eff>
    30e8:	00 e0       	ldi	r16, 0x00	; 0
    30ea:	10 e0       	ldi	r17, 0x00	; 0
    30ec:	98 01       	movw	r18, r16
    30ee:	b9 01       	movw	r22, r18
    30f0:	a8 01       	movw	r20, r16
    30f2:	ce 01       	movw	r24, r28
    30f4:	87 58       	subi	r24, 0x87	; 135
    30f6:	9f 4f       	sbci	r25, 0xFF	; 255
    30f8:	0e 94 0d 01 	call	0x21a	; 0x21a <_ZN7ComplexC1Eff>
    30fc:	00 e0       	ldi	r16, 0x00	; 0
    30fe:	10 e0       	ldi	r17, 0x00	; 0
    3100:	98 01       	movw	r18, r16
    3102:	b9 01       	movw	r22, r18
    3104:	a8 01       	movw	r20, r16
    3106:	ce 01       	movw	r24, r28
    3108:	8f 57       	subi	r24, 0x7F	; 127
    310a:	9f 4f       	sbci	r25, 0xFF	; 255
    310c:	0e 94 0d 01 	call	0x21a	; 0x21a <_ZN7ComplexC1Eff>
    3110:	00 e0       	ldi	r16, 0x00	; 0
    3112:	10 e0       	ldi	r17, 0x00	; 0
    3114:	98 01       	movw	r18, r16
    3116:	b9 01       	movw	r22, r18
    3118:	a8 01       	movw	r20, r16
    311a:	ce 01       	movw	r24, r28
    311c:	87 57       	subi	r24, 0x77	; 119
    311e:	9f 4f       	sbci	r25, 0xFF	; 255
    3120:	0e 94 0d 01 	call	0x21a	; 0x21a <_ZN7ComplexC1Eff>
    3124:	00 e0       	ldi	r16, 0x00	; 0
    3126:	10 e0       	ldi	r17, 0x00	; 0
    3128:	98 01       	movw	r18, r16
    312a:	40 e0       	ldi	r20, 0x00	; 0
    312c:	50 e0       	ldi	r21, 0x00	; 0
    312e:	60 e8       	ldi	r22, 0x80	; 128
    3130:	7f e3       	ldi	r23, 0x3F	; 63
    3132:	ce 01       	movw	r24, r28
    3134:	8f 56       	subi	r24, 0x6F	; 111
    3136:	9f 4f       	sbci	r25, 0xFF	; 255
    3138:	0e 94 0d 01 	call	0x21a	; 0x21a <_ZN7ComplexC1Eff>
    313c:	00 e0       	ldi	r16, 0x00	; 0
    313e:	10 e0       	ldi	r17, 0x00	; 0
    3140:	98 01       	movw	r18, r16
    3142:	b9 01       	movw	r22, r18
    3144:	a8 01       	movw	r20, r16
    3146:	ce 01       	movw	r24, r28
    3148:	87 56       	subi	r24, 0x67	; 103
    314a:	9f 4f       	sbci	r25, 0xFF	; 255
    314c:	0e 94 0d 01 	call	0x21a	; 0x21a <_ZN7ComplexC1Eff>
    3150:	00 e0       	ldi	r16, 0x00	; 0
    3152:	10 e0       	ldi	r17, 0x00	; 0
    3154:	98 01       	movw	r18, r16
    3156:	b9 01       	movw	r22, r18
    3158:	a8 01       	movw	r20, r16
    315a:	ce 01       	movw	r24, r28
    315c:	8f 55       	subi	r24, 0x5F	; 95
    315e:	9f 4f       	sbci	r25, 0xFF	; 255
    3160:	0e 94 0d 01 	call	0x21a	; 0x21a <_ZN7ComplexC1Eff>
    3164:	00 e0       	ldi	r16, 0x00	; 0
    3166:	10 e0       	ldi	r17, 0x00	; 0
    3168:	98 01       	movw	r18, r16
    316a:	b9 01       	movw	r22, r18
    316c:	a8 01       	movw	r20, r16
    316e:	ce 01       	movw	r24, r28
    3170:	87 55       	subi	r24, 0x57	; 87
    3172:	9f 4f       	sbci	r25, 0xFF	; 255
    3174:	0e 94 0d 01 	call	0x21a	; 0x21a <_ZN7ComplexC1Eff>
    3178:	00 e0       	ldi	r16, 0x00	; 0
    317a:	10 e0       	ldi	r17, 0x00	; 0
    317c:	98 01       	movw	r18, r16
    317e:	b9 01       	movw	r22, r18
    3180:	a8 01       	movw	r20, r16
    3182:	ce 01       	movw	r24, r28
    3184:	8f 54       	subi	r24, 0x4F	; 79
    3186:	9f 4f       	sbci	r25, 0xFF	; 255
    3188:	0e 94 0d 01 	call	0x21a	; 0x21a <_ZN7ComplexC1Eff>
    318c:	00 e0       	ldi	r16, 0x00	; 0
    318e:	10 e0       	ldi	r17, 0x00	; 0
    3190:	98 01       	movw	r18, r16
    3192:	b9 01       	movw	r22, r18
    3194:	a8 01       	movw	r20, r16
    3196:	ce 01       	movw	r24, r28
    3198:	87 54       	subi	r24, 0x47	; 71
    319a:	9f 4f       	sbci	r25, 0xFF	; 255
    319c:	0e 94 0d 01 	call	0x21a	; 0x21a <_ZN7ComplexC1Eff>
    31a0:	00 e0       	ldi	r16, 0x00	; 0
    31a2:	10 e0       	ldi	r17, 0x00	; 0
    31a4:	98 01       	movw	r18, r16
    31a6:	b9 01       	movw	r22, r18
    31a8:	a8 01       	movw	r20, r16
    31aa:	ce 01       	movw	r24, r28
    31ac:	8f 53       	subi	r24, 0x3F	; 63
    31ae:	9f 4f       	sbci	r25, 0xFF	; 255
    31b0:	0e 94 0d 01 	call	0x21a	; 0x21a <_ZN7ComplexC1Eff>
    31b4:	00 e0       	ldi	r16, 0x00	; 0
    31b6:	10 e0       	ldi	r17, 0x00	; 0
    31b8:	98 01       	movw	r18, r16
    31ba:	b9 01       	movw	r22, r18
    31bc:	a8 01       	movw	r20, r16
    31be:	ce 01       	movw	r24, r28
    31c0:	87 53       	subi	r24, 0x37	; 55
    31c2:	9f 4f       	sbci	r25, 0xFF	; 255
    31c4:	0e 94 0d 01 	call	0x21a	; 0x21a <_ZN7ComplexC1Eff>
    31c8:	00 e0       	ldi	r16, 0x00	; 0
    31ca:	10 e0       	ldi	r17, 0x00	; 0
    31cc:	98 01       	movw	r18, r16
    31ce:	b9 01       	movw	r22, r18
    31d0:	a8 01       	movw	r20, r16
    31d2:	ce 01       	movw	r24, r28
    31d4:	8f 52       	subi	r24, 0x2F	; 47
    31d6:	9f 4f       	sbci	r25, 0xFF	; 255
    31d8:	0e 94 0d 01 	call	0x21a	; 0x21a <_ZN7ComplexC1Eff>
    31dc:	00 e0       	ldi	r16, 0x00	; 0
    31de:	10 e0       	ldi	r17, 0x00	; 0
    31e0:	98 01       	movw	r18, r16
    31e2:	40 e0       	ldi	r20, 0x00	; 0
    31e4:	50 e0       	ldi	r21, 0x00	; 0
    31e6:	60 e8       	ldi	r22, 0x80	; 128
    31e8:	7f e3       	ldi	r23, 0x3F	; 63
    31ea:	ce 01       	movw	r24, r28
    31ec:	87 52       	subi	r24, 0x27	; 39
    31ee:	9f 4f       	sbci	r25, 0xFF	; 255
    31f0:	0e 94 0d 01 	call	0x21a	; 0x21a <_ZN7ComplexC1Eff>
    31f4:	00 e0       	ldi	r16, 0x00	; 0
    31f6:	10 e0       	ldi	r17, 0x00	; 0
    31f8:	98 01       	movw	r18, r16
    31fa:	b9 01       	movw	r22, r18
    31fc:	a8 01       	movw	r20, r16
    31fe:	ce 01       	movw	r24, r28
    3200:	8f 51       	subi	r24, 0x1F	; 31
    3202:	9f 4f       	sbci	r25, 0xFF	; 255
    3204:	0e 94 0d 01 	call	0x21a	; 0x21a <_ZN7ComplexC1Eff>
    3208:	00 e0       	ldi	r16, 0x00	; 0
    320a:	10 e0       	ldi	r17, 0x00	; 0
    320c:	98 01       	movw	r18, r16
    320e:	b9 01       	movw	r22, r18
    3210:	a8 01       	movw	r20, r16
    3212:	ce 01       	movw	r24, r28
    3214:	87 51       	subi	r24, 0x17	; 23
    3216:	9f 4f       	sbci	r25, 0xFF	; 255
    3218:	0e 94 0d 01 	call	0x21a	; 0x21a <_ZN7ComplexC1Eff>
    321c:	00 e0       	ldi	r16, 0x00	; 0
    321e:	10 e0       	ldi	r17, 0x00	; 0
    3220:	98 01       	movw	r18, r16
    3222:	b9 01       	movw	r22, r18
    3224:	a8 01       	movw	r20, r16
    3226:	ce 01       	movw	r24, r28
    3228:	8f 50       	subi	r24, 0x0F	; 15
    322a:	9f 4f       	sbci	r25, 0xFF	; 255
    322c:	0e 94 0d 01 	call	0x21a	; 0x21a <_ZN7ComplexC1Eff>
    3230:	00 e0       	ldi	r16, 0x00	; 0
    3232:	10 e0       	ldi	r17, 0x00	; 0
    3234:	98 01       	movw	r18, r16
    3236:	b9 01       	movw	r22, r18
    3238:	a8 01       	movw	r20, r16
    323a:	ce 01       	movw	r24, r28
    323c:	87 50       	subi	r24, 0x07	; 7
    323e:	9f 4f       	sbci	r25, 0xFF	; 255
    3240:	0e 94 0d 01 	call	0x21a	; 0x21a <_ZN7ComplexC1Eff>
    3244:	00 e0       	ldi	r16, 0x00	; 0
    3246:	10 e0       	ldi	r17, 0x00	; 0
    3248:	98 01       	movw	r18, r16
    324a:	b9 01       	movw	r22, r18
    324c:	a8 01       	movw	r20, r16
    324e:	ce 01       	movw	r24, r28
    3250:	8f 5f       	subi	r24, 0xFF	; 255
    3252:	9e 4f       	sbci	r25, 0xFE	; 254
    3254:	0e 94 0d 01 	call	0x21a	; 0x21a <_ZN7ComplexC1Eff>
    3258:	00 e0       	ldi	r16, 0x00	; 0
    325a:	10 e0       	ldi	r17, 0x00	; 0
    325c:	98 01       	movw	r18, r16
    325e:	b9 01       	movw	r22, r18
    3260:	a8 01       	movw	r20, r16
    3262:	ce 01       	movw	r24, r28
    3264:	87 5f       	subi	r24, 0xF7	; 247
    3266:	9e 4f       	sbci	r25, 0xFE	; 254
    3268:	0e 94 0d 01 	call	0x21a	; 0x21a <_ZN7ComplexC1Eff>
    326c:	00 e0       	ldi	r16, 0x00	; 0
    326e:	10 e0       	ldi	r17, 0x00	; 0
    3270:	98 01       	movw	r18, r16
    3272:	b9 01       	movw	r22, r18
    3274:	a8 01       	movw	r20, r16
    3276:	ce 01       	movw	r24, r28
    3278:	8f 5e       	subi	r24, 0xEF	; 239
    327a:	9e 4f       	sbci	r25, 0xFE	; 254
    327c:	0e 94 0d 01 	call	0x21a	; 0x21a <_ZN7ComplexC1Eff>
    3280:	00 e0       	ldi	r16, 0x00	; 0
    3282:	10 e0       	ldi	r17, 0x00	; 0
    3284:	98 01       	movw	r18, r16
    3286:	b9 01       	movw	r22, r18
    3288:	a8 01       	movw	r20, r16
    328a:	ce 01       	movw	r24, r28
    328c:	87 5e       	subi	r24, 0xE7	; 231
    328e:	9e 4f       	sbci	r25, 0xFE	; 254
    3290:	0e 94 0d 01 	call	0x21a	; 0x21a <_ZN7ComplexC1Eff>
    3294:	00 e0       	ldi	r16, 0x00	; 0
    3296:	10 e0       	ldi	r17, 0x00	; 0
    3298:	98 01       	movw	r18, r16
    329a:	40 e0       	ldi	r20, 0x00	; 0
    329c:	50 e0       	ldi	r21, 0x00	; 0
    329e:	60 e8       	ldi	r22, 0x80	; 128
    32a0:	7f e3       	ldi	r23, 0x3F	; 63
    32a2:	ce 01       	movw	r24, r28
    32a4:	8f 5d       	subi	r24, 0xDF	; 223
    32a6:	9e 4f       	sbci	r25, 0xFE	; 254
    32a8:	0e 94 0d 01 	call	0x21a	; 0x21a <_ZN7ComplexC1Eff>
    32ac:	00 e0       	ldi	r16, 0x00	; 0
    32ae:	10 e0       	ldi	r17, 0x00	; 0
    32b0:	98 01       	movw	r18, r16
    32b2:	b9 01       	movw	r22, r18
    32b4:	a8 01       	movw	r20, r16
    32b6:	ce 01       	movw	r24, r28
    32b8:	87 5d       	subi	r24, 0xD7	; 215
    32ba:	9e 4f       	sbci	r25, 0xFE	; 254
    32bc:	0e 94 0d 01 	call	0x21a	; 0x21a <_ZN7ComplexC1Eff>
    32c0:	00 e0       	ldi	r16, 0x00	; 0
    32c2:	10 e0       	ldi	r17, 0x00	; 0
    32c4:	98 01       	movw	r18, r16
    32c6:	b9 01       	movw	r22, r18
    32c8:	a8 01       	movw	r20, r16
    32ca:	ce 01       	movw	r24, r28
    32cc:	8f 5c       	subi	r24, 0xCF	; 207
    32ce:	9e 4f       	sbci	r25, 0xFE	; 254
    32d0:	0e 94 0d 01 	call	0x21a	; 0x21a <_ZN7ComplexC1Eff>
    32d4:	00 e0       	ldi	r16, 0x00	; 0
    32d6:	10 e0       	ldi	r17, 0x00	; 0
    32d8:	98 01       	movw	r18, r16
    32da:	b9 01       	movw	r22, r18
    32dc:	a8 01       	movw	r20, r16
    32de:	ce 01       	movw	r24, r28
    32e0:	87 5c       	subi	r24, 0xC7	; 199
    32e2:	9e 4f       	sbci	r25, 0xFE	; 254
    32e4:	0e 94 0d 01 	call	0x21a	; 0x21a <_ZN7ComplexC1Eff>
    32e8:	00 e0       	ldi	r16, 0x00	; 0
    32ea:	10 e0       	ldi	r17, 0x00	; 0
    32ec:	98 01       	movw	r18, r16
    32ee:	b9 01       	movw	r22, r18
    32f0:	a8 01       	movw	r20, r16
    32f2:	ce 01       	movw	r24, r28
    32f4:	8f 5b       	subi	r24, 0xBF	; 191
    32f6:	9e 4f       	sbci	r25, 0xFE	; 254
    32f8:	0e 94 0d 01 	call	0x21a	; 0x21a <_ZN7ComplexC1Eff>
    32fc:	00 e0       	ldi	r16, 0x00	; 0
    32fe:	10 e0       	ldi	r17, 0x00	; 0
    3300:	98 01       	movw	r18, r16
    3302:	b9 01       	movw	r22, r18
    3304:	a8 01       	movw	r20, r16
    3306:	ce 01       	movw	r24, r28
    3308:	87 5b       	subi	r24, 0xB7	; 183
    330a:	9e 4f       	sbci	r25, 0xFE	; 254
    330c:	0e 94 0d 01 	call	0x21a	; 0x21a <_ZN7ComplexC1Eff>
    3310:	00 e0       	ldi	r16, 0x00	; 0
    3312:	10 e0       	ldi	r17, 0x00	; 0
    3314:	98 01       	movw	r18, r16
    3316:	b9 01       	movw	r22, r18
    3318:	a8 01       	movw	r20, r16
    331a:	ce 01       	movw	r24, r28
    331c:	8f 5a       	subi	r24, 0xAF	; 175
    331e:	9e 4f       	sbci	r25, 0xFE	; 254
    3320:	0e 94 0d 01 	call	0x21a	; 0x21a <_ZN7ComplexC1Eff>
    3324:	00 e0       	ldi	r16, 0x00	; 0
    3326:	10 e0       	ldi	r17, 0x00	; 0
    3328:	98 01       	movw	r18, r16
    332a:	b9 01       	movw	r22, r18
    332c:	a8 01       	movw	r20, r16
    332e:	ce 01       	movw	r24, r28
    3330:	87 5a       	subi	r24, 0xA7	; 167
    3332:	9e 4f       	sbci	r25, 0xFE	; 254
    3334:	0e 94 0d 01 	call	0x21a	; 0x21a <_ZN7ComplexC1Eff>
    3338:	00 e0       	ldi	r16, 0x00	; 0
    333a:	10 e0       	ldi	r17, 0x00	; 0
    333c:	98 01       	movw	r18, r16
    333e:	b9 01       	movw	r22, r18
    3340:	a8 01       	movw	r20, r16
    3342:	ce 01       	movw	r24, r28
    3344:	8f 59       	subi	r24, 0x9F	; 159
    3346:	9e 4f       	sbci	r25, 0xFE	; 254
    3348:	0e 94 0d 01 	call	0x21a	; 0x21a <_ZN7ComplexC1Eff>
    334c:	00 e0       	ldi	r16, 0x00	; 0
    334e:	10 e0       	ldi	r17, 0x00	; 0
    3350:	98 01       	movw	r18, r16
    3352:	40 e0       	ldi	r20, 0x00	; 0
    3354:	50 e0       	ldi	r21, 0x00	; 0
    3356:	60 e8       	ldi	r22, 0x80	; 128
    3358:	7f e3       	ldi	r23, 0x3F	; 63
    335a:	ce 01       	movw	r24, r28
    335c:	87 59       	subi	r24, 0x97	; 151
    335e:	9e 4f       	sbci	r25, 0xFE	; 254
    3360:	0e 94 0d 01 	call	0x21a	; 0x21a <_ZN7ComplexC1Eff>
    3364:	00 e0       	ldi	r16, 0x00	; 0
    3366:	10 e0       	ldi	r17, 0x00	; 0
    3368:	98 01       	movw	r18, r16
    336a:	b9 01       	movw	r22, r18
    336c:	a8 01       	movw	r20, r16
    336e:	ce 01       	movw	r24, r28
    3370:	8f 58       	subi	r24, 0x8F	; 143
    3372:	9e 4f       	sbci	r25, 0xFE	; 254
    3374:	0e 94 0d 01 	call	0x21a	; 0x21a <_ZN7ComplexC1Eff>
    3378:	00 e0       	ldi	r16, 0x00	; 0
    337a:	10 e0       	ldi	r17, 0x00	; 0
    337c:	98 01       	movw	r18, r16
    337e:	b9 01       	movw	r22, r18
    3380:	a8 01       	movw	r20, r16
    3382:	ce 01       	movw	r24, r28
    3384:	87 58       	subi	r24, 0x87	; 135
    3386:	9e 4f       	sbci	r25, 0xFE	; 254
    3388:	0e 94 0d 01 	call	0x21a	; 0x21a <_ZN7ComplexC1Eff>
    338c:	00 e0       	ldi	r16, 0x00	; 0
    338e:	10 e0       	ldi	r17, 0x00	; 0
    3390:	98 01       	movw	r18, r16
    3392:	b9 01       	movw	r22, r18
    3394:	a8 01       	movw	r20, r16
    3396:	ce 01       	movw	r24, r28
    3398:	8f 57       	subi	r24, 0x7F	; 127
    339a:	9e 4f       	sbci	r25, 0xFE	; 254
    339c:	0e 94 0d 01 	call	0x21a	; 0x21a <_ZN7ComplexC1Eff>
    33a0:	00 e0       	ldi	r16, 0x00	; 0
    33a2:	10 e0       	ldi	r17, 0x00	; 0
    33a4:	98 01       	movw	r18, r16
    33a6:	b9 01       	movw	r22, r18
    33a8:	a8 01       	movw	r20, r16
    33aa:	ce 01       	movw	r24, r28
    33ac:	87 57       	subi	r24, 0x77	; 119
    33ae:	9e 4f       	sbci	r25, 0xFE	; 254
    33b0:	0e 94 0d 01 	call	0x21a	; 0x21a <_ZN7ComplexC1Eff>
    33b4:	00 e0       	ldi	r16, 0x00	; 0
    33b6:	10 e0       	ldi	r17, 0x00	; 0
    33b8:	98 01       	movw	r18, r16
    33ba:	b9 01       	movw	r22, r18
    33bc:	a8 01       	movw	r20, r16
    33be:	ce 01       	movw	r24, r28
    33c0:	8f 56       	subi	r24, 0x6F	; 111
    33c2:	9e 4f       	sbci	r25, 0xFE	; 254
    33c4:	0e 94 0d 01 	call	0x21a	; 0x21a <_ZN7ComplexC1Eff>
    33c8:	00 e0       	ldi	r16, 0x00	; 0
    33ca:	10 e0       	ldi	r17, 0x00	; 0
    33cc:	98 01       	movw	r18, r16
    33ce:	b9 01       	movw	r22, r18
    33d0:	a8 01       	movw	r20, r16
    33d2:	ce 01       	movw	r24, r28
    33d4:	87 56       	subi	r24, 0x67	; 103
    33d6:	9e 4f       	sbci	r25, 0xFE	; 254
    33d8:	0e 94 0d 01 	call	0x21a	; 0x21a <_ZN7ComplexC1Eff>
    33dc:	00 e0       	ldi	r16, 0x00	; 0
    33de:	10 e0       	ldi	r17, 0x00	; 0
    33e0:	98 01       	movw	r18, r16
    33e2:	b9 01       	movw	r22, r18
    33e4:	a8 01       	movw	r20, r16
    33e6:	ce 01       	movw	r24, r28
    33e8:	8f 55       	subi	r24, 0x5F	; 95
    33ea:	9e 4f       	sbci	r25, 0xFE	; 254
    33ec:	0e 94 0d 01 	call	0x21a	; 0x21a <_ZN7ComplexC1Eff>
    33f0:	00 e0       	ldi	r16, 0x00	; 0
    33f2:	10 e0       	ldi	r17, 0x00	; 0
    33f4:	98 01       	movw	r18, r16
    33f6:	b9 01       	movw	r22, r18
    33f8:	a8 01       	movw	r20, r16
    33fa:	ce 01       	movw	r24, r28
    33fc:	87 55       	subi	r24, 0x57	; 87
    33fe:	9e 4f       	sbci	r25, 0xFE	; 254
    3400:	0e 94 0d 01 	call	0x21a	; 0x21a <_ZN7ComplexC1Eff>
    3404:	00 e0       	ldi	r16, 0x00	; 0
    3406:	10 e0       	ldi	r17, 0x00	; 0
    3408:	98 01       	movw	r18, r16
    340a:	b9 01       	movw	r22, r18
    340c:	a8 01       	movw	r20, r16
    340e:	ce 01       	movw	r24, r28
    3410:	8f 54       	subi	r24, 0x4F	; 79
    3412:	9e 4f       	sbci	r25, 0xFE	; 254
    3414:	0e 94 0d 01 	call	0x21a	; 0x21a <_ZN7ComplexC1Eff>
    3418:	00 e0       	ldi	r16, 0x00	; 0
    341a:	10 e0       	ldi	r17, 0x00	; 0
    341c:	98 01       	movw	r18, r16
    341e:	40 e0       	ldi	r20, 0x00	; 0
    3420:	50 e0       	ldi	r21, 0x00	; 0
    3422:	60 e8       	ldi	r22, 0x80	; 128
    3424:	7f e3       	ldi	r23, 0x3F	; 63
    3426:	ce 01       	movw	r24, r28
    3428:	87 54       	subi	r24, 0x47	; 71
    342a:	9e 4f       	sbci	r25, 0xFE	; 254
    342c:	0e 94 0d 01 	call	0x21a	; 0x21a <_ZN7ComplexC1Eff>
    3430:	00 e0       	ldi	r16, 0x00	; 0
    3432:	10 e0       	ldi	r17, 0x00	; 0
    3434:	98 01       	movw	r18, r16
    3436:	b9 01       	movw	r22, r18
    3438:	a8 01       	movw	r20, r16
    343a:	ce 01       	movw	r24, r28
    343c:	8f 53       	subi	r24, 0x3F	; 63
    343e:	9e 4f       	sbci	r25, 0xFE	; 254
    3440:	0e 94 0d 01 	call	0x21a	; 0x21a <_ZN7ComplexC1Eff>
    3444:	00 e0       	ldi	r16, 0x00	; 0
    3446:	10 e0       	ldi	r17, 0x00	; 0
    3448:	98 01       	movw	r18, r16
    344a:	b9 01       	movw	r22, r18
    344c:	a8 01       	movw	r20, r16
    344e:	ce 01       	movw	r24, r28
    3450:	87 53       	subi	r24, 0x37	; 55
    3452:	9e 4f       	sbci	r25, 0xFE	; 254
    3454:	0e 94 0d 01 	call	0x21a	; 0x21a <_ZN7ComplexC1Eff>
    3458:	00 e0       	ldi	r16, 0x00	; 0
    345a:	10 e0       	ldi	r17, 0x00	; 0
    345c:	98 01       	movw	r18, r16
    345e:	b9 01       	movw	r22, r18
    3460:	a8 01       	movw	r20, r16
    3462:	ce 01       	movw	r24, r28
    3464:	8f 52       	subi	r24, 0x2F	; 47
    3466:	9e 4f       	sbci	r25, 0xFE	; 254
    3468:	0e 94 0d 01 	call	0x21a	; 0x21a <_ZN7ComplexC1Eff>
    346c:	00 e0       	ldi	r16, 0x00	; 0
    346e:	10 e0       	ldi	r17, 0x00	; 0
    3470:	98 01       	movw	r18, r16
    3472:	b9 01       	movw	r22, r18
    3474:	a8 01       	movw	r20, r16
    3476:	ce 01       	movw	r24, r28
    3478:	87 52       	subi	r24, 0x27	; 39
    347a:	9e 4f       	sbci	r25, 0xFE	; 254
    347c:	0e 94 0d 01 	call	0x21a	; 0x21a <_ZN7ComplexC1Eff>
    3480:	00 e0       	ldi	r16, 0x00	; 0
    3482:	10 e0       	ldi	r17, 0x00	; 0
    3484:	98 01       	movw	r18, r16
    3486:	b9 01       	movw	r22, r18
    3488:	a8 01       	movw	r20, r16
    348a:	ce 01       	movw	r24, r28
    348c:	8f 51       	subi	r24, 0x1F	; 31
    348e:	9e 4f       	sbci	r25, 0xFE	; 254
    3490:	0e 94 0d 01 	call	0x21a	; 0x21a <_ZN7ComplexC1Eff>
    3494:	00 e0       	ldi	r16, 0x00	; 0
    3496:	10 e0       	ldi	r17, 0x00	; 0
    3498:	98 01       	movw	r18, r16
    349a:	b9 01       	movw	r22, r18
    349c:	a8 01       	movw	r20, r16
    349e:	ce 01       	movw	r24, r28
    34a0:	87 51       	subi	r24, 0x17	; 23
    34a2:	9e 4f       	sbci	r25, 0xFE	; 254
    34a4:	0e 94 0d 01 	call	0x21a	; 0x21a <_ZN7ComplexC1Eff>
    34a8:	00 e0       	ldi	r16, 0x00	; 0
    34aa:	10 e0       	ldi	r17, 0x00	; 0
    34ac:	98 01       	movw	r18, r16
    34ae:	40 e0       	ldi	r20, 0x00	; 0
    34b0:	50 e0       	ldi	r21, 0x00	; 0
    34b2:	60 e8       	ldi	r22, 0x80	; 128
    34b4:	7f e3       	ldi	r23, 0x3F	; 63
    34b6:	ce 01       	movw	r24, r28
    34b8:	8f 50       	subi	r24, 0x0F	; 15
    34ba:	9e 4f       	sbci	r25, 0xFE	; 254
    34bc:	0e 94 0d 01 	call	0x21a	; 0x21a <_ZN7ComplexC1Eff>
    34c0:	00 e0       	ldi	r16, 0x00	; 0
    34c2:	10 e0       	ldi	r17, 0x00	; 0
    34c4:	98 01       	movw	r18, r16
    34c6:	b9 01       	movw	r22, r18
    34c8:	a8 01       	movw	r20, r16
    34ca:	ce 01       	movw	r24, r28
    34cc:	87 50       	subi	r24, 0x07	; 7
    34ce:	9e 4f       	sbci	r25, 0xFE	; 254
    34d0:	0e 94 0d 01 	call	0x21a	; 0x21a <_ZN7ComplexC1Eff>
	int theta_list[QB_SIZE3]={theta1,theta2,theta3}; int phi_list[QB_SIZE3]={phi1,phi2,phi3};
    34d4:	c9 5f       	subi	r28, 0xF9	; 249
    34d6:	dd 4f       	sbci	r29, 0xFD	; 253
    34d8:	79 82       	std	Y+1, r7	; 0x01
    34da:	68 82       	st	Y, r6
    34dc:	c7 50       	subi	r28, 0x07	; 7
    34de:	d2 40       	sbci	r29, 0x02	; 2
    34e0:	c7 5f       	subi	r28, 0xF7	; 247
    34e2:	dd 4f       	sbci	r29, 0xFD	; 253
    34e4:	99 82       	std	Y+1, r9	; 0x01
    34e6:	88 82       	st	Y, r8
    34e8:	c9 50       	subi	r28, 0x09	; 9
    34ea:	d2 40       	sbci	r29, 0x02	; 2
    34ec:	c5 5f       	subi	r28, 0xF5	; 245
    34ee:	dd 4f       	sbci	r29, 0xFD	; 253
    34f0:	f9 82       	std	Y+1, r15	; 0x01
    34f2:	e8 82       	st	Y, r14
    34f4:	cb 50       	subi	r28, 0x0B	; 11
    34f6:	d2 40       	sbci	r29, 0x02	; 2
    34f8:	cf 5f       	subi	r28, 0xFF	; 255
    34fa:	dd 4f       	sbci	r29, 0xFD	; 253
    34fc:	59 82       	std	Y+1, r5	; 0x01
    34fe:	48 82       	st	Y, r4
    3500:	c1 50       	subi	r28, 0x01	; 1
    3502:	d2 40       	sbci	r29, 0x02	; 2
    3504:	cd 5f       	subi	r28, 0xFD	; 253
    3506:	dd 4f       	sbci	r29, 0xFD	; 253
    3508:	39 82       	std	Y+1, r3	; 0x01
    350a:	28 82       	st	Y, r2
    350c:	c3 50       	subi	r28, 0x03	; 3
    350e:	d2 40       	sbci	r29, 0x02	; 2
    3510:	cb 5f       	subi	r28, 0xFB	; 251
    3512:	dd 4f       	sbci	r29, 0xFD	; 253
    3514:	d9 82       	std	Y+1, r13	; 0x01
    3516:	c8 82       	st	Y, r12
    3518:	c5 50       	subi	r28, 0x05	; 5
    351a:	d2 40       	sbci	r29, 0x02	; 2
	return vec2ampl(multiply8x8(ampl2vec(QB_SIZE3,theta_list,phi_list),tof_matrix),QB_SIZE3);
    351c:	9e 01       	movw	r18, r28
    351e:	2f 5f       	subi	r18, 0xFF	; 255
    3520:	3d 4f       	sbci	r19, 0xFD	; 253
    3522:	ae 01       	movw	r20, r28
    3524:	49 5f       	subi	r20, 0xF9	; 249
    3526:	5d 4f       	sbci	r21, 0xFD	; 253
    3528:	63 e0       	ldi	r22, 0x03	; 3
    352a:	70 e0       	ldi	r23, 0x00	; 0
    352c:	c5 01       	movw	r24, r10
    352e:	0e 94 be 05 	call	0xb7c	; 0xb7c <_ZN5Gates8ampl2vecEiPiS0_>
    3532:	ae 01       	movw	r20, r28
    3534:	4f 5f       	subi	r20, 0xFF	; 255
    3536:	5f 4f       	sbci	r21, 0xFF	; 255
    3538:	bc 01       	movw	r22, r24
    353a:	c5 01       	movw	r24, r10
    353c:	0e 94 bf 08 	call	0x117e	; 0x117e <_ZN5Gates11multiply8x8EP7ComplexPA8_S0_>
    3540:	43 e0       	ldi	r20, 0x03	; 3
    3542:	50 e0       	ldi	r21, 0x00	; 0
    3544:	bc 01       	movw	r22, r24
    3546:	c5 01       	movw	r24, r10
    3548:	0e 94 c9 06 	call	0xd92	; 0xd92 <_ZN5Gates8vec2amplEP7Complexi>
}
    354c:	c4 5f       	subi	r28, 0xF4	; 244
    354e:	dd 4f       	sbci	r29, 0xFD	; 253
    3550:	0f b6       	in	r0, 0x3f	; 63
    3552:	f8 94       	cli
    3554:	de bf       	out	0x3e, r29	; 62
    3556:	0f be       	out	0x3f, r0	; 63
    3558:	cd bf       	out	0x3d, r28	; 61
    355a:	df 91       	pop	r29
    355c:	cf 91       	pop	r28
    355e:	1f 91       	pop	r17
    3560:	0f 91       	pop	r16
    3562:	ff 90       	pop	r15
    3564:	ef 90       	pop	r14
    3566:	df 90       	pop	r13
    3568:	cf 90       	pop	r12
    356a:	bf 90       	pop	r11
    356c:	af 90       	pop	r10
    356e:	9f 90       	pop	r9
    3570:	8f 90       	pop	r8
    3572:	7f 90       	pop	r7
    3574:	6f 90       	pop	r6
    3576:	5f 90       	pop	r5
    3578:	4f 90       	pop	r4
    357a:	3f 90       	pop	r3
    357c:	2f 90       	pop	r2
    357e:	08 95       	ret

00003580 <_ZN5Gates3DEUEiiiiiii>:
int * Gates::DEU(int theta1, int phi1,int theta2,int phi2,int theta3,int phi3,int delta){
    3580:	2f 92       	push	r2
    3582:	3f 92       	push	r3
    3584:	4f 92       	push	r4
    3586:	5f 92       	push	r5
    3588:	6f 92       	push	r6
    358a:	7f 92       	push	r7
    358c:	8f 92       	push	r8
    358e:	9f 92       	push	r9
    3590:	af 92       	push	r10
    3592:	bf 92       	push	r11
    3594:	cf 92       	push	r12
    3596:	df 92       	push	r13
    3598:	ef 92       	push	r14
    359a:	ff 92       	push	r15
    359c:	0f 93       	push	r16
    359e:	1f 93       	push	r17
    35a0:	cf 93       	push	r28
    35a2:	df 93       	push	r29
    35a4:	cd b7       	in	r28, 0x3d	; 61
    35a6:	de b7       	in	r29, 0x3e	; 62
    35a8:	c4 51       	subi	r28, 0x14	; 20
    35aa:	d2 40       	sbci	r29, 0x02	; 2
    35ac:	0f b6       	in	r0, 0x3f	; 63
    35ae:	f8 94       	cli
    35b0:	de bf       	out	0x3e, r29	; 62
    35b2:	0f be       	out	0x3f, r0	; 63
    35b4:	cd bf       	out	0x3d, r28	; 61
    35b6:	c3 5f       	subi	r28, 0xF3	; 243
    35b8:	dd 4f       	sbci	r29, 0xFD	; 253
    35ba:	99 83       	std	Y+1, r25	; 0x01
    35bc:	88 83       	st	Y, r24
    35be:	cd 50       	subi	r28, 0x0D	; 13
    35c0:	d2 40       	sbci	r29, 0x02	; 2
    35c2:	2b 01       	movw	r4, r22
    35c4:	c1 5f       	subi	r28, 0xF1	; 241
    35c6:	dd 4f       	sbci	r29, 0xFD	; 253
    35c8:	59 83       	std	Y+1, r21	; 0x01
    35ca:	48 83       	st	Y, r20
    35cc:	cf 50       	subi	r28, 0x0F	; 15
    35ce:	d2 40       	sbci	r29, 0x02	; 2
    35d0:	39 01       	movw	r6, r18
    35d2:	cf 5e       	subi	r28, 0xEF	; 239
    35d4:	dd 4f       	sbci	r29, 0xFD	; 253
    35d6:	19 83       	std	Y+1, r17	; 0x01
    35d8:	08 83       	st	Y, r16
    35da:	c1 51       	subi	r28, 0x11	; 17
    35dc:	d2 40       	sbci	r29, 0x02	; 2
    35de:	17 01       	movw	r2, r14
    35e0:	cd 5e       	subi	r28, 0xED	; 237
    35e2:	dd 4f       	sbci	r29, 0xFD	; 253
    35e4:	d9 82       	std	Y+1, r13	; 0x01
    35e6:	c8 82       	st	Y, r12
    35e8:	c3 51       	subi	r28, 0x13	; 19
    35ea:	d2 40       	sbci	r29, 0x02	; 2
	float delta_float=(delta*M_PI)/180;
    35ec:	b5 01       	movw	r22, r10
    35ee:	88 27       	eor	r24, r24
    35f0:	77 fd       	sbrc	r23, 7
    35f2:	80 95       	com	r24
    35f4:	98 2f       	mov	r25, r24
    35f6:	0e 94 7f 30 	call	0x60fe	; 0x60fe <__floatsisf>
    35fa:	2b ed       	ldi	r18, 0xDB	; 219
    35fc:	3f e0       	ldi	r19, 0x0F	; 15
    35fe:	49 e4       	ldi	r20, 0x49	; 73
    3600:	50 e4       	ldi	r21, 0x40	; 64
    3602:	0e 94 61 32 	call	0x64c2	; 0x64c2 <__mulsf3>
    3606:	20 e0       	ldi	r18, 0x00	; 0
    3608:	30 e0       	ldi	r19, 0x00	; 0
    360a:	44 e3       	ldi	r20, 0x34	; 52
    360c:	53 e4       	ldi	r21, 0x43	; 67
    360e:	0e 94 b3 2f 	call	0x5f66	; 0x5f66 <__divsf3>
    3612:	4b 01       	movw	r8, r22
    3614:	5c 01       	movw	r10, r24
														  {Complex(0,0),Complex(0,0),Complex(1,0),Complex(0,0),Complex(0,0),Complex(0,0),Complex(0,0),				 Complex(0,0)},
														  {Complex(0,0),Complex(0,0),Complex(0,0),Complex(1,0),Complex(0,0),Complex(0,0),Complex(0,0),				 Complex(0,0)},
														  {Complex(0,0),Complex(0,0),Complex(0,0),Complex(0,0),Complex(1,0),Complex(0,0),Complex(0,0),				 Complex(0,0)},
														  {Complex(0,0),Complex(0,0),Complex(0,0),Complex(0,0),Complex(0,0),Complex(1,0),Complex(0,0),				 Complex(0,0)},
														  {Complex(0,0),Complex(0,0),Complex(0,0),Complex(0,0),Complex(0,0),Complex(0,0),Complex(0,cos(delta_float)),Complex(sin(delta_float),0)},
														  {Complex(0,0),Complex(0,0),Complex(0,0),Complex(0,0),Complex(0,0),Complex(0,0),Complex(sin(delta_float),0),Complex(0,cos(delta_float))}};
    3616:	00 e0       	ldi	r16, 0x00	; 0
    3618:	10 e0       	ldi	r17, 0x00	; 0
    361a:	98 01       	movw	r18, r16
    361c:	40 e0       	ldi	r20, 0x00	; 0
    361e:	50 e0       	ldi	r21, 0x00	; 0
    3620:	60 e8       	ldi	r22, 0x80	; 128
    3622:	7f e3       	ldi	r23, 0x3F	; 63
    3624:	ce 01       	movw	r24, r28
    3626:	01 96       	adiw	r24, 0x01	; 1
    3628:	0e 94 0d 01 	call	0x21a	; 0x21a <_ZN7ComplexC1Eff>
    362c:	00 e0       	ldi	r16, 0x00	; 0
    362e:	10 e0       	ldi	r17, 0x00	; 0
    3630:	98 01       	movw	r18, r16
    3632:	b9 01       	movw	r22, r18
    3634:	a8 01       	movw	r20, r16
    3636:	ce 01       	movw	r24, r28
    3638:	09 96       	adiw	r24, 0x09	; 9
    363a:	0e 94 0d 01 	call	0x21a	; 0x21a <_ZN7ComplexC1Eff>
    363e:	00 e0       	ldi	r16, 0x00	; 0
    3640:	10 e0       	ldi	r17, 0x00	; 0
    3642:	98 01       	movw	r18, r16
    3644:	b9 01       	movw	r22, r18
    3646:	a8 01       	movw	r20, r16
    3648:	ce 01       	movw	r24, r28
    364a:	41 96       	adiw	r24, 0x11	; 17
    364c:	0e 94 0d 01 	call	0x21a	; 0x21a <_ZN7ComplexC1Eff>
    3650:	00 e0       	ldi	r16, 0x00	; 0
    3652:	10 e0       	ldi	r17, 0x00	; 0
    3654:	98 01       	movw	r18, r16
    3656:	b9 01       	movw	r22, r18
    3658:	a8 01       	movw	r20, r16
    365a:	ce 01       	movw	r24, r28
    365c:	49 96       	adiw	r24, 0x19	; 25
    365e:	0e 94 0d 01 	call	0x21a	; 0x21a <_ZN7ComplexC1Eff>
    3662:	00 e0       	ldi	r16, 0x00	; 0
    3664:	10 e0       	ldi	r17, 0x00	; 0
    3666:	98 01       	movw	r18, r16
    3668:	b9 01       	movw	r22, r18
    366a:	a8 01       	movw	r20, r16
    366c:	ce 01       	movw	r24, r28
    366e:	81 96       	adiw	r24, 0x21	; 33
    3670:	0e 94 0d 01 	call	0x21a	; 0x21a <_ZN7ComplexC1Eff>
    3674:	00 e0       	ldi	r16, 0x00	; 0
    3676:	10 e0       	ldi	r17, 0x00	; 0
    3678:	98 01       	movw	r18, r16
    367a:	b9 01       	movw	r22, r18
    367c:	a8 01       	movw	r20, r16
    367e:	ce 01       	movw	r24, r28
    3680:	89 96       	adiw	r24, 0x29	; 41
    3682:	0e 94 0d 01 	call	0x21a	; 0x21a <_ZN7ComplexC1Eff>
    3686:	00 e0       	ldi	r16, 0x00	; 0
    3688:	10 e0       	ldi	r17, 0x00	; 0
    368a:	98 01       	movw	r18, r16
    368c:	b9 01       	movw	r22, r18
    368e:	a8 01       	movw	r20, r16
    3690:	ce 01       	movw	r24, r28
    3692:	c1 96       	adiw	r24, 0x31	; 49
    3694:	0e 94 0d 01 	call	0x21a	; 0x21a <_ZN7ComplexC1Eff>
    3698:	00 e0       	ldi	r16, 0x00	; 0
    369a:	10 e0       	ldi	r17, 0x00	; 0
    369c:	98 01       	movw	r18, r16
    369e:	b9 01       	movw	r22, r18
    36a0:	a8 01       	movw	r20, r16
    36a2:	ce 01       	movw	r24, r28
    36a4:	c9 96       	adiw	r24, 0x39	; 57
    36a6:	0e 94 0d 01 	call	0x21a	; 0x21a <_ZN7ComplexC1Eff>
    36aa:	00 e0       	ldi	r16, 0x00	; 0
    36ac:	10 e0       	ldi	r17, 0x00	; 0
    36ae:	98 01       	movw	r18, r16
    36b0:	b9 01       	movw	r22, r18
    36b2:	a8 01       	movw	r20, r16
    36b4:	ce 01       	movw	r24, r28
    36b6:	8f 5b       	subi	r24, 0xBF	; 191
    36b8:	9f 4f       	sbci	r25, 0xFF	; 255
    36ba:	0e 94 0d 01 	call	0x21a	; 0x21a <_ZN7ComplexC1Eff>
    36be:	00 e0       	ldi	r16, 0x00	; 0
    36c0:	10 e0       	ldi	r17, 0x00	; 0
    36c2:	98 01       	movw	r18, r16
    36c4:	40 e0       	ldi	r20, 0x00	; 0
    36c6:	50 e0       	ldi	r21, 0x00	; 0
    36c8:	60 e8       	ldi	r22, 0x80	; 128
    36ca:	7f e3       	ldi	r23, 0x3F	; 63
    36cc:	ce 01       	movw	r24, r28
    36ce:	87 5b       	subi	r24, 0xB7	; 183
    36d0:	9f 4f       	sbci	r25, 0xFF	; 255
    36d2:	0e 94 0d 01 	call	0x21a	; 0x21a <_ZN7ComplexC1Eff>
    36d6:	00 e0       	ldi	r16, 0x00	; 0
    36d8:	10 e0       	ldi	r17, 0x00	; 0
    36da:	98 01       	movw	r18, r16
    36dc:	b9 01       	movw	r22, r18
    36de:	a8 01       	movw	r20, r16
    36e0:	ce 01       	movw	r24, r28
    36e2:	8f 5a       	subi	r24, 0xAF	; 175
    36e4:	9f 4f       	sbci	r25, 0xFF	; 255
    36e6:	0e 94 0d 01 	call	0x21a	; 0x21a <_ZN7ComplexC1Eff>
    36ea:	00 e0       	ldi	r16, 0x00	; 0
    36ec:	10 e0       	ldi	r17, 0x00	; 0
    36ee:	98 01       	movw	r18, r16
    36f0:	b9 01       	movw	r22, r18
    36f2:	a8 01       	movw	r20, r16
    36f4:	ce 01       	movw	r24, r28
    36f6:	87 5a       	subi	r24, 0xA7	; 167
    36f8:	9f 4f       	sbci	r25, 0xFF	; 255
    36fa:	0e 94 0d 01 	call	0x21a	; 0x21a <_ZN7ComplexC1Eff>
    36fe:	00 e0       	ldi	r16, 0x00	; 0
    3700:	10 e0       	ldi	r17, 0x00	; 0
    3702:	98 01       	movw	r18, r16
    3704:	b9 01       	movw	r22, r18
    3706:	a8 01       	movw	r20, r16
    3708:	ce 01       	movw	r24, r28
    370a:	8f 59       	subi	r24, 0x9F	; 159
    370c:	9f 4f       	sbci	r25, 0xFF	; 255
    370e:	0e 94 0d 01 	call	0x21a	; 0x21a <_ZN7ComplexC1Eff>
    3712:	00 e0       	ldi	r16, 0x00	; 0
    3714:	10 e0       	ldi	r17, 0x00	; 0
    3716:	98 01       	movw	r18, r16
    3718:	b9 01       	movw	r22, r18
    371a:	a8 01       	movw	r20, r16
    371c:	ce 01       	movw	r24, r28
    371e:	87 59       	subi	r24, 0x97	; 151
    3720:	9f 4f       	sbci	r25, 0xFF	; 255
    3722:	0e 94 0d 01 	call	0x21a	; 0x21a <_ZN7ComplexC1Eff>
    3726:	00 e0       	ldi	r16, 0x00	; 0
    3728:	10 e0       	ldi	r17, 0x00	; 0
    372a:	98 01       	movw	r18, r16
    372c:	b9 01       	movw	r22, r18
    372e:	a8 01       	movw	r20, r16
    3730:	ce 01       	movw	r24, r28
    3732:	8f 58       	subi	r24, 0x8F	; 143
    3734:	9f 4f       	sbci	r25, 0xFF	; 255
    3736:	0e 94 0d 01 	call	0x21a	; 0x21a <_ZN7ComplexC1Eff>
    373a:	00 e0       	ldi	r16, 0x00	; 0
    373c:	10 e0       	ldi	r17, 0x00	; 0
    373e:	98 01       	movw	r18, r16
    3740:	b9 01       	movw	r22, r18
    3742:	a8 01       	movw	r20, r16
    3744:	ce 01       	movw	r24, r28
    3746:	87 58       	subi	r24, 0x87	; 135
    3748:	9f 4f       	sbci	r25, 0xFF	; 255
    374a:	0e 94 0d 01 	call	0x21a	; 0x21a <_ZN7ComplexC1Eff>
    374e:	00 e0       	ldi	r16, 0x00	; 0
    3750:	10 e0       	ldi	r17, 0x00	; 0
    3752:	98 01       	movw	r18, r16
    3754:	b9 01       	movw	r22, r18
    3756:	a8 01       	movw	r20, r16
    3758:	ce 01       	movw	r24, r28
    375a:	8f 57       	subi	r24, 0x7F	; 127
    375c:	9f 4f       	sbci	r25, 0xFF	; 255
    375e:	0e 94 0d 01 	call	0x21a	; 0x21a <_ZN7ComplexC1Eff>
    3762:	00 e0       	ldi	r16, 0x00	; 0
    3764:	10 e0       	ldi	r17, 0x00	; 0
    3766:	98 01       	movw	r18, r16
    3768:	b9 01       	movw	r22, r18
    376a:	a8 01       	movw	r20, r16
    376c:	ce 01       	movw	r24, r28
    376e:	87 57       	subi	r24, 0x77	; 119
    3770:	9f 4f       	sbci	r25, 0xFF	; 255
    3772:	0e 94 0d 01 	call	0x21a	; 0x21a <_ZN7ComplexC1Eff>
    3776:	00 e0       	ldi	r16, 0x00	; 0
    3778:	10 e0       	ldi	r17, 0x00	; 0
    377a:	98 01       	movw	r18, r16
    377c:	40 e0       	ldi	r20, 0x00	; 0
    377e:	50 e0       	ldi	r21, 0x00	; 0
    3780:	60 e8       	ldi	r22, 0x80	; 128
    3782:	7f e3       	ldi	r23, 0x3F	; 63
    3784:	ce 01       	movw	r24, r28
    3786:	8f 56       	subi	r24, 0x6F	; 111
    3788:	9f 4f       	sbci	r25, 0xFF	; 255
    378a:	0e 94 0d 01 	call	0x21a	; 0x21a <_ZN7ComplexC1Eff>
    378e:	00 e0       	ldi	r16, 0x00	; 0
    3790:	10 e0       	ldi	r17, 0x00	; 0
    3792:	98 01       	movw	r18, r16
    3794:	b9 01       	movw	r22, r18
    3796:	a8 01       	movw	r20, r16
    3798:	ce 01       	movw	r24, r28
    379a:	87 56       	subi	r24, 0x67	; 103
    379c:	9f 4f       	sbci	r25, 0xFF	; 255
    379e:	0e 94 0d 01 	call	0x21a	; 0x21a <_ZN7ComplexC1Eff>
    37a2:	00 e0       	ldi	r16, 0x00	; 0
    37a4:	10 e0       	ldi	r17, 0x00	; 0
    37a6:	98 01       	movw	r18, r16
    37a8:	b9 01       	movw	r22, r18
    37aa:	a8 01       	movw	r20, r16
    37ac:	ce 01       	movw	r24, r28
    37ae:	8f 55       	subi	r24, 0x5F	; 95
    37b0:	9f 4f       	sbci	r25, 0xFF	; 255
    37b2:	0e 94 0d 01 	call	0x21a	; 0x21a <_ZN7ComplexC1Eff>
    37b6:	00 e0       	ldi	r16, 0x00	; 0
    37b8:	10 e0       	ldi	r17, 0x00	; 0
    37ba:	98 01       	movw	r18, r16
    37bc:	b9 01       	movw	r22, r18
    37be:	a8 01       	movw	r20, r16
    37c0:	ce 01       	movw	r24, r28
    37c2:	87 55       	subi	r24, 0x57	; 87
    37c4:	9f 4f       	sbci	r25, 0xFF	; 255
    37c6:	0e 94 0d 01 	call	0x21a	; 0x21a <_ZN7ComplexC1Eff>
    37ca:	00 e0       	ldi	r16, 0x00	; 0
    37cc:	10 e0       	ldi	r17, 0x00	; 0
    37ce:	98 01       	movw	r18, r16
    37d0:	b9 01       	movw	r22, r18
    37d2:	a8 01       	movw	r20, r16
    37d4:	ce 01       	movw	r24, r28
    37d6:	8f 54       	subi	r24, 0x4F	; 79
    37d8:	9f 4f       	sbci	r25, 0xFF	; 255
    37da:	0e 94 0d 01 	call	0x21a	; 0x21a <_ZN7ComplexC1Eff>
    37de:	00 e0       	ldi	r16, 0x00	; 0
    37e0:	10 e0       	ldi	r17, 0x00	; 0
    37e2:	98 01       	movw	r18, r16
    37e4:	b9 01       	movw	r22, r18
    37e6:	a8 01       	movw	r20, r16
    37e8:	ce 01       	movw	r24, r28
    37ea:	87 54       	subi	r24, 0x47	; 71
    37ec:	9f 4f       	sbci	r25, 0xFF	; 255
    37ee:	0e 94 0d 01 	call	0x21a	; 0x21a <_ZN7ComplexC1Eff>
    37f2:	00 e0       	ldi	r16, 0x00	; 0
    37f4:	10 e0       	ldi	r17, 0x00	; 0
    37f6:	98 01       	movw	r18, r16
    37f8:	b9 01       	movw	r22, r18
    37fa:	a8 01       	movw	r20, r16
    37fc:	ce 01       	movw	r24, r28
    37fe:	8f 53       	subi	r24, 0x3F	; 63
    3800:	9f 4f       	sbci	r25, 0xFF	; 255
    3802:	0e 94 0d 01 	call	0x21a	; 0x21a <_ZN7ComplexC1Eff>
    3806:	00 e0       	ldi	r16, 0x00	; 0
    3808:	10 e0       	ldi	r17, 0x00	; 0
    380a:	98 01       	movw	r18, r16
    380c:	b9 01       	movw	r22, r18
    380e:	a8 01       	movw	r20, r16
    3810:	ce 01       	movw	r24, r28
    3812:	87 53       	subi	r24, 0x37	; 55
    3814:	9f 4f       	sbci	r25, 0xFF	; 255
    3816:	0e 94 0d 01 	call	0x21a	; 0x21a <_ZN7ComplexC1Eff>
    381a:	00 e0       	ldi	r16, 0x00	; 0
    381c:	10 e0       	ldi	r17, 0x00	; 0
    381e:	98 01       	movw	r18, r16
    3820:	b9 01       	movw	r22, r18
    3822:	a8 01       	movw	r20, r16
    3824:	ce 01       	movw	r24, r28
    3826:	8f 52       	subi	r24, 0x2F	; 47
    3828:	9f 4f       	sbci	r25, 0xFF	; 255
    382a:	0e 94 0d 01 	call	0x21a	; 0x21a <_ZN7ComplexC1Eff>
    382e:	00 e0       	ldi	r16, 0x00	; 0
    3830:	10 e0       	ldi	r17, 0x00	; 0
    3832:	98 01       	movw	r18, r16
    3834:	40 e0       	ldi	r20, 0x00	; 0
    3836:	50 e0       	ldi	r21, 0x00	; 0
    3838:	60 e8       	ldi	r22, 0x80	; 128
    383a:	7f e3       	ldi	r23, 0x3F	; 63
    383c:	ce 01       	movw	r24, r28
    383e:	87 52       	subi	r24, 0x27	; 39
    3840:	9f 4f       	sbci	r25, 0xFF	; 255
    3842:	0e 94 0d 01 	call	0x21a	; 0x21a <_ZN7ComplexC1Eff>
    3846:	00 e0       	ldi	r16, 0x00	; 0
    3848:	10 e0       	ldi	r17, 0x00	; 0
    384a:	98 01       	movw	r18, r16
    384c:	b9 01       	movw	r22, r18
    384e:	a8 01       	movw	r20, r16
    3850:	ce 01       	movw	r24, r28
    3852:	8f 51       	subi	r24, 0x1F	; 31
    3854:	9f 4f       	sbci	r25, 0xFF	; 255
    3856:	0e 94 0d 01 	call	0x21a	; 0x21a <_ZN7ComplexC1Eff>
    385a:	00 e0       	ldi	r16, 0x00	; 0
    385c:	10 e0       	ldi	r17, 0x00	; 0
    385e:	98 01       	movw	r18, r16
    3860:	b9 01       	movw	r22, r18
    3862:	a8 01       	movw	r20, r16
    3864:	ce 01       	movw	r24, r28
    3866:	87 51       	subi	r24, 0x17	; 23
    3868:	9f 4f       	sbci	r25, 0xFF	; 255
    386a:	0e 94 0d 01 	call	0x21a	; 0x21a <_ZN7ComplexC1Eff>
    386e:	00 e0       	ldi	r16, 0x00	; 0
    3870:	10 e0       	ldi	r17, 0x00	; 0
    3872:	98 01       	movw	r18, r16
    3874:	b9 01       	movw	r22, r18
    3876:	a8 01       	movw	r20, r16
    3878:	ce 01       	movw	r24, r28
    387a:	8f 50       	subi	r24, 0x0F	; 15
    387c:	9f 4f       	sbci	r25, 0xFF	; 255
    387e:	0e 94 0d 01 	call	0x21a	; 0x21a <_ZN7ComplexC1Eff>
    3882:	00 e0       	ldi	r16, 0x00	; 0
    3884:	10 e0       	ldi	r17, 0x00	; 0
    3886:	98 01       	movw	r18, r16
    3888:	b9 01       	movw	r22, r18
    388a:	a8 01       	movw	r20, r16
    388c:	ce 01       	movw	r24, r28
    388e:	87 50       	subi	r24, 0x07	; 7
    3890:	9f 4f       	sbci	r25, 0xFF	; 255
    3892:	0e 94 0d 01 	call	0x21a	; 0x21a <_ZN7ComplexC1Eff>
    3896:	00 e0       	ldi	r16, 0x00	; 0
    3898:	10 e0       	ldi	r17, 0x00	; 0
    389a:	98 01       	movw	r18, r16
    389c:	b9 01       	movw	r22, r18
    389e:	a8 01       	movw	r20, r16
    38a0:	ce 01       	movw	r24, r28
    38a2:	8f 5f       	subi	r24, 0xFF	; 255
    38a4:	9e 4f       	sbci	r25, 0xFE	; 254
    38a6:	0e 94 0d 01 	call	0x21a	; 0x21a <_ZN7ComplexC1Eff>
    38aa:	00 e0       	ldi	r16, 0x00	; 0
    38ac:	10 e0       	ldi	r17, 0x00	; 0
    38ae:	98 01       	movw	r18, r16
    38b0:	b9 01       	movw	r22, r18
    38b2:	a8 01       	movw	r20, r16
    38b4:	ce 01       	movw	r24, r28
    38b6:	87 5f       	subi	r24, 0xF7	; 247
    38b8:	9e 4f       	sbci	r25, 0xFE	; 254
    38ba:	0e 94 0d 01 	call	0x21a	; 0x21a <_ZN7ComplexC1Eff>
    38be:	00 e0       	ldi	r16, 0x00	; 0
    38c0:	10 e0       	ldi	r17, 0x00	; 0
    38c2:	98 01       	movw	r18, r16
    38c4:	b9 01       	movw	r22, r18
    38c6:	a8 01       	movw	r20, r16
    38c8:	ce 01       	movw	r24, r28
    38ca:	8f 5e       	subi	r24, 0xEF	; 239
    38cc:	9e 4f       	sbci	r25, 0xFE	; 254
    38ce:	0e 94 0d 01 	call	0x21a	; 0x21a <_ZN7ComplexC1Eff>
    38d2:	00 e0       	ldi	r16, 0x00	; 0
    38d4:	10 e0       	ldi	r17, 0x00	; 0
    38d6:	98 01       	movw	r18, r16
    38d8:	b9 01       	movw	r22, r18
    38da:	a8 01       	movw	r20, r16
    38dc:	ce 01       	movw	r24, r28
    38de:	87 5e       	subi	r24, 0xE7	; 231
    38e0:	9e 4f       	sbci	r25, 0xFE	; 254
    38e2:	0e 94 0d 01 	call	0x21a	; 0x21a <_ZN7ComplexC1Eff>
    38e6:	00 e0       	ldi	r16, 0x00	; 0
    38e8:	10 e0       	ldi	r17, 0x00	; 0
    38ea:	98 01       	movw	r18, r16
    38ec:	40 e0       	ldi	r20, 0x00	; 0
    38ee:	50 e0       	ldi	r21, 0x00	; 0
    38f0:	60 e8       	ldi	r22, 0x80	; 128
    38f2:	7f e3       	ldi	r23, 0x3F	; 63
    38f4:	ce 01       	movw	r24, r28
    38f6:	8f 5d       	subi	r24, 0xDF	; 223
    38f8:	9e 4f       	sbci	r25, 0xFE	; 254
    38fa:	0e 94 0d 01 	call	0x21a	; 0x21a <_ZN7ComplexC1Eff>
    38fe:	00 e0       	ldi	r16, 0x00	; 0
    3900:	10 e0       	ldi	r17, 0x00	; 0
    3902:	98 01       	movw	r18, r16
    3904:	b9 01       	movw	r22, r18
    3906:	a8 01       	movw	r20, r16
    3908:	ce 01       	movw	r24, r28
    390a:	87 5d       	subi	r24, 0xD7	; 215
    390c:	9e 4f       	sbci	r25, 0xFE	; 254
    390e:	0e 94 0d 01 	call	0x21a	; 0x21a <_ZN7ComplexC1Eff>
    3912:	00 e0       	ldi	r16, 0x00	; 0
    3914:	10 e0       	ldi	r17, 0x00	; 0
    3916:	98 01       	movw	r18, r16
    3918:	b9 01       	movw	r22, r18
    391a:	a8 01       	movw	r20, r16
    391c:	ce 01       	movw	r24, r28
    391e:	8f 5c       	subi	r24, 0xCF	; 207
    3920:	9e 4f       	sbci	r25, 0xFE	; 254
    3922:	0e 94 0d 01 	call	0x21a	; 0x21a <_ZN7ComplexC1Eff>
    3926:	00 e0       	ldi	r16, 0x00	; 0
    3928:	10 e0       	ldi	r17, 0x00	; 0
    392a:	98 01       	movw	r18, r16
    392c:	b9 01       	movw	r22, r18
    392e:	a8 01       	movw	r20, r16
    3930:	ce 01       	movw	r24, r28
    3932:	87 5c       	subi	r24, 0xC7	; 199
    3934:	9e 4f       	sbci	r25, 0xFE	; 254
    3936:	0e 94 0d 01 	call	0x21a	; 0x21a <_ZN7ComplexC1Eff>
    393a:	00 e0       	ldi	r16, 0x00	; 0
    393c:	10 e0       	ldi	r17, 0x00	; 0
    393e:	98 01       	movw	r18, r16
    3940:	b9 01       	movw	r22, r18
    3942:	a8 01       	movw	r20, r16
    3944:	ce 01       	movw	r24, r28
    3946:	8f 5b       	subi	r24, 0xBF	; 191
    3948:	9e 4f       	sbci	r25, 0xFE	; 254
    394a:	0e 94 0d 01 	call	0x21a	; 0x21a <_ZN7ComplexC1Eff>
    394e:	00 e0       	ldi	r16, 0x00	; 0
    3950:	10 e0       	ldi	r17, 0x00	; 0
    3952:	98 01       	movw	r18, r16
    3954:	b9 01       	movw	r22, r18
    3956:	a8 01       	movw	r20, r16
    3958:	ce 01       	movw	r24, r28
    395a:	87 5b       	subi	r24, 0xB7	; 183
    395c:	9e 4f       	sbci	r25, 0xFE	; 254
    395e:	0e 94 0d 01 	call	0x21a	; 0x21a <_ZN7ComplexC1Eff>
    3962:	00 e0       	ldi	r16, 0x00	; 0
    3964:	10 e0       	ldi	r17, 0x00	; 0
    3966:	98 01       	movw	r18, r16
    3968:	b9 01       	movw	r22, r18
    396a:	a8 01       	movw	r20, r16
    396c:	ce 01       	movw	r24, r28
    396e:	8f 5a       	subi	r24, 0xAF	; 175
    3970:	9e 4f       	sbci	r25, 0xFE	; 254
    3972:	0e 94 0d 01 	call	0x21a	; 0x21a <_ZN7ComplexC1Eff>
    3976:	00 e0       	ldi	r16, 0x00	; 0
    3978:	10 e0       	ldi	r17, 0x00	; 0
    397a:	98 01       	movw	r18, r16
    397c:	b9 01       	movw	r22, r18
    397e:	a8 01       	movw	r20, r16
    3980:	ce 01       	movw	r24, r28
    3982:	87 5a       	subi	r24, 0xA7	; 167
    3984:	9e 4f       	sbci	r25, 0xFE	; 254
    3986:	0e 94 0d 01 	call	0x21a	; 0x21a <_ZN7ComplexC1Eff>
    398a:	00 e0       	ldi	r16, 0x00	; 0
    398c:	10 e0       	ldi	r17, 0x00	; 0
    398e:	98 01       	movw	r18, r16
    3990:	b9 01       	movw	r22, r18
    3992:	a8 01       	movw	r20, r16
    3994:	ce 01       	movw	r24, r28
    3996:	8f 59       	subi	r24, 0x9F	; 159
    3998:	9e 4f       	sbci	r25, 0xFE	; 254
    399a:	0e 94 0d 01 	call	0x21a	; 0x21a <_ZN7ComplexC1Eff>
    399e:	00 e0       	ldi	r16, 0x00	; 0
    39a0:	10 e0       	ldi	r17, 0x00	; 0
    39a2:	98 01       	movw	r18, r16
    39a4:	40 e0       	ldi	r20, 0x00	; 0
    39a6:	50 e0       	ldi	r21, 0x00	; 0
    39a8:	60 e8       	ldi	r22, 0x80	; 128
    39aa:	7f e3       	ldi	r23, 0x3F	; 63
    39ac:	ce 01       	movw	r24, r28
    39ae:	87 59       	subi	r24, 0x97	; 151
    39b0:	9e 4f       	sbci	r25, 0xFE	; 254
    39b2:	0e 94 0d 01 	call	0x21a	; 0x21a <_ZN7ComplexC1Eff>
    39b6:	00 e0       	ldi	r16, 0x00	; 0
    39b8:	10 e0       	ldi	r17, 0x00	; 0
    39ba:	98 01       	movw	r18, r16
    39bc:	b9 01       	movw	r22, r18
    39be:	a8 01       	movw	r20, r16
    39c0:	ce 01       	movw	r24, r28
    39c2:	8f 58       	subi	r24, 0x8F	; 143
    39c4:	9e 4f       	sbci	r25, 0xFE	; 254
    39c6:	0e 94 0d 01 	call	0x21a	; 0x21a <_ZN7ComplexC1Eff>
    39ca:	00 e0       	ldi	r16, 0x00	; 0
    39cc:	10 e0       	ldi	r17, 0x00	; 0
    39ce:	98 01       	movw	r18, r16
    39d0:	b9 01       	movw	r22, r18
    39d2:	a8 01       	movw	r20, r16
    39d4:	ce 01       	movw	r24, r28
    39d6:	87 58       	subi	r24, 0x87	; 135
    39d8:	9e 4f       	sbci	r25, 0xFE	; 254
    39da:	0e 94 0d 01 	call	0x21a	; 0x21a <_ZN7ComplexC1Eff>
    39de:	00 e0       	ldi	r16, 0x00	; 0
    39e0:	10 e0       	ldi	r17, 0x00	; 0
    39e2:	98 01       	movw	r18, r16
    39e4:	b9 01       	movw	r22, r18
    39e6:	a8 01       	movw	r20, r16
    39e8:	ce 01       	movw	r24, r28
    39ea:	8f 57       	subi	r24, 0x7F	; 127
    39ec:	9e 4f       	sbci	r25, 0xFE	; 254
    39ee:	0e 94 0d 01 	call	0x21a	; 0x21a <_ZN7ComplexC1Eff>
    39f2:	00 e0       	ldi	r16, 0x00	; 0
    39f4:	10 e0       	ldi	r17, 0x00	; 0
    39f6:	98 01       	movw	r18, r16
    39f8:	b9 01       	movw	r22, r18
    39fa:	a8 01       	movw	r20, r16
    39fc:	ce 01       	movw	r24, r28
    39fe:	87 57       	subi	r24, 0x77	; 119
    3a00:	9e 4f       	sbci	r25, 0xFE	; 254
    3a02:	0e 94 0d 01 	call	0x21a	; 0x21a <_ZN7ComplexC1Eff>
    3a06:	00 e0       	ldi	r16, 0x00	; 0
    3a08:	10 e0       	ldi	r17, 0x00	; 0
    3a0a:	98 01       	movw	r18, r16
    3a0c:	b9 01       	movw	r22, r18
    3a0e:	a8 01       	movw	r20, r16
    3a10:	ce 01       	movw	r24, r28
    3a12:	8f 56       	subi	r24, 0x6F	; 111
    3a14:	9e 4f       	sbci	r25, 0xFE	; 254
    3a16:	0e 94 0d 01 	call	0x21a	; 0x21a <_ZN7ComplexC1Eff>
    3a1a:	00 e0       	ldi	r16, 0x00	; 0
    3a1c:	10 e0       	ldi	r17, 0x00	; 0
    3a1e:	98 01       	movw	r18, r16
    3a20:	b9 01       	movw	r22, r18
    3a22:	a8 01       	movw	r20, r16
    3a24:	ce 01       	movw	r24, r28
    3a26:	87 56       	subi	r24, 0x67	; 103
    3a28:	9e 4f       	sbci	r25, 0xFE	; 254
    3a2a:	0e 94 0d 01 	call	0x21a	; 0x21a <_ZN7ComplexC1Eff>
    3a2e:	00 e0       	ldi	r16, 0x00	; 0
    3a30:	10 e0       	ldi	r17, 0x00	; 0
    3a32:	98 01       	movw	r18, r16
    3a34:	b9 01       	movw	r22, r18
    3a36:	a8 01       	movw	r20, r16
    3a38:	ce 01       	movw	r24, r28
    3a3a:	8f 55       	subi	r24, 0x5F	; 95
    3a3c:	9e 4f       	sbci	r25, 0xFE	; 254
    3a3e:	0e 94 0d 01 	call	0x21a	; 0x21a <_ZN7ComplexC1Eff>
    3a42:	00 e0       	ldi	r16, 0x00	; 0
    3a44:	10 e0       	ldi	r17, 0x00	; 0
    3a46:	98 01       	movw	r18, r16
    3a48:	b9 01       	movw	r22, r18
    3a4a:	a8 01       	movw	r20, r16
    3a4c:	ce 01       	movw	r24, r28
    3a4e:	87 55       	subi	r24, 0x57	; 87
    3a50:	9e 4f       	sbci	r25, 0xFE	; 254
    3a52:	0e 94 0d 01 	call	0x21a	; 0x21a <_ZN7ComplexC1Eff>
														  {Complex(0,0),Complex(1,0),Complex(0,0),Complex(0,0),Complex(0,0),Complex(0,0),Complex(0,0),               Complex(0,0)},
														  {Complex(0,0),Complex(0,0),Complex(1,0),Complex(0,0),Complex(0,0),Complex(0,0),Complex(0,0),				 Complex(0,0)},
														  {Complex(0,0),Complex(0,0),Complex(0,0),Complex(1,0),Complex(0,0),Complex(0,0),Complex(0,0),				 Complex(0,0)},
														  {Complex(0,0),Complex(0,0),Complex(0,0),Complex(0,0),Complex(1,0),Complex(0,0),Complex(0,0),				 Complex(0,0)},
														  {Complex(0,0),Complex(0,0),Complex(0,0),Complex(0,0),Complex(0,0),Complex(1,0),Complex(0,0),				 Complex(0,0)},
														  {Complex(0,0),Complex(0,0),Complex(0,0),Complex(0,0),Complex(0,0),Complex(0,0),Complex(0,cos(delta_float)),Complex(sin(delta_float),0)},
    3a56:	c5 01       	movw	r24, r10
    3a58:	b4 01       	movw	r22, r8
    3a5a:	0e 94 b0 2f 	call	0x5f60	; 0x5f60 <cos>
    3a5e:	6b 01       	movw	r12, r22
    3a60:	7c 01       	movw	r14, r24
														  {Complex(0,0),Complex(0,0),Complex(0,0),Complex(0,0),Complex(0,0),Complex(0,0),Complex(sin(delta_float),0),Complex(0,cos(delta_float))}};
    3a62:	8b 01       	movw	r16, r22
    3a64:	9c 01       	movw	r18, r24
    3a66:	40 e0       	ldi	r20, 0x00	; 0
    3a68:	50 e0       	ldi	r21, 0x00	; 0
    3a6a:	ba 01       	movw	r22, r20
    3a6c:	ce 01       	movw	r24, r28
    3a6e:	8f 54       	subi	r24, 0x4F	; 79
    3a70:	9e 4f       	sbci	r25, 0xFE	; 254
    3a72:	0e 94 0d 01 	call	0x21a	; 0x21a <_ZN7ComplexC1Eff>
														  {Complex(0,0),Complex(1,0),Complex(0,0),Complex(0,0),Complex(0,0),Complex(0,0),Complex(0,0),               Complex(0,0)},
														  {Complex(0,0),Complex(0,0),Complex(1,0),Complex(0,0),Complex(0,0),Complex(0,0),Complex(0,0),				 Complex(0,0)},
														  {Complex(0,0),Complex(0,0),Complex(0,0),Complex(1,0),Complex(0,0),Complex(0,0),Complex(0,0),				 Complex(0,0)},
														  {Complex(0,0),Complex(0,0),Complex(0,0),Complex(0,0),Complex(1,0),Complex(0,0),Complex(0,0),				 Complex(0,0)},
														  {Complex(0,0),Complex(0,0),Complex(0,0),Complex(0,0),Complex(0,0),Complex(1,0),Complex(0,0),				 Complex(0,0)},
														  {Complex(0,0),Complex(0,0),Complex(0,0),Complex(0,0),Complex(0,0),Complex(0,0),Complex(0,cos(delta_float)),Complex(sin(delta_float),0)},
    3a76:	c5 01       	movw	r24, r10
    3a78:	b4 01       	movw	r22, r8
    3a7a:	0e 94 c4 32 	call	0x6588	; 0x6588 <sin>
    3a7e:	4b 01       	movw	r8, r22
    3a80:	5c 01       	movw	r10, r24
														  {Complex(0,0),Complex(0,0),Complex(0,0),Complex(0,0),Complex(0,0),Complex(0,0),Complex(sin(delta_float),0),Complex(0,cos(delta_float))}};
    3a82:	00 e0       	ldi	r16, 0x00	; 0
    3a84:	10 e0       	ldi	r17, 0x00	; 0
    3a86:	98 01       	movw	r18, r16
    3a88:	ab 01       	movw	r20, r22
    3a8a:	bc 01       	movw	r22, r24
    3a8c:	ce 01       	movw	r24, r28
    3a8e:	87 54       	subi	r24, 0x47	; 71
    3a90:	9e 4f       	sbci	r25, 0xFE	; 254
    3a92:	0e 94 0d 01 	call	0x21a	; 0x21a <_ZN7ComplexC1Eff>
    3a96:	00 e0       	ldi	r16, 0x00	; 0
    3a98:	10 e0       	ldi	r17, 0x00	; 0
    3a9a:	98 01       	movw	r18, r16
    3a9c:	b9 01       	movw	r22, r18
    3a9e:	a8 01       	movw	r20, r16
    3aa0:	ce 01       	movw	r24, r28
    3aa2:	8f 53       	subi	r24, 0x3F	; 63
    3aa4:	9e 4f       	sbci	r25, 0xFE	; 254
    3aa6:	0e 94 0d 01 	call	0x21a	; 0x21a <_ZN7ComplexC1Eff>
    3aaa:	00 e0       	ldi	r16, 0x00	; 0
    3aac:	10 e0       	ldi	r17, 0x00	; 0
    3aae:	98 01       	movw	r18, r16
    3ab0:	b9 01       	movw	r22, r18
    3ab2:	a8 01       	movw	r20, r16
    3ab4:	ce 01       	movw	r24, r28
    3ab6:	87 53       	subi	r24, 0x37	; 55
    3ab8:	9e 4f       	sbci	r25, 0xFE	; 254
    3aba:	0e 94 0d 01 	call	0x21a	; 0x21a <_ZN7ComplexC1Eff>
    3abe:	00 e0       	ldi	r16, 0x00	; 0
    3ac0:	10 e0       	ldi	r17, 0x00	; 0
    3ac2:	98 01       	movw	r18, r16
    3ac4:	b9 01       	movw	r22, r18
    3ac6:	a8 01       	movw	r20, r16
    3ac8:	ce 01       	movw	r24, r28
    3aca:	8f 52       	subi	r24, 0x2F	; 47
    3acc:	9e 4f       	sbci	r25, 0xFE	; 254
    3ace:	0e 94 0d 01 	call	0x21a	; 0x21a <_ZN7ComplexC1Eff>
    3ad2:	00 e0       	ldi	r16, 0x00	; 0
    3ad4:	10 e0       	ldi	r17, 0x00	; 0
    3ad6:	98 01       	movw	r18, r16
    3ad8:	b9 01       	movw	r22, r18
    3ada:	a8 01       	movw	r20, r16
    3adc:	ce 01       	movw	r24, r28
    3ade:	87 52       	subi	r24, 0x27	; 39
    3ae0:	9e 4f       	sbci	r25, 0xFE	; 254
    3ae2:	0e 94 0d 01 	call	0x21a	; 0x21a <_ZN7ComplexC1Eff>
    3ae6:	00 e0       	ldi	r16, 0x00	; 0
    3ae8:	10 e0       	ldi	r17, 0x00	; 0
    3aea:	98 01       	movw	r18, r16
    3aec:	b9 01       	movw	r22, r18
    3aee:	a8 01       	movw	r20, r16
    3af0:	ce 01       	movw	r24, r28
    3af2:	8f 51       	subi	r24, 0x1F	; 31
    3af4:	9e 4f       	sbci	r25, 0xFE	; 254
    3af6:	0e 94 0d 01 	call	0x21a	; 0x21a <_ZN7ComplexC1Eff>
    3afa:	00 e0       	ldi	r16, 0x00	; 0
    3afc:	10 e0       	ldi	r17, 0x00	; 0
    3afe:	98 01       	movw	r18, r16
    3b00:	b9 01       	movw	r22, r18
    3b02:	a8 01       	movw	r20, r16
    3b04:	ce 01       	movw	r24, r28
    3b06:	87 51       	subi	r24, 0x17	; 23
    3b08:	9e 4f       	sbci	r25, 0xFE	; 254
    3b0a:	0e 94 0d 01 	call	0x21a	; 0x21a <_ZN7ComplexC1Eff>
    3b0e:	00 e0       	ldi	r16, 0x00	; 0
    3b10:	10 e0       	ldi	r17, 0x00	; 0
    3b12:	98 01       	movw	r18, r16
    3b14:	b5 01       	movw	r22, r10
    3b16:	a4 01       	movw	r20, r8
    3b18:	ce 01       	movw	r24, r28
    3b1a:	8f 50       	subi	r24, 0x0F	; 15
    3b1c:	9e 4f       	sbci	r25, 0xFE	; 254
    3b1e:	0e 94 0d 01 	call	0x21a	; 0x21a <_ZN7ComplexC1Eff>
    3b22:	97 01       	movw	r18, r14
    3b24:	86 01       	movw	r16, r12
    3b26:	40 e0       	ldi	r20, 0x00	; 0
    3b28:	50 e0       	ldi	r21, 0x00	; 0
    3b2a:	ba 01       	movw	r22, r20
    3b2c:	ce 01       	movw	r24, r28
    3b2e:	87 50       	subi	r24, 0x07	; 7
    3b30:	9e 4f       	sbci	r25, 0xFE	; 254
    3b32:	0e 94 0d 01 	call	0x21a	; 0x21a <_ZN7ComplexC1Eff>
	int theta_list[QB_SIZE3]={theta1,theta2,theta3}; int phi_list[QB_SIZE3]={phi1,phi2,phi3};
    3b36:	c9 5f       	subi	r28, 0xF9	; 249
    3b38:	dd 4f       	sbci	r29, 0xFD	; 253
    3b3a:	59 82       	std	Y+1, r5	; 0x01
    3b3c:	48 82       	st	Y, r4
    3b3e:	c7 50       	subi	r28, 0x07	; 7
    3b40:	d2 40       	sbci	r29, 0x02	; 2
    3b42:	c7 5f       	subi	r28, 0xF7	; 247
    3b44:	dd 4f       	sbci	r29, 0xFD	; 253
    3b46:	79 82       	std	Y+1, r7	; 0x01
    3b48:	68 82       	st	Y, r6
    3b4a:	c9 50       	subi	r28, 0x09	; 9
    3b4c:	d2 40       	sbci	r29, 0x02	; 2
    3b4e:	c5 5f       	subi	r28, 0xF5	; 245
    3b50:	dd 4f       	sbci	r29, 0xFD	; 253
    3b52:	39 82       	std	Y+1, r3	; 0x01
    3b54:	28 82       	st	Y, r2
    3b56:	cb 50       	subi	r28, 0x0B	; 11
    3b58:	d2 40       	sbci	r29, 0x02	; 2
    3b5a:	c1 5f       	subi	r28, 0xF1	; 241
    3b5c:	dd 4f       	sbci	r29, 0xFD	; 253
    3b5e:	88 81       	ld	r24, Y
    3b60:	99 81       	ldd	r25, Y+1	; 0x01
    3b62:	cf 50       	subi	r28, 0x0F	; 15
    3b64:	d2 40       	sbci	r29, 0x02	; 2
    3b66:	cf 5f       	subi	r28, 0xFF	; 255
    3b68:	dd 4f       	sbci	r29, 0xFD	; 253
    3b6a:	99 83       	std	Y+1, r25	; 0x01
    3b6c:	88 83       	st	Y, r24
    3b6e:	c1 50       	subi	r28, 0x01	; 1
    3b70:	d2 40       	sbci	r29, 0x02	; 2
    3b72:	cf 5e       	subi	r28, 0xEF	; 239
    3b74:	dd 4f       	sbci	r29, 0xFD	; 253
    3b76:	88 81       	ld	r24, Y
    3b78:	99 81       	ldd	r25, Y+1	; 0x01
    3b7a:	c1 51       	subi	r28, 0x11	; 17
    3b7c:	d2 40       	sbci	r29, 0x02	; 2
    3b7e:	cd 5f       	subi	r28, 0xFD	; 253
    3b80:	dd 4f       	sbci	r29, 0xFD	; 253
    3b82:	99 83       	std	Y+1, r25	; 0x01
    3b84:	88 83       	st	Y, r24
    3b86:	c3 50       	subi	r28, 0x03	; 3
    3b88:	d2 40       	sbci	r29, 0x02	; 2
    3b8a:	cd 5e       	subi	r28, 0xED	; 237
    3b8c:	dd 4f       	sbci	r29, 0xFD	; 253
    3b8e:	88 81       	ld	r24, Y
    3b90:	99 81       	ldd	r25, Y+1	; 0x01
    3b92:	c3 51       	subi	r28, 0x13	; 19
    3b94:	d2 40       	sbci	r29, 0x02	; 2
    3b96:	cb 5f       	subi	r28, 0xFB	; 251
    3b98:	dd 4f       	sbci	r29, 0xFD	; 253
    3b9a:	99 83       	std	Y+1, r25	; 0x01
    3b9c:	88 83       	st	Y, r24
    3b9e:	c5 50       	subi	r28, 0x05	; 5
    3ba0:	d2 40       	sbci	r29, 0x02	; 2
	return vec2ampl(multiply8x8(ampl2vec(QB_SIZE3,theta_list,phi_list),deu_matrix),QB_SIZE3);	
    3ba2:	9e 01       	movw	r18, r28
    3ba4:	2f 5f       	subi	r18, 0xFF	; 255
    3ba6:	3d 4f       	sbci	r19, 0xFD	; 253
    3ba8:	ae 01       	movw	r20, r28
    3baa:	49 5f       	subi	r20, 0xF9	; 249
    3bac:	5d 4f       	sbci	r21, 0xFD	; 253
    3bae:	63 e0       	ldi	r22, 0x03	; 3
    3bb0:	70 e0       	ldi	r23, 0x00	; 0
    3bb2:	c3 5f       	subi	r28, 0xF3	; 243
    3bb4:	dd 4f       	sbci	r29, 0xFD	; 253
    3bb6:	88 81       	ld	r24, Y
    3bb8:	99 81       	ldd	r25, Y+1	; 0x01
    3bba:	cd 50       	subi	r28, 0x0D	; 13
    3bbc:	d2 40       	sbci	r29, 0x02	; 2
    3bbe:	0e 94 be 05 	call	0xb7c	; 0xb7c <_ZN5Gates8ampl2vecEiPiS0_>
    3bc2:	ae 01       	movw	r20, r28
    3bc4:	4f 5f       	subi	r20, 0xFF	; 255
    3bc6:	5f 4f       	sbci	r21, 0xFF	; 255
    3bc8:	bc 01       	movw	r22, r24
    3bca:	c3 5f       	subi	r28, 0xF3	; 243
    3bcc:	dd 4f       	sbci	r29, 0xFD	; 253
    3bce:	88 81       	ld	r24, Y
    3bd0:	99 81       	ldd	r25, Y+1	; 0x01
    3bd2:	cd 50       	subi	r28, 0x0D	; 13
    3bd4:	d2 40       	sbci	r29, 0x02	; 2
    3bd6:	0e 94 bf 08 	call	0x117e	; 0x117e <_ZN5Gates11multiply8x8EP7ComplexPA8_S0_>
    3bda:	43 e0       	ldi	r20, 0x03	; 3
    3bdc:	50 e0       	ldi	r21, 0x00	; 0
    3bde:	bc 01       	movw	r22, r24
    3be0:	c3 5f       	subi	r28, 0xF3	; 243
    3be2:	dd 4f       	sbci	r29, 0xFD	; 253
    3be4:	88 81       	ld	r24, Y
    3be6:	99 81       	ldd	r25, Y+1	; 0x01
    3be8:	cd 50       	subi	r28, 0x0D	; 13
    3bea:	d2 40       	sbci	r29, 0x02	; 2
    3bec:	0e 94 c9 06 	call	0xd92	; 0xd92 <_ZN5Gates8vec2amplEP7Complexi>
    3bf0:	cc 5e       	subi	r28, 0xEC	; 236
    3bf2:	dd 4f       	sbci	r29, 0xFD	; 253
    3bf4:	0f b6       	in	r0, 0x3f	; 63
    3bf6:	f8 94       	cli
    3bf8:	de bf       	out	0x3e, r29	; 62
    3bfa:	0f be       	out	0x3f, r0	; 63
    3bfc:	cd bf       	out	0x3d, r28	; 61
    3bfe:	df 91       	pop	r29
    3c00:	cf 91       	pop	r28
    3c02:	1f 91       	pop	r17
    3c04:	0f 91       	pop	r16
    3c06:	ff 90       	pop	r15
    3c08:	ef 90       	pop	r14
    3c0a:	df 90       	pop	r13
    3c0c:	cf 90       	pop	r12
    3c0e:	bf 90       	pop	r11
    3c10:	af 90       	pop	r10
    3c12:	9f 90       	pop	r9
    3c14:	8f 90       	pop	r8
    3c16:	7f 90       	pop	r7
    3c18:	6f 90       	pop	r6
    3c1a:	5f 90       	pop	r5
    3c1c:	4f 90       	pop	r4
    3c1e:	3f 90       	pop	r3
    3c20:	2f 90       	pop	r2
    3c22:	08 95       	ret

00003c24 <_GLOBAL__sub_I__ZN5GatesC2Ev>:
#include <stdarg.h>
#include <stdlib.h>
#include <avr/eeprom.h>
Gates::Gates(){}

Serial s;
    3c24:	81 e3       	ldi	r24, 0x31	; 49
    3c26:	91 e0       	ldi	r25, 0x01	; 1
    3c28:	0e 94 29 2e 	call	0x5c52	; 0x5c52 <_ZN6SerialC1Ev>
    3c2c:	08 95       	ret

00003c2e <_ZN4QEPU13interrupt_cpuEi>:
#include "qepu.h"

void QEPU::interrupt_cpu(int interrupt_type){
    3c2e:	7f 92       	push	r7
    3c30:	8f 92       	push	r8
    3c32:	9f 92       	push	r9
    3c34:	af 92       	push	r10
    3c36:	bf 92       	push	r11
    3c38:	cf 92       	push	r12
    3c3a:	df 92       	push	r13
    3c3c:	ef 92       	push	r14
    3c3e:	ff 92       	push	r15
    3c40:	0f 93       	push	r16
    3c42:	1f 93       	push	r17
    3c44:	cf 93       	push	r28
    3c46:	df 93       	push	r29
    3c48:	6c 01       	movw	r12, r24
    3c4a:	eb 01       	movw	r28, r22
	//NEEDS RESERVED REGISTERS USED FOR ADDRESS POINTING -> ADDRESS SHOULD POINT TO A REGISTER ADDRESS,NOT SRAM
	//NEEDS RESERVED REGISTERS USED FOR DATA SAVING -> SHOULD SAVE ON A REGISTER,NOT SRAM
	int address_pointer_offset=0;
    3c4c:	e1 2c       	mov	r14, r1
    3c4e:	f1 2c       	mov	r15, r1
	while(!interrupt_signal){
    3c50:	8c 01       	movw	r16, r24
    3c52:	06 52       	subi	r16, 0x26	; 38
    3c54:	1f 4f       	sbci	r17, 0xFF	; 255
				serial.write(sram.read(fetch_register(INT_RESERVED_ADDRESSPOINTER)));
				interrupt_done();
				break;
			case INT_UART_OUT_BUFFER:
				{
					int data_read=sram.read(fetch_register(INT_RESERVED_ADDRESSPOINTER)+address_pointer_offset);
    3c56:	5c 01       	movw	r10, r24
    3c58:	83 e0       	ldi	r24, 0x03	; 3
    3c5a:	a8 0e       	add	r10, r24
    3c5c:	b1 1c       	adc	r11, r1
					if(data_read==STRING_TERMINATOR) interrupt_done();
					else{
						serial.write(data_read);
    3c5e:	46 01       	movw	r8, r12
    3c60:	ef ef       	ldi	r30, 0xFF	; 255
    3c62:	8e 1a       	sub	r8, r30
    3c64:	9e 0a       	sbc	r9, r30
	}
	interrupt_signal=false;
}

void QEPU::interrupt_done(){
	interrupt_signal=true;
    3c66:	77 24       	eor	r7, r7
    3c68:	73 94       	inc	r7

void QEPU::interrupt_cpu(int interrupt_type){
	//NEEDS RESERVED REGISTERS USED FOR ADDRESS POINTING -> ADDRESS SHOULD POINT TO A REGISTER ADDRESS,NOT SRAM
	//NEEDS RESERVED REGISTERS USED FOR DATA SAVING -> SHOULD SAVE ON A REGISTER,NOT SRAM
	int address_pointer_offset=0;
	while(!interrupt_signal){
    3c6a:	2d c0       	rjmp	.+90     	; 0x3cc6 <_ZN4QEPU13interrupt_cpuEi+0x98>
		switch(interrupt_type){
    3c6c:	20 97       	sbiw	r28, 0x00	; 0
    3c6e:	21 f0       	breq	.+8      	; 0x3c78 <_ZN4QEPU13interrupt_cpuEi+0x4a>
    3c70:	c1 30       	cpi	r28, 0x01	; 1
    3c72:	d1 05       	cpc	r29, r1
    3c74:	89 f0       	breq	.+34     	; 0x3c98 <_ZN4QEPU13interrupt_cpuEi+0x6a>
    3c76:	fa cf       	rjmp	.-12     	; 0x3c6c <_ZN4QEPU13interrupt_cpuEi+0x3e>
			case INT_UART_OUT_CHAR:
				serial.write(sram.read(fetch_register(INT_RESERVED_ADDRESSPOINTER)));
    3c78:	60 e0       	ldi	r22, 0x00	; 0
    3c7a:	70 e0       	ldi	r23, 0x00	; 0
    3c7c:	c6 01       	movw	r24, r12
    3c7e:	0e 94 43 20 	call	0x4086	; 0x4086 <_ZN4QEPU14fetch_registerEi>
    3c82:	bc 01       	movw	r22, r24
    3c84:	c5 01       	movw	r24, r10
    3c86:	0e 94 b8 2c 	call	0x5970	; 0x5970 <_ZN4SRAM4readEi>
    3c8a:	68 2f       	mov	r22, r24
    3c8c:	c4 01       	movw	r24, r8
    3c8e:	0e 94 31 2e 	call	0x5c62	; 0x5c62 <_ZN6Serial5writeEc>
	}
	interrupt_signal=false;
}

void QEPU::interrupt_done(){
	interrupt_signal=true;
    3c92:	f8 01       	movw	r30, r16
    3c94:	70 82       	st	Z, r7
    3c96:	17 c0       	rjmp	.+46     	; 0x3cc6 <_ZN4QEPU13interrupt_cpuEi+0x98>
				serial.write(sram.read(fetch_register(INT_RESERVED_ADDRESSPOINTER)));
				interrupt_done();
				break;
			case INT_UART_OUT_BUFFER:
				{
					int data_read=sram.read(fetch_register(INT_RESERVED_ADDRESSPOINTER)+address_pointer_offset);
    3c98:	60 e0       	ldi	r22, 0x00	; 0
    3c9a:	70 e0       	ldi	r23, 0x00	; 0
    3c9c:	c6 01       	movw	r24, r12
    3c9e:	0e 94 43 20 	call	0x4086	; 0x4086 <_ZN4QEPU14fetch_registerEi>
    3ca2:	bc 01       	movw	r22, r24
    3ca4:	6e 0d       	add	r22, r14
    3ca6:	7f 1d       	adc	r23, r15
    3ca8:	c5 01       	movw	r24, r10
    3caa:	0e 94 b8 2c 	call	0x5970	; 0x5970 <_ZN4SRAM4readEi>
					if(data_read==STRING_TERMINATOR) interrupt_done();
    3cae:	84 32       	cpi	r24, 0x24	; 36
    3cb0:	19 f4       	brne	.+6      	; 0x3cb8 <_ZN4QEPU13interrupt_cpuEi+0x8a>
	}
	interrupt_signal=false;
}

void QEPU::interrupt_done(){
	interrupt_signal=true;
    3cb2:	f8 01       	movw	r30, r16
    3cb4:	70 82       	st	Z, r7
    3cb6:	07 c0       	rjmp	.+14     	; 0x3cc6 <_ZN4QEPU13interrupt_cpuEi+0x98>
			case INT_UART_OUT_BUFFER:
				{
					int data_read=sram.read(fetch_register(INT_RESERVED_ADDRESSPOINTER)+address_pointer_offset);
					if(data_read==STRING_TERMINATOR) interrupt_done();
					else{
						serial.write(data_read);
    3cb8:	68 2f       	mov	r22, r24
    3cba:	c4 01       	movw	r24, r8
    3cbc:	0e 94 31 2e 	call	0x5c62	; 0x5c62 <_ZN6Serial5writeEc>
						address_pointer_offset++;
    3cc0:	ff ef       	ldi	r31, 0xFF	; 255
    3cc2:	ef 1a       	sub	r14, r31
    3cc4:	ff 0a       	sbc	r15, r31

void QEPU::interrupt_cpu(int interrupt_type){
	//NEEDS RESERVED REGISTERS USED FOR ADDRESS POINTING -> ADDRESS SHOULD POINT TO A REGISTER ADDRESS,NOT SRAM
	//NEEDS RESERVED REGISTERS USED FOR DATA SAVING -> SHOULD SAVE ON A REGISTER,NOT SRAM
	int address_pointer_offset=0;
	while(!interrupt_signal){
    3cc6:	f8 01       	movw	r30, r16
    3cc8:	80 81       	ld	r24, Z
    3cca:	88 23       	and	r24, r24
    3ccc:	79 f2       	breq	.-98     	; 0x3c6c <_ZN4QEPU13interrupt_cpuEi+0x3e>
				break;
			case INT_UART_IN_BUFF_ECHO:
				break;
		}
	}
	interrupt_signal=false;
    3cce:	f6 01       	movw	r30, r12
    3cd0:	e6 52       	subi	r30, 0x26	; 38
    3cd2:	ff 4f       	sbci	r31, 0xFF	; 255
    3cd4:	10 82       	st	Z, r1
}
    3cd6:	df 91       	pop	r29
    3cd8:	cf 91       	pop	r28
    3cda:	1f 91       	pop	r17
    3cdc:	0f 91       	pop	r16
    3cde:	ff 90       	pop	r15
    3ce0:	ef 90       	pop	r14
    3ce2:	df 90       	pop	r13
    3ce4:	cf 90       	pop	r12
    3ce6:	bf 90       	pop	r11
    3ce8:	af 90       	pop	r10
    3cea:	9f 90       	pop	r9
    3cec:	8f 90       	pop	r8
    3cee:	7f 90       	pop	r7
    3cf0:	08 95       	ret

00003cf2 <_ZN4QEPU9JumpstackC1Ev>:
#include "qepu.h"

QEPU::Jumpstack::Jumpstack():newest_address_index(0){
    3cf2:	fc 01       	movw	r30, r24
    3cf4:	11 82       	std	Z+1, r1	; 0x01
    3cf6:	10 82       	st	Z, r1
    3cf8:	08 95       	ret

00003cfa <_ZN4QEPU9Jumpstack4pushEi>:
	
}
void QEPU::Jumpstack::push(int newaddress){
	addresses_toreturn[newest_address_index]=newaddress;
    3cfa:	fc 01       	movw	r30, r24
    3cfc:	20 81       	ld	r18, Z
    3cfe:	31 81       	ldd	r19, Z+1	; 0x01
    3d00:	2f 5f       	subi	r18, 0xFF	; 255
    3d02:	3f 4f       	sbci	r19, 0xFF	; 255
    3d04:	f9 01       	movw	r30, r18
    3d06:	ee 0f       	add	r30, r30
    3d08:	ff 1f       	adc	r31, r31
    3d0a:	e8 0f       	add	r30, r24
    3d0c:	f9 1f       	adc	r31, r25
    3d0e:	71 83       	std	Z+1, r23	; 0x01
    3d10:	60 83       	st	Z, r22
	newest_address_index++;
    3d12:	fc 01       	movw	r30, r24
    3d14:	31 83       	std	Z+1, r19	; 0x01
    3d16:	20 83       	st	Z, r18
    3d18:	08 95       	ret

00003d1a <_ZN4QEPU9Jumpstack3popEv>:
}
int QEPU::Jumpstack::pop(){
    3d1a:	fc 01       	movw	r30, r24
	if(newest_address_index<=0) return 0;
    3d1c:	80 81       	ld	r24, Z
    3d1e:	91 81       	ldd	r25, Z+1	; 0x01
    3d20:	18 16       	cp	r1, r24
    3d22:	19 06       	cpc	r1, r25
    3d24:	ac f4       	brge	.+42     	; 0x3d50 <_ZN4QEPU9Jumpstack3popEv+0x36>
	int address_returning=addresses_toreturn[newest_address_index-1];
    3d26:	01 97       	sbiw	r24, 0x01	; 1
    3d28:	dc 01       	movw	r26, r24
    3d2a:	aa 0f       	add	r26, r26
    3d2c:	bb 1f       	adc	r27, r27
    3d2e:	ae 0f       	add	r26, r30
    3d30:	bf 1f       	adc	r27, r31
    3d32:	12 96       	adiw	r26, 0x02	; 2
    3d34:	3c 91       	ld	r19, X
    3d36:	12 97       	sbiw	r26, 0x02	; 2
    3d38:	13 96       	adiw	r26, 0x03	; 3
    3d3a:	2c 91       	ld	r18, X
    3d3c:	13 97       	sbiw	r26, 0x03	; 3
	addresses_toreturn[newest_address_index-1]=0;
    3d3e:	13 96       	adiw	r26, 0x03	; 3
    3d40:	1c 92       	st	X, r1
    3d42:	1e 92       	st	-X, r1
    3d44:	12 97       	sbiw	r26, 0x02	; 2
	newest_address_index--;
    3d46:	91 83       	std	Z+1, r25	; 0x01
    3d48:	80 83       	st	Z, r24
	return address_returning;
    3d4a:	83 2f       	mov	r24, r19
    3d4c:	92 2f       	mov	r25, r18
    3d4e:	08 95       	ret
void QEPU::Jumpstack::push(int newaddress){
	addresses_toreturn[newest_address_index]=newaddress;
	newest_address_index++;
}
int QEPU::Jumpstack::pop(){
	if(newest_address_index<=0) return 0;
    3d50:	80 e0       	ldi	r24, 0x00	; 0
    3d52:	90 e0       	ldi	r25, 0x00	; 0
	int address_returning=addresses_toreturn[newest_address_index-1];
	addresses_toreturn[newest_address_index-1]=0;
	newest_address_index--;
	return address_returning;
}
    3d54:	08 95       	ret

00003d56 <_ZN4QEPU10setup_seedEv>:

//SETUP SEED FOR RAND():
uint16_t EEMEM randinit;

void QEPU::setup_seed(){
	srand(eeprom_read_word(&randinit));
    3d56:	80 e0       	ldi	r24, 0x00	; 0
    3d58:	90 e0       	ldi	r25, 0x00	; 0
    3d5a:	0e 94 28 38 	call	0x7050	; 0x7050 <__eerd_word_m32>
    3d5e:	0e 94 dd 34 	call	0x69ba	; 0x69ba <srand>
	eeprom_write_word(&randinit,rand()%10000);
    3d62:	0e 94 d8 34 	call	0x69b0	; 0x69b0 <rand>
    3d66:	60 e1       	ldi	r22, 0x10	; 16
    3d68:	77 e2       	ldi	r23, 0x27	; 39
    3d6a:	0e 94 35 33 	call	0x666a	; 0x666a <__divmodhi4>
    3d6e:	bc 01       	movw	r22, r24
    3d70:	80 e0       	ldi	r24, 0x00	; 0
    3d72:	90 e0       	ldi	r25, 0x00	; 0
    3d74:	0e 94 2e 38 	call	0x705c	; 0x705c <__eewr_word_m32>
    3d78:	08 95       	ret

00003d7a <_ZN4QEPUC1Ev>:
#include "qepu.h"
QEPU::QEPU(){serial.writestr("INITIALIZING . . . ");setup_seed();CTRL_QB_DIR=OUTPUT;program_counter=0;program_counter_maximum=0;}
    3d7a:	0f 93       	push	r16
    3d7c:	1f 93       	push	r17
    3d7e:	cf 93       	push	r28
    3d80:	df 93       	push	r29
    3d82:	ec 01       	movw	r28, r24
    3d84:	0e 94 ee 02 	call	0x5dc	; 0x5dc <_ZN4QEPU4FlagC1Ev>
    3d88:	8e 01       	movw	r16, r28
    3d8a:	0f 5f       	subi	r16, 0xFF	; 255
    3d8c:	1f 4f       	sbci	r17, 0xFF	; 255
    3d8e:	c8 01       	movw	r24, r16
    3d90:	0e 94 29 2e 	call	0x5c52	; 0x5c52 <_ZN6SerialC1Ev>
    3d94:	ce 01       	movw	r24, r28
    3d96:	02 96       	adiw	r24, 0x02	; 2
    3d98:	0e 94 2b 02 	call	0x456	; 0x456 <_ZN6EEPromC1Ev>
    3d9c:	ce 01       	movw	r24, r28
    3d9e:	03 96       	adiw	r24, 0x03	; 3
    3da0:	0e 94 6e 2c 	call	0x58dc	; 0x58dc <_ZN4SRAMC1Ev>
    3da4:	ce 01       	movw	r24, r28
    3da6:	0a 96       	adiw	r24, 0x0a	; 10
    3da8:	0e 94 29 03 	call	0x652	; 0x652 <_ZN5GatesC1Ev>
    3dac:	ce 01       	movw	r24, r28
    3dae:	0b 96       	adiw	r24, 0x0b	; 11
    3db0:	0e 94 79 1e 	call	0x3cf2	; 0x3cf2 <_ZN4QEPU9JumpstackC1Ev>
    3db4:	66 e8       	ldi	r22, 0x86	; 134
    3db6:	70 e0       	ldi	r23, 0x00	; 0
    3db8:	c8 01       	movw	r24, r16
    3dba:	0e 94 35 2e 	call	0x5c6a	; 0x5c6a <_ZN6Serial8writestrEPc>
    3dbe:	ce 01       	movw	r24, r28
    3dc0:	0e 94 ab 1e 	call	0x3d56	; 0x3d56 <_ZN4QEPU10setup_seedEv>
    3dc4:	8f ef       	ldi	r24, 0xFF	; 255
    3dc6:	8a bb       	out	0x1a, r24	; 26
    3dc8:	fe 01       	movw	r30, r28
    3dca:	ea 52       	subi	r30, 0x2A	; 42
    3dcc:	ff 4f       	sbci	r31, 0xFF	; 255
    3dce:	11 82       	std	Z+1, r1	; 0x01
    3dd0:	10 82       	st	Z, r1
    3dd2:	c8 52       	subi	r28, 0x28	; 40
    3dd4:	df 4f       	sbci	r29, 0xFF	; 255
    3dd6:	19 82       	std	Y+1, r1	; 0x01
    3dd8:	18 82       	st	Y, r1
    3dda:	df 91       	pop	r29
    3ddc:	cf 91       	pop	r28
    3dde:	1f 91       	pop	r17
    3de0:	0f 91       	pop	r16
    3de2:	08 95       	ret

00003de4 <_ZN4QEPU14setbuffctrlpinEii>:
void QEPU::setdatapin(int pin,int state){
	BUS_OUT&=~(1<<pin); // CLEAR PIN
	BUS_OUT|=(state<<pin); // SET PIN
}
void QEPU::setbuffctrlpin(int pin,int state){
	CTRL_BUFF&=~(1<<pin); // CLEAR PIN
    3de4:	75 b3       	in	r23, 0x15	; 21
    3de6:	21 e0       	ldi	r18, 0x01	; 1
    3de8:	30 e0       	ldi	r19, 0x00	; 0
    3dea:	c9 01       	movw	r24, r18
    3dec:	06 2e       	mov	r0, r22
    3dee:	02 c0       	rjmp	.+4      	; 0x3df4 <_ZN4QEPU14setbuffctrlpinEii+0x10>
    3df0:	88 0f       	add	r24, r24
    3df2:	99 1f       	adc	r25, r25
    3df4:	0a 94       	dec	r0
    3df6:	e2 f7       	brpl	.-8      	; 0x3df0 <_ZN4QEPU14setbuffctrlpinEii+0xc>
    3df8:	80 95       	com	r24
    3dfa:	87 23       	and	r24, r23
    3dfc:	85 bb       	out	0x15, r24	; 21
	CTRL_BUFF|=(state<<pin); // SET PIN
    3dfe:	85 b3       	in	r24, 0x15	; 21
    3e00:	02 c0       	rjmp	.+4      	; 0x3e06 <_ZN4QEPU14setbuffctrlpinEii+0x22>
    3e02:	44 0f       	add	r20, r20
    3e04:	55 1f       	adc	r21, r21
    3e06:	6a 95       	dec	r22
    3e08:	e2 f7       	brpl	.-8      	; 0x3e02 <_ZN4QEPU14setbuffctrlpinEii+0x1e>
    3e0a:	48 2b       	or	r20, r24
    3e0c:	45 bb       	out	0x15, r20	; 21
    3e0e:	08 95       	ret

00003e10 <_ZN4QEPU14deselect_qubitEv>:
	//TODO: TOUCH QUBIT
	
	return deg_read;
}
void QEPU::deselect_qubit(){
	CTRL_BUFF_DIR=OUTPUT;
    3e10:	2f ef       	ldi	r18, 0xFF	; 255
    3e12:	24 bb       	out	0x14, r18	; 20
	setbuffctrlpin(EO_AB,LOW);
    3e14:	40 e0       	ldi	r20, 0x00	; 0
    3e16:	50 e0       	ldi	r21, 0x00	; 0
    3e18:	64 e0       	ldi	r22, 0x04	; 4
    3e1a:	70 e0       	ldi	r23, 0x00	; 0
    3e1c:	0e 94 f2 1e 	call	0x3de4	; 0x3de4 <_ZN4QEPU14setbuffctrlpinEii>
    3e20:	08 95       	ret

00003e22 <_ZN4QEPU12select_qubitEi>:
}
void QEPU::select_qubit(int index){
    3e22:	af 92       	push	r10
    3e24:	bf 92       	push	r11
    3e26:	cf 92       	push	r12
    3e28:	df 92       	push	r13
    3e2a:	ef 92       	push	r14
    3e2c:	ff 92       	push	r15
    3e2e:	0f 93       	push	r16
    3e30:	1f 93       	push	r17
    3e32:	cf 93       	push	r28
    3e34:	df 93       	push	r29
    3e36:	00 d0       	rcall	.+0      	; 0x3e38 <_ZN4QEPU12select_qubitEi+0x16>
    3e38:	00 d0       	rcall	.+0      	; 0x3e3a <_ZN4QEPU12select_qubitEi+0x18>
    3e3a:	00 d0       	rcall	.+0      	; 0x3e3c <_ZN4QEPU12select_qubitEi+0x1a>
    3e3c:	cd b7       	in	r28, 0x3d	; 61
    3e3e:	de b7       	in	r29, 0x3e	; 62
    3e40:	8c 01       	movw	r16, r24
	int address_buffer[ADDRESS_BUFFER_SIZE];
	int mask_bit_addressbuff=0b1111;
	for(int i=0;i<ADDRESS_BUFFER_SIZE;i++){
		address_buffer[i]=(index&mask_bit_addressbuff)>>(4*i);
    3e42:	cb 01       	movw	r24, r22
    3e44:	8f 70       	andi	r24, 0x0F	; 15
    3e46:	99 27       	eor	r25, r25
    3e48:	9a 83       	std	Y+2, r25	; 0x02
    3e4a:	89 83       	std	Y+1, r24	; 0x01
    3e4c:	cb 01       	movw	r24, r22
    3e4e:	80 7f       	andi	r24, 0xF0	; 240
    3e50:	99 27       	eor	r25, r25
    3e52:	95 95       	asr	r25
    3e54:	87 95       	ror	r24
    3e56:	95 95       	asr	r25
    3e58:	87 95       	ror	r24
    3e5a:	95 95       	asr	r25
    3e5c:	87 95       	ror	r24
    3e5e:	95 95       	asr	r25
    3e60:	87 95       	ror	r24
    3e62:	9c 83       	std	Y+4, r25	; 0x04
    3e64:	8b 83       	std	Y+3, r24	; 0x03
    3e66:	66 27       	eor	r22, r22
    3e68:	7f 70       	andi	r23, 0x0F	; 15
    3e6a:	87 2f       	mov	r24, r23
    3e6c:	88 0f       	add	r24, r24
    3e6e:	88 0b       	sbc	r24, r24
    3e70:	7d 83       	std	Y+5, r23	; 0x05
    3e72:	8e 83       	std	Y+6, r24	; 0x06
		mask_bit_addressbuff<<=4;
	}
	CTRL_QB_DIR=OUTPUT;
    3e74:	8f ef       	ldi	r24, 0xFF	; 255
    3e76:	8a bb       	out	0x1a, r24	; 26
	CTRL_BUFF_DIR=OUTPUT;
    3e78:	84 bb       	out	0x14, r24	; 20
	setbuffctrlpin(IN_ABBUFFER_CLOCK,HIGH);
	setbuffctrlpin(IN_ABBUFFER_CLOCK,LOW);
	setbuffctrlpin(EO_AB,HIGH);
}
void QEPU::setctrl(int bin){
	CTRL_QB=bin;
    3e7a:	89 81       	ldd	r24, Y+1	; 0x01
    3e7c:	8b bb       	out	0x1b, r24	; 27
	}
	CTRL_QB_DIR=OUTPUT;
	CTRL_BUFF_DIR=OUTPUT;
	
	setctrl(address_buffer[0]);
	setbuffctrlpin(IN_ABBUFFER_START,HIGH);
    3e7e:	41 e0       	ldi	r20, 0x01	; 1
    3e80:	50 e0       	ldi	r21, 0x00	; 0
    3e82:	62 e0       	ldi	r22, 0x02	; 2
    3e84:	70 e0       	ldi	r23, 0x00	; 0
    3e86:	c8 01       	movw	r24, r16
    3e88:	0e 94 f2 1e 	call	0x3de4	; 0x3de4 <_ZN4QEPU14setbuffctrlpinEii>
	setbuffctrlpin(IN_ABBUFFER_CLOCK,HIGH);
    3e8c:	41 e0       	ldi	r20, 0x01	; 1
    3e8e:	50 e0       	ldi	r21, 0x00	; 0
    3e90:	63 e0       	ldi	r22, 0x03	; 3
    3e92:	70 e0       	ldi	r23, 0x00	; 0
    3e94:	c8 01       	movw	r24, r16
    3e96:	0e 94 f2 1e 	call	0x3de4	; 0x3de4 <_ZN4QEPU14setbuffctrlpinEii>
	setbuffctrlpin(IN_ABBUFFER_CLOCK,LOW);
    3e9a:	40 e0       	ldi	r20, 0x00	; 0
    3e9c:	50 e0       	ldi	r21, 0x00	; 0
    3e9e:	63 e0       	ldi	r22, 0x03	; 3
    3ea0:	70 e0       	ldi	r23, 0x00	; 0
    3ea2:	c8 01       	movw	r24, r16
    3ea4:	0e 94 f2 1e 	call	0x3de4	; 0x3de4 <_ZN4QEPU14setbuffctrlpinEii>
	setbuffctrlpin(IN_ABBUFFER_START,LOW);
    3ea8:	40 e0       	ldi	r20, 0x00	; 0
    3eaa:	50 e0       	ldi	r21, 0x00	; 0
    3eac:	62 e0       	ldi	r22, 0x02	; 2
    3eae:	70 e0       	ldi	r23, 0x00	; 0
    3eb0:	c8 01       	movw	r24, r16
    3eb2:	0e 94 f2 1e 	call	0x3de4	; 0x3de4 <_ZN4QEPU14setbuffctrlpinEii>
	utils.delay(ADDRESS_WRITE_DELAY);
    3eb6:	68 01       	movw	r12, r16
    3eb8:	85 ed       	ldi	r24, 0xD5	; 213
    3eba:	c8 0e       	add	r12, r24
    3ebc:	d1 1c       	adc	r13, r1
    3ebe:	6a e0       	ldi	r22, 0x0A	; 10
    3ec0:	70 e0       	ldi	r23, 0x00	; 0
    3ec2:	c6 01       	movw	r24, r12
    3ec4:	0e 94 ac 2e 	call	0x5d58	; 0x5d58 <_ZN5Utils5delayEi>
    3ec8:	7e 01       	movw	r14, r28
    3eca:	93 e0       	ldi	r25, 0x03	; 3
    3ecc:	e9 0e       	add	r14, r25
    3ece:	f1 1c       	adc	r15, r1
    3ed0:	5e 01       	movw	r10, r28
    3ed2:	e7 e0       	ldi	r30, 0x07	; 7
    3ed4:	ae 0e       	add	r10, r30
    3ed6:	b1 1c       	adc	r11, r1
	for(int i=1;i<ADDRESS_BUFFER_SIZE;i++){
		setbuffctrlpin(IN_ABBUFFER_CLOCK,HIGH);
    3ed8:	41 e0       	ldi	r20, 0x01	; 1
    3eda:	50 e0       	ldi	r21, 0x00	; 0
    3edc:	63 e0       	ldi	r22, 0x03	; 3
    3ede:	70 e0       	ldi	r23, 0x00	; 0
    3ee0:	c8 01       	movw	r24, r16
    3ee2:	0e 94 f2 1e 	call	0x3de4	; 0x3de4 <_ZN4QEPU14setbuffctrlpinEii>
		setbuffctrlpin(IN_ABBUFFER_CLOCK,LOW);
    3ee6:	40 e0       	ldi	r20, 0x00	; 0
    3ee8:	50 e0       	ldi	r21, 0x00	; 0
    3eea:	63 e0       	ldi	r22, 0x03	; 3
    3eec:	70 e0       	ldi	r23, 0x00	; 0
    3eee:	c8 01       	movw	r24, r16
    3ef0:	0e 94 f2 1e 	call	0x3de4	; 0x3de4 <_ZN4QEPU14setbuffctrlpinEii>
		setctrl(address_buffer[i]);
    3ef4:	f7 01       	movw	r30, r14
    3ef6:	80 81       	ld	r24, Z
    3ef8:	f2 e0       	ldi	r31, 0x02	; 2
    3efa:	ef 0e       	add	r14, r31
    3efc:	f1 1c       	adc	r15, r1
	setbuffctrlpin(IN_ABBUFFER_CLOCK,HIGH);
	setbuffctrlpin(IN_ABBUFFER_CLOCK,LOW);
	setbuffctrlpin(EO_AB,HIGH);
}
void QEPU::setctrl(int bin){
	CTRL_QB=bin;
    3efe:	8b bb       	out	0x1b, r24	; 27
	utils.delay(ADDRESS_WRITE_DELAY);
	for(int i=1;i<ADDRESS_BUFFER_SIZE;i++){
		setbuffctrlpin(IN_ABBUFFER_CLOCK,HIGH);
		setbuffctrlpin(IN_ABBUFFER_CLOCK,LOW);
		setctrl(address_buffer[i]);
		utils.delay(ADDRESS_WRITE_DELAY);
    3f00:	6a e0       	ldi	r22, 0x0A	; 10
    3f02:	70 e0       	ldi	r23, 0x00	; 0
    3f04:	c6 01       	movw	r24, r12
    3f06:	0e 94 ac 2e 	call	0x5d58	; 0x5d58 <_ZN5Utils5delayEi>
	setbuffctrlpin(IN_ABBUFFER_START,HIGH);
	setbuffctrlpin(IN_ABBUFFER_CLOCK,HIGH);
	setbuffctrlpin(IN_ABBUFFER_CLOCK,LOW);
	setbuffctrlpin(IN_ABBUFFER_START,LOW);
	utils.delay(ADDRESS_WRITE_DELAY);
	for(int i=1;i<ADDRESS_BUFFER_SIZE;i++){
    3f0a:	ea 14       	cp	r14, r10
    3f0c:	fb 04       	cpc	r15, r11
    3f0e:	21 f7       	brne	.-56     	; 0x3ed8 <_ZN4QEPU12select_qubitEi+0xb6>
		setbuffctrlpin(IN_ABBUFFER_CLOCK,HIGH);
		setbuffctrlpin(IN_ABBUFFER_CLOCK,LOW);
		setctrl(address_buffer[i]);
		utils.delay(ADDRESS_WRITE_DELAY);
	}
	setbuffctrlpin(IN_ABBUFFER_CLOCK,HIGH);
    3f10:	41 e0       	ldi	r20, 0x01	; 1
    3f12:	50 e0       	ldi	r21, 0x00	; 0
    3f14:	63 e0       	ldi	r22, 0x03	; 3
    3f16:	70 e0       	ldi	r23, 0x00	; 0
    3f18:	c8 01       	movw	r24, r16
    3f1a:	0e 94 f2 1e 	call	0x3de4	; 0x3de4 <_ZN4QEPU14setbuffctrlpinEii>
	setbuffctrlpin(IN_ABBUFFER_CLOCK,LOW);
    3f1e:	40 e0       	ldi	r20, 0x00	; 0
    3f20:	50 e0       	ldi	r21, 0x00	; 0
    3f22:	63 e0       	ldi	r22, 0x03	; 3
    3f24:	70 e0       	ldi	r23, 0x00	; 0
    3f26:	c8 01       	movw	r24, r16
    3f28:	0e 94 f2 1e 	call	0x3de4	; 0x3de4 <_ZN4QEPU14setbuffctrlpinEii>
	setbuffctrlpin(EO_AB,HIGH);
    3f2c:	41 e0       	ldi	r20, 0x01	; 1
    3f2e:	50 e0       	ldi	r21, 0x00	; 0
    3f30:	64 e0       	ldi	r22, 0x04	; 4
    3f32:	70 e0       	ldi	r23, 0x00	; 0
    3f34:	c8 01       	movw	r24, r16
    3f36:	0e 94 f2 1e 	call	0x3de4	; 0x3de4 <_ZN4QEPU14setbuffctrlpinEii>
}
    3f3a:	26 96       	adiw	r28, 0x06	; 6
    3f3c:	0f b6       	in	r0, 0x3f	; 63
    3f3e:	f8 94       	cli
    3f40:	de bf       	out	0x3e, r29	; 62
    3f42:	0f be       	out	0x3f, r0	; 63
    3f44:	cd bf       	out	0x3d, r28	; 61
    3f46:	df 91       	pop	r29
    3f48:	cf 91       	pop	r28
    3f4a:	1f 91       	pop	r17
    3f4c:	0f 91       	pop	r16
    3f4e:	ff 90       	pop	r15
    3f50:	ef 90       	pop	r14
    3f52:	df 90       	pop	r13
    3f54:	cf 90       	pop	r12
    3f56:	bf 90       	pop	r11
    3f58:	af 90       	pop	r10
    3f5a:	08 95       	ret

00003f5c <_ZN4QEPU10setctrlpinEii>:
void QEPU::setbuffctrlpin(int pin,int state){
	CTRL_BUFF&=~(1<<pin); // CLEAR PIN
	CTRL_BUFF|=(state<<pin); // SET PIN
}
void QEPU::setctrlpin(int pin,int state){
	CTRL_QB&=~(1<<pin); // CLEAR PIN
    3f5c:	7b b3       	in	r23, 0x1b	; 27
    3f5e:	21 e0       	ldi	r18, 0x01	; 1
    3f60:	30 e0       	ldi	r19, 0x00	; 0
    3f62:	c9 01       	movw	r24, r18
    3f64:	06 2e       	mov	r0, r22
    3f66:	02 c0       	rjmp	.+4      	; 0x3f6c <_ZN4QEPU10setctrlpinEii+0x10>
    3f68:	88 0f       	add	r24, r24
    3f6a:	99 1f       	adc	r25, r25
    3f6c:	0a 94       	dec	r0
    3f6e:	e2 f7       	brpl	.-8      	; 0x3f68 <_ZN4QEPU10setctrlpinEii+0xc>
    3f70:	80 95       	com	r24
    3f72:	87 23       	and	r24, r23
    3f74:	8b bb       	out	0x1b, r24	; 27
	CTRL_QB|=(state<<pin); // SET PIN
    3f76:	8b b3       	in	r24, 0x1b	; 27
    3f78:	02 c0       	rjmp	.+4      	; 0x3f7e <_ZN4QEPU10setctrlpinEii+0x22>
    3f7a:	44 0f       	add	r20, r20
    3f7c:	55 1f       	adc	r21, r21
    3f7e:	6a 95       	dec	r22
    3f80:	e2 f7       	brpl	.-8      	; 0x3f7a <_ZN4QEPU10setctrlpinEii+0x1e>
    3f82:	48 2b       	or	r20, r24
    3f84:	4b bb       	out	0x1b, r20	; 27
    3f86:	08 95       	ret

00003f88 <_ZN4QEPU5writeEiii>:
void QEPU::close_bus(){
	setctrl(0); // CLOSE ALL CONTROLS
	deselect_qubit(); // DESELECT ALL QUBITS
	bus_write(LOW);
}
void QEPU::write(int index,int dim,int deg){
    3f88:	ff 92       	push	r15
    3f8a:	0f 93       	push	r16
    3f8c:	1f 93       	push	r17
    3f8e:	cf 93       	push	r28
    3f90:	df 93       	push	r29
    3f92:	ec 01       	movw	r28, r24
    3f94:	8a 01       	movw	r16, r20
	BUS_DIR=OUTPUT;
    3f96:	ff 24       	eor	r15, r15
    3f98:	fa 94       	dec	r15
    3f9a:	f7 ba       	out	0x17, r15	; 23
	eeprom_write_word(&randinit,rand()%10000);
}

//QUBIT MEMORY HANDLING:
void QEPU::bus_write(int8_t data){
	BUS_DIR=OUTPUT;
    3f9c:	f7 ba       	out	0x17, r15	; 23
	BUS_OUT=data;
    3f9e:	28 bb       	out	0x18, r18	; 24
}
void QEPU::write(int index,int dim,int deg){
	BUS_DIR=OUTPUT;
	
	bus_write(deg);
	select_qubit(index);
    3fa0:	0e 94 11 1f 	call	0x3e22	; 0x3e22 <_ZN4QEPU12select_qubitEi>
	setctrlpin(DIM_SEL,dim);
    3fa4:	a8 01       	movw	r20, r16
    3fa6:	64 e0       	ldi	r22, 0x04	; 4
    3fa8:	70 e0       	ldi	r23, 0x00	; 0
    3faa:	ce 01       	movw	r24, r28
    3fac:	0e 94 ae 1f 	call	0x3f5c	; 0x3f5c <_ZN4QEPU10setctrlpinEii>
	setctrlpin(WRITE_QB,HIGH); // CLOCK UP LOAD
    3fb0:	41 e0       	ldi	r20, 0x01	; 1
    3fb2:	50 e0       	ldi	r21, 0x00	; 0
    3fb4:	66 e0       	ldi	r22, 0x06	; 6
    3fb6:	70 e0       	ldi	r23, 0x00	; 0
    3fb8:	ce 01       	movw	r24, r28
    3fba:	0e 94 ae 1f 	call	0x3f5c	; 0x3f5c <_ZN4QEPU10setctrlpinEii>
	setctrlpin(WRITE_QB,LOW); // CLOCK DOWN LOAD
    3fbe:	40 e0       	ldi	r20, 0x00	; 0
    3fc0:	50 e0       	ldi	r21, 0x00	; 0
    3fc2:	66 e0       	ldi	r22, 0x06	; 6
    3fc4:	70 e0       	ldi	r23, 0x00	; 0
    3fc6:	ce 01       	movw	r24, r28
    3fc8:	0e 94 ae 1f 	call	0x3f5c	; 0x3f5c <_ZN4QEPU10setctrlpinEii>
	eeprom_write_word(&randinit,rand()%10000);
}

//QUBIT MEMORY HANDLING:
void QEPU::bus_write(int8_t data){
	BUS_DIR=OUTPUT;
    3fcc:	f7 ba       	out	0x17, r15	; 23
	BUS_OUT=data;
    3fce:	18 ba       	out	0x18, r1	; 24
	select_qubit(index);
	setctrlpin(DIM_SEL,dim);
	setctrlpin(WRITE_QB,HIGH); // CLOCK UP LOAD
	setctrlpin(WRITE_QB,LOW); // CLOCK DOWN LOAD
	bus_write(LOW);
	deselect_qubit();
    3fd0:	ce 01       	movw	r24, r28
    3fd2:	0e 94 08 1f 	call	0x3e10	; 0x3e10 <_ZN4QEPU14deselect_qubitEv>
}
    3fd6:	df 91       	pop	r29
    3fd8:	cf 91       	pop	r28
    3fda:	1f 91       	pop	r17
    3fdc:	0f 91       	pop	r16
    3fde:	ff 90       	pop	r15
    3fe0:	08 95       	ret

00003fe2 <_ZN4QEPU4readEiib>:
int QEPU::read(int index,int dim,bool freeze_bus){
    3fe2:	ff 92       	push	r15
    3fe4:	0f 93       	push	r16
    3fe6:	1f 93       	push	r17
    3fe8:	cf 93       	push	r28
    3fea:	df 93       	push	r29
    3fec:	ec 01       	movw	r28, r24
    3fee:	8a 01       	movw	r16, r20
    3ff0:	f2 2e       	mov	r15, r18
	BUS_DIR=INPUT;
    3ff2:	17 ba       	out	0x17, r1	; 23
	
	select_qubit(index);
    3ff4:	0e 94 11 1f 	call	0x3e22	; 0x3e22 <_ZN4QEPU12select_qubitEi>
	//OPEN ALL AND GATES
	setctrlpin(5,1); // CLOCK UP READ
    3ff8:	41 e0       	ldi	r20, 0x01	; 1
    3ffa:	50 e0       	ldi	r21, 0x00	; 0
    3ffc:	65 e0       	ldi	r22, 0x05	; 5
    3ffe:	70 e0       	ldi	r23, 0x00	; 0
    4000:	ce 01       	movw	r24, r28
    4002:	0e 94 ae 1f 	call	0x3f5c	; 0x3f5c <_ZN4QEPU10setctrlpinEii>
	setctrlpin(4,dim);
    4006:	a8 01       	movw	r20, r16
    4008:	64 e0       	ldi	r22, 0x04	; 4
    400a:	70 e0       	ldi	r23, 0x00	; 0
    400c:	ce 01       	movw	r24, r28
    400e:	0e 94 ae 1f 	call	0x3f5c	; 0x3f5c <_ZN4QEPU10setctrlpinEii>
	int deg_read=BUS_IN; // READ INPUT
    4012:	06 b3       	in	r16, 0x16	; 22
    4014:	10 e0       	ldi	r17, 0x00	; 0
	//CLOSE ALL AND GATES
	BUS_DIR=OUTPUT;
    4016:	8f ef       	ldi	r24, 0xFF	; 255
    4018:	87 bb       	out	0x17, r24	; 23
	if(!freeze_bus){
    401a:	f1 10       	cpse	r15, r1
    401c:	04 c0       	rjmp	.+8      	; 0x4026 <_ZN4QEPU4readEiib+0x44>
	setbuffctrlpin(IN_ABBUFFER_CLOCK,HIGH);
	setbuffctrlpin(IN_ABBUFFER_CLOCK,LOW);
	setbuffctrlpin(EO_AB,HIGH);
}
void QEPU::setctrl(int bin){
	CTRL_QB=bin;
    401e:	1b ba       	out	0x1b, r1	; 27
	int deg_read=BUS_IN; // READ INPUT
	//CLOSE ALL AND GATES
	BUS_DIR=OUTPUT;
	if(!freeze_bus){
		setctrl(0); // CLOSE ALL CONTROLS
		deselect_qubit();
    4020:	ce 01       	movw	r24, r28
    4022:	0e 94 08 1f 	call	0x3e10	; 0x3e10 <_ZN4QEPU14deselect_qubitEv>
	}
	//TODO: TOUCH QUBIT
	
	return deg_read;
}
    4026:	c8 01       	movw	r24, r16
    4028:	df 91       	pop	r29
    402a:	cf 91       	pop	r28
    402c:	1f 91       	pop	r17
    402e:	0f 91       	pop	r16
    4030:	ff 90       	pop	r15
    4032:	08 95       	ret

00004034 <_ZN4QEPU7measureEi>:
}
void QEPU::setctrlpin(int pin,int state){
	CTRL_QB&=~(1<<pin); // CLEAR PIN
	CTRL_QB|=(state<<pin); // SET PIN
}
int QEPU::measure(int amplitude){
    4034:	cf 93       	push	r28
    4036:	df 93       	push	r29
    4038:	ec 01       	movw	r28, r24
	return gates.touch(utils.custom_pow(sin(amplitude*M_PI/360),2));
    403a:	88 27       	eor	r24, r24
    403c:	77 fd       	sbrc	r23, 7
    403e:	80 95       	com	r24
    4040:	98 2f       	mov	r25, r24
    4042:	0e 94 7f 30 	call	0x60fe	; 0x60fe <__floatsisf>
    4046:	2b ed       	ldi	r18, 0xDB	; 219
    4048:	3f e0       	ldi	r19, 0x0F	; 15
    404a:	49 e4       	ldi	r20, 0x49	; 73
    404c:	50 e4       	ldi	r21, 0x40	; 64
    404e:	0e 94 61 32 	call	0x64c2	; 0x64c2 <__mulsf3>
    4052:	20 e0       	ldi	r18, 0x00	; 0
    4054:	30 e0       	ldi	r19, 0x00	; 0
    4056:	44 eb       	ldi	r20, 0xB4	; 180
    4058:	53 e4       	ldi	r21, 0x43	; 67
    405a:	0e 94 b3 2f 	call	0x5f66	; 0x5f66 <__divsf3>
    405e:	0e 94 c4 32 	call	0x6588	; 0x6588 <sin>
    4062:	ab 01       	movw	r20, r22
    4064:	bc 01       	movw	r22, r24
    4066:	22 e0       	ldi	r18, 0x02	; 2
    4068:	30 e0       	ldi	r19, 0x00	; 0
    406a:	ce 01       	movw	r24, r28
    406c:	8b 52       	subi	r24, 0x2B	; 43
    406e:	9f 4f       	sbci	r25, 0xFF	; 255
    4070:	0e 94 ba 2e 	call	0x5d74	; 0x5d74 <_ZN5Utils10custom_powEfi>
    4074:	ab 01       	movw	r20, r22
    4076:	bc 01       	movw	r22, r24
    4078:	ce 01       	movw	r24, r28
    407a:	0a 96       	adiw	r24, 0x0a	; 10
    407c:	0e 94 96 03 	call	0x72c	; 0x72c <_ZN5Gates5touchEd>
}
    4080:	df 91       	pop	r29
    4082:	cf 91       	pop	r28
    4084:	08 95       	ret

00004086 <_ZN4QEPU14fetch_registerEi>:

int QEPU::fetch_register(int address){
    4086:	8f 92       	push	r8
    4088:	9f 92       	push	r9
    408a:	af 92       	push	r10
    408c:	bf 92       	push	r11
    408e:	cf 92       	push	r12
    4090:	df 92       	push	r13
    4092:	ef 92       	push	r14
    4094:	ff 92       	push	r15
    4096:	0f 93       	push	r16
    4098:	1f 93       	push	r17
    409a:	cf 93       	push	r28
    409c:	df 93       	push	r29
    409e:	cd b7       	in	r28, 0x3d	; 61
    40a0:	de b7       	in	r29, 0x3e	; 62
    40a2:	29 97       	sbiw	r28, 0x09	; 9
    40a4:	0f b6       	in	r0, 0x3f	; 63
    40a6:	f8 94       	cli
    40a8:	de bf       	out	0x3e, r29	; 62
    40aa:	0f be       	out	0x3f, r0	; 63
    40ac:	cd bf       	out	0x3d, r28	; 61
    40ae:	5c 01       	movw	r10, r24
	char data_fetched[BUS_WIDTH+1]="";
    40b0:	19 82       	std	Y+1, r1	; 0x01
    40b2:	1a 82       	std	Y+2, r1	; 0x02
    40b4:	1b 82       	std	Y+3, r1	; 0x03
    40b6:	1c 82       	std	Y+4, r1	; 0x04
    40b8:	fe 01       	movw	r30, r28
    40ba:	35 96       	adiw	r30, 0x05	; 5
    40bc:	85 e0       	ldi	r24, 0x05	; 5
    40be:	df 01       	movw	r26, r30
    40c0:	1d 92       	st	X+, r1
    40c2:	8a 95       	dec	r24
    40c4:	e9 f7       	brne	.-6      	; 0x40c0 <_ZN4QEPU14fetch_registerEi+0x3a>
	int address_offset=address*BUS_WIDTH;
    40c6:	4b 01       	movw	r8, r22
    40c8:	88 0c       	add	r8, r8
    40ca:	99 1c       	adc	r9, r9
    40cc:	88 0c       	add	r8, r8
    40ce:	99 1c       	adc	r9, r9
    40d0:	88 0c       	add	r8, r8
    40d2:	99 1c       	adc	r9, r9
	for(int i=0;i<BUS_WIDTH;i++)
    40d4:	e1 2c       	mov	r14, r1
    40d6:	f1 2c       	mov	r15, r1
		sprintf(data_fetched,"%s%d",data_fetched,measure(read(address_offset+i,THE,false)));
    40d8:	8e 01       	movw	r16, r28
    40da:	0f 5f       	subi	r16, 0xFF	; 255
    40dc:	1f 4f       	sbci	r17, 0xFF	; 255
    40de:	0f 2e       	mov	r0, r31
    40e0:	fa e9       	ldi	r31, 0x9A	; 154
    40e2:	cf 2e       	mov	r12, r31
    40e4:	f0 e0       	ldi	r31, 0x00	; 0
    40e6:	df 2e       	mov	r13, r31
    40e8:	f0 2d       	mov	r31, r0
    40ea:	b7 01       	movw	r22, r14
    40ec:	68 0d       	add	r22, r8
    40ee:	79 1d       	adc	r23, r9
    40f0:	20 e0       	ldi	r18, 0x00	; 0
    40f2:	40 e0       	ldi	r20, 0x00	; 0
    40f4:	50 e0       	ldi	r21, 0x00	; 0
    40f6:	c5 01       	movw	r24, r10
    40f8:	0e 94 f1 1f 	call	0x3fe2	; 0x3fe2 <_ZN4QEPU4readEiib>
    40fc:	bc 01       	movw	r22, r24
    40fe:	c5 01       	movw	r24, r10
    4100:	0e 94 1a 20 	call	0x4034	; 0x4034 <_ZN4QEPU7measureEi>
    4104:	9f 93       	push	r25
    4106:	8f 93       	push	r24
    4108:	1f 93       	push	r17
    410a:	0f 93       	push	r16
    410c:	df 92       	push	r13
    410e:	cf 92       	push	r12
    4110:	1f 93       	push	r17
    4112:	0f 93       	push	r16
    4114:	0e 94 34 36 	call	0x6c68	; 0x6c68 <sprintf>
}

int QEPU::fetch_register(int address){
	char data_fetched[BUS_WIDTH+1]="";
	int address_offset=address*BUS_WIDTH;
	for(int i=0;i<BUS_WIDTH;i++)
    4118:	bf ef       	ldi	r27, 0xFF	; 255
    411a:	eb 1a       	sub	r14, r27
    411c:	fb 0a       	sbc	r15, r27
    411e:	0f b6       	in	r0, 0x3f	; 63
    4120:	f8 94       	cli
    4122:	de bf       	out	0x3e, r29	; 62
    4124:	0f be       	out	0x3f, r0	; 63
    4126:	cd bf       	out	0x3d, r28	; 61
    4128:	98 e0       	ldi	r25, 0x08	; 8
    412a:	e9 16       	cp	r14, r25
    412c:	f1 04       	cpc	r15, r1
    412e:	e9 f6       	brne	.-70     	; 0x40ea <_ZN4QEPU14fetch_registerEi+0x64>
		sprintf(data_fetched,"%s%d",data_fetched,measure(read(address_offset+i,THE,false)));
	strrev(data_fetched);
    4130:	ce 01       	movw	r24, r28
    4132:	01 96       	adiw	r24, 0x01	; 1
    4134:	0e 94 24 36 	call	0x6c48	; 0x6c48 <strrev>
	return strtol(data_fetched,NULL,2);
    4138:	42 e0       	ldi	r20, 0x02	; 2
    413a:	50 e0       	ldi	r21, 0x00	; 0
    413c:	60 e0       	ldi	r22, 0x00	; 0
    413e:	70 e0       	ldi	r23, 0x00	; 0
    4140:	ce 01       	movw	r24, r28
    4142:	01 96       	adiw	r24, 0x01	; 1
    4144:	0e 94 e8 34 	call	0x69d0	; 0x69d0 <strtol>
}
    4148:	cb 01       	movw	r24, r22
    414a:	29 96       	adiw	r28, 0x09	; 9
    414c:	0f b6       	in	r0, 0x3f	; 63
    414e:	f8 94       	cli
    4150:	de bf       	out	0x3e, r29	; 62
    4152:	0f be       	out	0x3f, r0	; 63
    4154:	cd bf       	out	0x3d, r28	; 61
    4156:	df 91       	pop	r29
    4158:	cf 91       	pop	r28
    415a:	1f 91       	pop	r17
    415c:	0f 91       	pop	r16
    415e:	ff 90       	pop	r15
    4160:	ef 90       	pop	r14
    4162:	df 90       	pop	r13
    4164:	cf 90       	pop	r12
    4166:	bf 90       	pop	r11
    4168:	af 90       	pop	r10
    416a:	9f 90       	pop	r9
    416c:	8f 90       	pop	r8
    416e:	08 95       	ret

00004170 <_ZN4QEPU12set_registerEii>:

void QEPU::set_register(int address,int data){
    4170:	cf 92       	push	r12
    4172:	df 92       	push	r13
    4174:	ef 92       	push	r14
    4176:	ff 92       	push	r15
    4178:	0f 93       	push	r16
    417a:	1f 93       	push	r17
    417c:	cf 93       	push	r28
    417e:	df 93       	push	r29
    4180:	6c 01       	movw	r12, r24
    4182:	8b 01       	movw	r16, r22
    4184:	ba 01       	movw	r22, r20
	char* data_str=utils.int2binstr(data,BUS_WIDTH);
    4186:	48 e0       	ldi	r20, 0x08	; 8
    4188:	50 e0       	ldi	r21, 0x00	; 0
    418a:	8b 52       	subi	r24, 0x2B	; 43
    418c:	9f 4f       	sbci	r25, 0xFF	; 255
    418e:	0e 94 56 2e 	call	0x5cac	; 0x5cac <_ZN5Utils10int2binstrEii>
    4192:	d8 2f       	mov	r29, r24
    4194:	c9 2f       	mov	r28, r25
	strrev(data_str);
    4196:	0e 94 24 36 	call	0x6c48	; 0x6c48 <strrev>
    419a:	ed 2e       	mov	r14, r29
    419c:	fc 2e       	mov	r15, r28
	int address_offset=address*BUS_WIDTH;
    419e:	00 0f       	add	r16, r16
    41a0:	11 1f       	adc	r17, r17
    41a2:	00 0f       	add	r16, r16
    41a4:	11 1f       	adc	r17, r17
    41a6:	00 0f       	add	r16, r16
    41a8:	11 1f       	adc	r17, r17
	
	for(int i=0;i<BUS_WIDTH;i++)
    41aa:	c0 e0       	ldi	r28, 0x00	; 0
    41ac:	d0 e0       	ldi	r29, 0x00	; 0
		if(data_str[i]=='1') write(address_offset+i,THE,180);
    41ae:	f7 01       	movw	r30, r14
    41b0:	81 91       	ld	r24, Z+
    41b2:	7f 01       	movw	r14, r30
    41b4:	81 33       	cpi	r24, 0x31	; 49
    41b6:	49 f4       	brne	.+18     	; 0x41ca <_ZN4QEPU12set_registerEii+0x5a>
    41b8:	24 eb       	ldi	r18, 0xB4	; 180
    41ba:	30 e0       	ldi	r19, 0x00	; 0
    41bc:	40 e0       	ldi	r20, 0x00	; 0
    41be:	50 e0       	ldi	r21, 0x00	; 0
    41c0:	b8 01       	movw	r22, r16
    41c2:	c6 01       	movw	r24, r12
    41c4:	0e 94 c4 1f 	call	0x3f88	; 0x3f88 <_ZN4QEPU5writeEiii>
    41c8:	08 c0       	rjmp	.+16     	; 0x41da <_ZN4QEPU12set_registerEii+0x6a>
		else write(address_offset+i,THE,0);
    41ca:	20 e0       	ldi	r18, 0x00	; 0
    41cc:	30 e0       	ldi	r19, 0x00	; 0
    41ce:	40 e0       	ldi	r20, 0x00	; 0
    41d0:	50 e0       	ldi	r21, 0x00	; 0
    41d2:	b8 01       	movw	r22, r16
    41d4:	c6 01       	movw	r24, r12
    41d6:	0e 94 c4 1f 	call	0x3f88	; 0x3f88 <_ZN4QEPU5writeEiii>
void QEPU::set_register(int address,int data){
	char* data_str=utils.int2binstr(data,BUS_WIDTH);
	strrev(data_str);
	int address_offset=address*BUS_WIDTH;
	
	for(int i=0;i<BUS_WIDTH;i++)
    41da:	21 96       	adiw	r28, 0x01	; 1
    41dc:	0f 5f       	subi	r16, 0xFF	; 255
    41de:	1f 4f       	sbci	r17, 0xFF	; 255
    41e0:	c8 30       	cpi	r28, 0x08	; 8
    41e2:	d1 05       	cpc	r29, r1
    41e4:	21 f7       	brne	.-56     	; 0x41ae <_ZN4QEPU12set_registerEii+0x3e>
		if(data_str[i]=='1') write(address_offset+i,THE,180);
		else write(address_offset+i,THE,0);
}
    41e6:	df 91       	pop	r29
    41e8:	cf 91       	pop	r28
    41ea:	1f 91       	pop	r17
    41ec:	0f 91       	pop	r16
    41ee:	ff 90       	pop	r15
    41f0:	ef 90       	pop	r14
    41f2:	df 90       	pop	r13
    41f4:	cf 90       	pop	r12
    41f6:	08 95       	ret

000041f8 <_ZN4QEPU7dumpmemEi>:

void QEPU::dumpmem(int length){
    41f8:	4f 92       	push	r4
    41fa:	5f 92       	push	r5
    41fc:	6f 92       	push	r6
    41fe:	7f 92       	push	r7
    4200:	8f 92       	push	r8
    4202:	9f 92       	push	r9
    4204:	af 92       	push	r10
    4206:	bf 92       	push	r11
    4208:	cf 92       	push	r12
    420a:	df 92       	push	r13
    420c:	ef 92       	push	r14
    420e:	ff 92       	push	r15
    4210:	0f 93       	push	r16
    4212:	1f 93       	push	r17
    4214:	cf 93       	push	r28
    4216:	df 93       	push	r29
    4218:	6c 01       	movw	r12, r24
    421a:	5b 01       	movw	r10, r22
	serial.writestrln("");
    421c:	8c 01       	movw	r16, r24
    421e:	0f 5f       	subi	r16, 0xFF	; 255
    4220:	1f 4f       	sbci	r17, 0xFF	; 255
    4222:	65 ec       	ldi	r22, 0xC5	; 197
    4224:	70 e0       	ldi	r23, 0x00	; 0
    4226:	c8 01       	movw	r24, r16
    4228:	0e 94 4a 2e 	call	0x5c94	; 0x5c94 <_ZN6Serial10writestrlnEPc>
	serial.writestrln("** QUANTUM MEMORY DUMP **");
    422c:	6f e9       	ldi	r22, 0x9F	; 159
    422e:	70 e0       	ldi	r23, 0x00	; 0
    4230:	c8 01       	movw	r24, r16
    4232:	0e 94 4a 2e 	call	0x5c94	; 0x5c94 <_ZN6Serial10writestrlnEPc>
	for(int i=0;i<length;i++){
    4236:	1a 14       	cp	r1, r10
    4238:	1b 04       	cpc	r1, r11
    423a:	0c f0       	brlt	.+2      	; 0x423e <_ZN4QEPU7dumpmemEi+0x46>
    423c:	6b c0       	rjmp	.+214    	; 0x4314 <_ZN4QEPU7dumpmemEi+0x11c>
    423e:	c0 e0       	ldi	r28, 0x00	; 0
    4240:	d0 e0       	ldi	r29, 0x00	; 0
		char * thedim=(char*)malloc(sizeof(char)*3); sprintf(thedim,"%d",read(i,THE,false));
    4242:	0f 2e       	mov	r0, r31
    4244:	f5 e2       	ldi	r31, 0x25	; 37
    4246:	ef 2e       	mov	r14, r31
    4248:	f1 e0       	ldi	r31, 0x01	; 1
    424a:	ff 2e       	mov	r15, r31
    424c:	f0 2d       	mov	r31, r0
    424e:	83 e0       	ldi	r24, 0x03	; 3
    4250:	90 e0       	ldi	r25, 0x00	; 0
    4252:	0e 94 63 33 	call	0x66c6	; 0x66c6 <malloc>
    4256:	68 2e       	mov	r6, r24
    4258:	79 2e       	mov	r7, r25
    425a:	20 e0       	ldi	r18, 0x00	; 0
    425c:	40 e0       	ldi	r20, 0x00	; 0
    425e:	50 e0       	ldi	r21, 0x00	; 0
    4260:	be 01       	movw	r22, r28
    4262:	c6 01       	movw	r24, r12
    4264:	0e 94 f1 1f 	call	0x3fe2	; 0x3fe2 <_ZN4QEPU4readEiib>
    4268:	9f 93       	push	r25
    426a:	8f 93       	push	r24
    426c:	ff 92       	push	r15
    426e:	ef 92       	push	r14
    4270:	7f 92       	push	r7
    4272:	6f 92       	push	r6
    4274:	0e 94 34 36 	call	0x6c68	; 0x6c68 <sprintf>
		char * phidim=(char*)malloc(sizeof(char)*3); sprintf(phidim,"%d",read(i,PHI,false));
    4278:	83 e0       	ldi	r24, 0x03	; 3
    427a:	90 e0       	ldi	r25, 0x00	; 0
    427c:	0e 94 63 33 	call	0x66c6	; 0x66c6 <malloc>
    4280:	88 2e       	mov	r8, r24
    4282:	99 2e       	mov	r9, r25
    4284:	20 e0       	ldi	r18, 0x00	; 0
    4286:	41 e0       	ldi	r20, 0x01	; 1
    4288:	50 e0       	ldi	r21, 0x00	; 0
    428a:	be 01       	movw	r22, r28
    428c:	c6 01       	movw	r24, r12
    428e:	0e 94 f1 1f 	call	0x3fe2	; 0x3fe2 <_ZN4QEPU4readEiib>
    4292:	9f 93       	push	r25
    4294:	8f 93       	push	r24
    4296:	ff 92       	push	r15
    4298:	ef 92       	push	r14
    429a:	9f 92       	push	r9
    429c:	8f 92       	push	r8
    429e:	0e 94 34 36 	call	0x6c68	; 0x6c68 <sprintf>
		char * qindex=(char*)malloc(sizeof(char));	 sprintf(qindex,"%d",i);
    42a2:	81 e0       	ldi	r24, 0x01	; 1
    42a4:	90 e0       	ldi	r25, 0x00	; 0
    42a6:	0e 94 63 33 	call	0x66c6	; 0x66c6 <malloc>
    42aa:	48 2e       	mov	r4, r24
    42ac:	59 2e       	mov	r5, r25
    42ae:	df 93       	push	r29
    42b0:	cf 93       	push	r28
    42b2:	ff 92       	push	r15
    42b4:	ef 92       	push	r14
    42b6:	5f 92       	push	r5
    42b8:	4f 92       	push	r4
    42ba:	0e 94 34 36 	call	0x6c68	; 0x6c68 <sprintf>
		serial.writestr("Q"); serial.writestr(qindex); serial.writestr(": Theta - ");
    42be:	69 eb       	ldi	r22, 0xB9	; 185
    42c0:	70 e0       	ldi	r23, 0x00	; 0
    42c2:	c8 01       	movw	r24, r16
    42c4:	0e 94 35 2e 	call	0x5c6a	; 0x5c6a <_ZN6Serial8writestrEPc>
    42c8:	64 2d       	mov	r22, r4
    42ca:	75 2d       	mov	r23, r5
    42cc:	c8 01       	movw	r24, r16
    42ce:	0e 94 35 2e 	call	0x5c6a	; 0x5c6a <_ZN6Serial8writestrEPc>
    42d2:	6b eb       	ldi	r22, 0xBB	; 187
    42d4:	70 e0       	ldi	r23, 0x00	; 0
    42d6:	c8 01       	movw	r24, r16
    42d8:	0e 94 35 2e 	call	0x5c6a	; 0x5c6a <_ZN6Serial8writestrEPc>
		serial.writestr(thedim);
    42dc:	66 2d       	mov	r22, r6
    42de:	77 2d       	mov	r23, r7
    42e0:	c8 01       	movw	r24, r16
    42e2:	0e 94 35 2e 	call	0x5c6a	; 0x5c6a <_ZN6Serial8writestrEPc>
		serial.writestr(" , Phi - ");
    42e6:	66 ec       	ldi	r22, 0xC6	; 198
    42e8:	70 e0       	ldi	r23, 0x00	; 0
    42ea:	c8 01       	movw	r24, r16
    42ec:	0e 94 35 2e 	call	0x5c6a	; 0x5c6a <_ZN6Serial8writestrEPc>
		serial.writestrln(phidim);
    42f0:	68 2d       	mov	r22, r8
    42f2:	79 2d       	mov	r23, r9
    42f4:	c8 01       	movw	r24, r16
    42f6:	0e 94 4a 2e 	call	0x5c94	; 0x5c94 <_ZN6Serial10writestrlnEPc>
}

void QEPU::dumpmem(int length){
	serial.writestrln("");
	serial.writestrln("** QUANTUM MEMORY DUMP **");
	for(int i=0;i<length;i++){
    42fa:	21 96       	adiw	r28, 0x01	; 1
    42fc:	8d b7       	in	r24, 0x3d	; 61
    42fe:	9e b7       	in	r25, 0x3e	; 62
    4300:	42 96       	adiw	r24, 0x12	; 18
    4302:	0f b6       	in	r0, 0x3f	; 63
    4304:	f8 94       	cli
    4306:	9e bf       	out	0x3e, r25	; 62
    4308:	0f be       	out	0x3f, r0	; 63
    430a:	8d bf       	out	0x3d, r24	; 61
    430c:	ca 15       	cp	r28, r10
    430e:	db 05       	cpc	r29, r11
    4310:	09 f0       	breq	.+2      	; 0x4314 <_ZN4QEPU7dumpmemEi+0x11c>
    4312:	9d cf       	rjmp	.-198    	; 0x424e <_ZN4QEPU7dumpmemEi+0x56>
		serial.writestr("Q"); serial.writestr(qindex); serial.writestr(": Theta - ");
		serial.writestr(thedim);
		serial.writestr(" , Phi - ");
		serial.writestrln(phidim);
	}
}
    4314:	df 91       	pop	r29
    4316:	cf 91       	pop	r28
    4318:	1f 91       	pop	r17
    431a:	0f 91       	pop	r16
    431c:	ff 90       	pop	r15
    431e:	ef 90       	pop	r14
    4320:	df 90       	pop	r13
    4322:	cf 90       	pop	r12
    4324:	bf 90       	pop	r11
    4326:	af 90       	pop	r10
    4328:	9f 90       	pop	r9
    432a:	8f 90       	pop	r8
    432c:	7f 90       	pop	r7
    432e:	6f 90       	pop	r6
    4330:	5f 90       	pop	r5
    4332:	4f 90       	pop	r4
    4334:	08 95       	ret

00004336 <_ZN4QEPU7executeEilll>:
	sram.dumpmem(5);
	serial.writestr("The execution of the program has finished");
	#pragma endregion
}

void QEPU::execute(int func,int32_t op1,int32_t op2,int32_t op3){
    4336:	2f 92       	push	r2
    4338:	3f 92       	push	r3
    433a:	4f 92       	push	r4
    433c:	5f 92       	push	r5
    433e:	6f 92       	push	r6
    4340:	7f 92       	push	r7
    4342:	8f 92       	push	r8
    4344:	9f 92       	push	r9
    4346:	af 92       	push	r10
    4348:	bf 92       	push	r11
    434a:	cf 92       	push	r12
    434c:	df 92       	push	r13
    434e:	ef 92       	push	r14
    4350:	ff 92       	push	r15
    4352:	0f 93       	push	r16
    4354:	1f 93       	push	r17
    4356:	cf 93       	push	r28
    4358:	df 93       	push	r29
    435a:	cd b7       	in	r28, 0x3d	; 61
    435c:	de b7       	in	r29, 0x3e	; 62
    435e:	2a 97       	sbiw	r28, 0x0a	; 10
    4360:	0f b6       	in	r0, 0x3f	; 63
    4362:	f8 94       	cli
    4364:	de bf       	out	0x3e, r29	; 62
    4366:	0f be       	out	0x3f, r0	; 63
    4368:	cd bf       	out	0x3d, r28	; 61
    436a:	9a 87       	std	Y+10, r25	; 0x0a
    436c:	89 87       	std	Y+9, r24	; 0x09
    436e:	6b 01       	movw	r12, r22
    4370:	29 01       	movw	r4, r18
    4372:	3a 01       	movw	r6, r20
    4374:	e9 82       	std	Y+1, r14	; 0x01
    4376:	fa 82       	std	Y+2, r15	; 0x02
    4378:	0b 83       	std	Y+3, r16	; 0x03
    437a:	1c 83       	std	Y+4, r17	; 0x04
	int * newthephi=(int*)malloc(sizeof(int)*MAX_NEWTHEPHI);
    437c:	8c e0       	ldi	r24, 0x0C	; 12
    437e:	90 e0       	ldi	r25, 0x00	; 0
    4380:	0e 94 63 33 	call	0x66c6	; 0x66c6 <malloc>
    4384:	8c 01       	movw	r16, r24
	//TODO: MAKE A SWITCH ON THE FUNCTION
	switch(func){
    4386:	f6 01       	movw	r30, r12
    4388:	31 97       	sbiw	r30, 0x01	; 1
    438a:	ed 33       	cpi	r30, 0x3D	; 61
    438c:	f1 05       	cpc	r31, r1
    438e:	10 f0       	brcs	.+4      	; 0x4394 <_ZN4QEPU7executeEilll+0x5e>
    4390:	0c 94 00 2b 	jmp	0x5600	; 0x5600 <_ZN4QEPU7executeEilll+0x12ca>
    4394:	e6 5d       	subi	r30, 0xD6	; 214
    4396:	ff 4f       	sbci	r31, 0xFF	; 255
    4398:	0c 94 49 33 	jmp	0x6692	; 0x6692 <__tablejump2__>
		//DATA MOVEMENT AND PROGRAM CONTROL/FLUX/IO FUNCTIONS:
		case 0x01: /*MOQ (move qubit) */
			write(op1,THE,read(op2,THE,false));
    439c:	20 e0       	ldi	r18, 0x00	; 0
    439e:	40 e0       	ldi	r20, 0x00	; 0
    43a0:	50 e0       	ldi	r21, 0x00	; 0
    43a2:	69 81       	ldd	r22, Y+1	; 0x01
    43a4:	7a 81       	ldd	r23, Y+2	; 0x02
    43a6:	89 85       	ldd	r24, Y+9	; 0x09
    43a8:	9a 85       	ldd	r25, Y+10	; 0x0a
    43aa:	0e 94 f1 1f 	call	0x3fe2	; 0x3fe2 <_ZN4QEPU4readEiib>
    43ae:	9c 01       	movw	r18, r24
    43b0:	40 e0       	ldi	r20, 0x00	; 0
    43b2:	50 e0       	ldi	r21, 0x00	; 0
    43b4:	b2 01       	movw	r22, r4
    43b6:	89 85       	ldd	r24, Y+9	; 0x09
    43b8:	9a 85       	ldd	r25, Y+10	; 0x0a
    43ba:	0e 94 c4 1f 	call	0x3f88	; 0x3f88 <_ZN4QEPU5writeEiii>
			write(op1,PHI,read(op2,PHI,false));
    43be:	20 e0       	ldi	r18, 0x00	; 0
    43c0:	41 e0       	ldi	r20, 0x01	; 1
    43c2:	50 e0       	ldi	r21, 0x00	; 0
    43c4:	69 81       	ldd	r22, Y+1	; 0x01
    43c6:	7a 81       	ldd	r23, Y+2	; 0x02
    43c8:	89 85       	ldd	r24, Y+9	; 0x09
    43ca:	9a 85       	ldd	r25, Y+10	; 0x0a
    43cc:	0e 94 f1 1f 	call	0x3fe2	; 0x3fe2 <_ZN4QEPU4readEiib>
    43d0:	9c 01       	movw	r18, r24
    43d2:	41 e0       	ldi	r20, 0x01	; 1
    43d4:	50 e0       	ldi	r21, 0x00	; 0
    43d6:	b2 01       	movw	r22, r4
    43d8:	89 85       	ldd	r24, Y+9	; 0x09
    43da:	9a 85       	ldd	r25, Y+10	; 0x0a
    43dc:	0e 94 c4 1f 	call	0x3f88	; 0x3f88 <_ZN4QEPU5writeEiii>
			break;
    43e0:	0c 94 00 2b 	jmp	0x5600	; 0x5600 <_ZN4QEPU7executeEilll+0x12ca>
		case 0x02: /*MOR (move register)*/
			set_register(op1,fetch_register(op1)); // TOUCH ITSELF 1ST
    43e4:	b2 01       	movw	r22, r4
    43e6:	89 85       	ldd	r24, Y+9	; 0x09
    43e8:	9a 85       	ldd	r25, Y+10	; 0x0a
    43ea:	0e 94 43 20 	call	0x4086	; 0x4086 <_ZN4QEPU14fetch_registerEi>
    43ee:	ac 01       	movw	r20, r24
    43f0:	b2 01       	movw	r22, r4
    43f2:	89 85       	ldd	r24, Y+9	; 0x09
    43f4:	9a 85       	ldd	r25, Y+10	; 0x0a
    43f6:	0e 94 b8 20 	call	0x4170	; 0x4170 <_ZN4QEPU12set_registerEii>
			set_register(op1,fetch_register(op2)); // MOVE TO THE NEW REGISTER (IF IT NEEDS TO BE UNTOUCHED IT NEEDS TO USE MATRICES INSTEAD)
    43fa:	69 81       	ldd	r22, Y+1	; 0x01
    43fc:	7a 81       	ldd	r23, Y+2	; 0x02
    43fe:	89 85       	ldd	r24, Y+9	; 0x09
    4400:	9a 85       	ldd	r25, Y+10	; 0x0a
    4402:	0e 94 43 20 	call	0x4086	; 0x4086 <_ZN4QEPU14fetch_registerEi>
    4406:	ac 01       	movw	r20, r24
    4408:	b2 01       	movw	r22, r4
    440a:	89 85       	ldd	r24, Y+9	; 0x09
    440c:	9a 85       	ldd	r25, Y+10	; 0x0a
    440e:	0e 94 b8 20 	call	0x4170	; 0x4170 <_ZN4QEPU12set_registerEii>
			break;
    4412:	0c 94 00 2b 	jmp	0x5600	; 0x5600 <_ZN4QEPU7executeEilll+0x12ca>
		case 0x03: /*MOM (move memory)*/
			sram.write(op1,sram.read(op2));
    4416:	e9 84       	ldd	r14, Y+9	; 0x09
    4418:	fa 84       	ldd	r15, Y+10	; 0x0a
    441a:	83 e0       	ldi	r24, 0x03	; 3
    441c:	e8 0e       	add	r14, r24
    441e:	f1 1c       	adc	r15, r1
    4420:	69 81       	ldd	r22, Y+1	; 0x01
    4422:	7a 81       	ldd	r23, Y+2	; 0x02
    4424:	c7 01       	movw	r24, r14
    4426:	0e 94 b8 2c 	call	0x5970	; 0x5970 <_ZN4SRAM4readEi>
    442a:	48 2f       	mov	r20, r24
    442c:	55 27       	eor	r21, r21
    442e:	47 fd       	sbrc	r20, 7
    4430:	50 95       	com	r21
    4432:	b2 01       	movw	r22, r4
    4434:	c7 01       	movw	r24, r14
    4436:	0e 94 23 2d 	call	0x5a46	; 0x5a46 <_ZN4SRAM5writeEii>
			break;
    443a:	0c 94 00 2b 	jmp	0x5600	; 0x5600 <_ZN4QEPU7executeEilll+0x12ca>
		case 0x04: /*STR (store)*/
			sram.write(op1,fetch_register(op2));
    443e:	69 81       	ldd	r22, Y+1	; 0x01
    4440:	7a 81       	ldd	r23, Y+2	; 0x02
    4442:	89 85       	ldd	r24, Y+9	; 0x09
    4444:	9a 85       	ldd	r25, Y+10	; 0x0a
    4446:	0e 94 43 20 	call	0x4086	; 0x4086 <_ZN4QEPU14fetch_registerEi>
    444a:	ac 01       	movw	r20, r24
    444c:	b2 01       	movw	r22, r4
    444e:	89 85       	ldd	r24, Y+9	; 0x09
    4450:	9a 85       	ldd	r25, Y+10	; 0x0a
    4452:	03 96       	adiw	r24, 0x03	; 3
    4454:	0e 94 23 2d 	call	0x5a46	; 0x5a46 <_ZN4SRAM5writeEii>
			break;
    4458:	0c 94 00 2b 	jmp	0x5600	; 0x5600 <_ZN4QEPU7executeEilll+0x12ca>
		case 0x05: /*LOD (load)*/
			set_register(op1,sram.read(op2));
    445c:	69 81       	ldd	r22, Y+1	; 0x01
    445e:	7a 81       	ldd	r23, Y+2	; 0x02
    4460:	89 85       	ldd	r24, Y+9	; 0x09
    4462:	9a 85       	ldd	r25, Y+10	; 0x0a
    4464:	03 96       	adiw	r24, 0x03	; 3
    4466:	0e 94 b8 2c 	call	0x5970	; 0x5970 <_ZN4SRAM4readEi>
    446a:	48 2f       	mov	r20, r24
    446c:	55 27       	eor	r21, r21
    446e:	47 fd       	sbrc	r20, 7
    4470:	50 95       	com	r21
    4472:	b2 01       	movw	r22, r4
    4474:	89 85       	ldd	r24, Y+9	; 0x09
    4476:	9a 85       	ldd	r25, Y+10	; 0x0a
    4478:	0e 94 b8 20 	call	0x4170	; 0x4170 <_ZN4QEPU12set_registerEii>
			break;
    447c:	0c 94 00 2b 	jmp	0x5600	; 0x5600 <_ZN4QEPU7executeEilll+0x12ca>
		case 0x06: /*CRW (Constant Ram Write)*/
			sram.write(op1,op2);
    4480:	49 81       	ldd	r20, Y+1	; 0x01
    4482:	5a 81       	ldd	r21, Y+2	; 0x02
    4484:	b2 01       	movw	r22, r4
    4486:	89 85       	ldd	r24, Y+9	; 0x09
    4488:	9a 85       	ldd	r25, Y+10	; 0x0a
    448a:	03 96       	adiw	r24, 0x03	; 3
    448c:	0e 94 23 2d 	call	0x5a46	; 0x5a46 <_ZN4SRAM5writeEii>
			break;
    4490:	0c 94 00 2b 	jmp	0x5600	; 0x5600 <_ZN4QEPU7executeEilll+0x12ca>
		case 0x07: /*CQW* (Constant Qubit Write)*/
			set_register(op1,op2);
    4494:	49 81       	ldd	r20, Y+1	; 0x01
    4496:	5a 81       	ldd	r21, Y+2	; 0x02
    4498:	b2 01       	movw	r22, r4
    449a:	89 85       	ldd	r24, Y+9	; 0x09
    449c:	9a 85       	ldd	r25, Y+10	; 0x0a
    449e:	0e 94 b8 20 	call	0x4170	; 0x4170 <_ZN4QEPU12set_registerEii>
			break;
    44a2:	0c 94 00 2b 	jmp	0x5600	; 0x5600 <_ZN4QEPU7executeEilll+0x12ca>
		case 0x08: /*POP (pop)*/
			set_register(op1,sram.pop());
    44a6:	89 85       	ldd	r24, Y+9	; 0x09
    44a8:	9a 85       	ldd	r25, Y+10	; 0x0a
    44aa:	03 96       	adiw	r24, 0x03	; 3
    44ac:	0e 94 4b 2d 	call	0x5a96	; 0x5a96 <_ZN4SRAM3popEv>
    44b0:	ac 01       	movw	r20, r24
    44b2:	b2 01       	movw	r22, r4
    44b4:	89 85       	ldd	r24, Y+9	; 0x09
    44b6:	9a 85       	ldd	r25, Y+10	; 0x0a
    44b8:	0e 94 b8 20 	call	0x4170	; 0x4170 <_ZN4QEPU12set_registerEii>
			break;
    44bc:	0c 94 00 2b 	jmp	0x5600	; 0x5600 <_ZN4QEPU7executeEilll+0x12ca>
		case 0x09: /*PSH (push)*/
			sram.push(fetch_register(op1));
    44c0:	b2 01       	movw	r22, r4
    44c2:	89 85       	ldd	r24, Y+9	; 0x09
    44c4:	9a 85       	ldd	r25, Y+10	; 0x0a
    44c6:	0e 94 43 20 	call	0x4086	; 0x4086 <_ZN4QEPU14fetch_registerEi>
    44ca:	bc 01       	movw	r22, r24
    44cc:	89 85       	ldd	r24, Y+9	; 0x09
    44ce:	9a 85       	ldd	r25, Y+10	; 0x0a
    44d0:	03 96       	adiw	r24, 0x03	; 3
    44d2:	0e 94 69 2d 	call	0x5ad2	; 0x5ad2 <_ZN4SRAM4pushEi>
			break;
    44d6:	0c 94 00 2b 	jmp	0x5600	; 0x5600 <_ZN4QEPU7executeEilll+0x12ca>
		case 0x0A: /*CMT (constantmovtheta)*/
			write(op1,THE,op2);
    44da:	29 81       	ldd	r18, Y+1	; 0x01
    44dc:	3a 81       	ldd	r19, Y+2	; 0x02
    44de:	40 e0       	ldi	r20, 0x00	; 0
    44e0:	50 e0       	ldi	r21, 0x00	; 0
    44e2:	b2 01       	movw	r22, r4
    44e4:	89 85       	ldd	r24, Y+9	; 0x09
    44e6:	9a 85       	ldd	r25, Y+10	; 0x0a
    44e8:	0e 94 c4 1f 	call	0x3f88	; 0x3f88 <_ZN4QEPU5writeEiii>
			break;
    44ec:	0c 94 00 2b 	jmp	0x5600	; 0x5600 <_ZN4QEPU7executeEilll+0x12ca>
		case 0x0B: /*CMP (constantmovphi)*/
			write(op1,PHI,op2);
    44f0:	29 81       	ldd	r18, Y+1	; 0x01
    44f2:	3a 81       	ldd	r19, Y+2	; 0x02
    44f4:	41 e0       	ldi	r20, 0x01	; 1
    44f6:	50 e0       	ldi	r21, 0x00	; 0
    44f8:	b2 01       	movw	r22, r4
    44fa:	89 85       	ldd	r24, Y+9	; 0x09
    44fc:	9a 85       	ldd	r25, Y+10	; 0x0a
    44fe:	0e 94 c4 1f 	call	0x3f88	; 0x3f88 <_ZN4QEPU5writeEiii>
			break;
    4502:	0c 94 00 2b 	jmp	0x5600	; 0x5600 <_ZN4QEPU7executeEilll+0x12ca>
		case 0x0C: /*CME (compare)*/
			flags.compare(fetch_register(op1),fetch_register(op2));
    4506:	69 81       	ldd	r22, Y+1	; 0x01
    4508:	7a 81       	ldd	r23, Y+2	; 0x02
    450a:	89 85       	ldd	r24, Y+9	; 0x09
    450c:	9a 85       	ldd	r25, Y+10	; 0x0a
    450e:	0e 94 43 20 	call	0x4086	; 0x4086 <_ZN4QEPU14fetch_registerEi>
    4512:	7c 01       	movw	r14, r24
    4514:	b2 01       	movw	r22, r4
    4516:	89 85       	ldd	r24, Y+9	; 0x09
    4518:	9a 85       	ldd	r25, Y+10	; 0x0a
    451a:	0e 94 43 20 	call	0x4086	; 0x4086 <_ZN4QEPU14fetch_registerEi>
    451e:	b7 01       	movw	r22, r14
    4520:	0e 94 f2 02 	call	0x5e4	; 0x5e4 <_ZN4QEPU4Flag7compareEii>
			break;
    4524:	0c 94 00 2b 	jmp	0x5600	; 0x5600 <_ZN4QEPU7executeEilll+0x12ca>
		case 0x0D: /*SEF (SET FLAG)*/
			flags.flaglist[op1]=op2;
    4528:	f2 01       	movw	r30, r4
    452a:	e8 5d       	subi	r30, 0xD8	; 216
    452c:	fe 4f       	sbci	r31, 0xFE	; 254
    452e:	99 81       	ldd	r25, Y+1	; 0x01
    4530:	90 83       	st	Z, r25
			break;
    4532:	0c 94 00 2b 	jmp	0x5600	; 0x5600 <_ZN4QEPU7executeEilll+0x12ca>
		case 0x0E: /*GEF (GET FLAG)*/
			sram.write(op1,flags.flaglist[op2]);
    4536:	e9 81       	ldd	r30, Y+1	; 0x01
    4538:	fa 81       	ldd	r31, Y+2	; 0x02
    453a:	e8 5d       	subi	r30, 0xD8	; 216
    453c:	fe 4f       	sbci	r31, 0xFE	; 254
    453e:	40 81       	ld	r20, Z
    4540:	55 27       	eor	r21, r21
    4542:	47 fd       	sbrc	r20, 7
    4544:	50 95       	com	r21
    4546:	b2 01       	movw	r22, r4
    4548:	89 85       	ldd	r24, Y+9	; 0x09
    454a:	9a 85       	ldd	r25, Y+10	; 0x0a
    454c:	03 96       	adiw	r24, 0x03	; 3
    454e:	0e 94 23 2d 	call	0x5a46	; 0x5a46 <_ZN4SRAM5writeEii>
			break;
    4552:	0c 94 00 2b 	jmp	0x5600	; 0x5600 <_ZN4QEPU7executeEilll+0x12ca>
		/*IMPLEMENT CONDICIONAL/INCONDICIONAL BRANCHES HERE*/
		case 0x0F: /*BES (branch enable stack)*/
			flags.flaglist[ALLOW_BRANCH_STACK]=op1;
    4556:	40 92 30 01 	sts	0x0130, r4
			break;
    455a:	0c 94 00 2b 	jmp	0x5600	; 0x5600 <_ZN4QEPU7executeEilll+0x12ca>
		case 0x10: /*BLW (branch if lower (with jumpstack))*/
			if(flags.flaglist[CND_LWER]){
    455e:	80 91 28 01 	lds	r24, 0x0128
    4562:	88 23       	and	r24, r24
    4564:	11 f4       	brne	.+4      	; 0x456a <_ZN4QEPU7executeEilll+0x234>
    4566:	0c 94 00 2b 	jmp	0x5600	; 0x5600 <_ZN4QEPU7executeEilll+0x12ca>
				jumpstack.push(program_counter+1);
    456a:	e9 84       	ldd	r14, Y+9	; 0x09
    456c:	fa 84       	ldd	r15, Y+10	; 0x0a
    456e:	a6 ed       	ldi	r26, 0xD6	; 214
    4570:	ea 0e       	add	r14, r26
    4572:	f1 1c       	adc	r15, r1
    4574:	f7 01       	movw	r30, r14
    4576:	60 81       	ld	r22, Z
    4578:	71 81       	ldd	r23, Z+1	; 0x01
    457a:	6f 5f       	subi	r22, 0xFF	; 255
    457c:	7f 4f       	sbci	r23, 0xFF	; 255
    457e:	89 85       	ldd	r24, Y+9	; 0x09
    4580:	9a 85       	ldd	r25, Y+10	; 0x0a
    4582:	0b 96       	adiw	r24, 0x0b	; 11
    4584:	0e 94 7d 1e 	call	0x3cfa	; 0x3cfa <_ZN4QEPU9Jumpstack4pushEi>
		serial.writestrln(phidim);
	}
}

void QEPU::set_programcounter(int newaddress){
	program_counter=newaddress-1;
    4588:	f1 e0       	ldi	r31, 0x01	; 1
    458a:	4f 1a       	sub	r4, r31
    458c:	51 08       	sbc	r5, r1
    458e:	d7 01       	movw	r26, r14
    4590:	4d 92       	st	X+, r4
    4592:	5c 92       	st	X, r5
    4594:	0c 94 00 2b 	jmp	0x5600	; 0x5600 <_ZN4QEPU7executeEilll+0x12ca>
				jumpstack.push(program_counter+1);
				set_programcounter(op1);
			}
			break;
		case 0x11: /*BLE (branch if lower or equal (with jumpstack))*/
			if(flags.flaglist[CND_LWER_EQUAL]){
    4598:	80 91 29 01 	lds	r24, 0x0129
    459c:	88 23       	and	r24, r24
    459e:	11 f4       	brne	.+4      	; 0x45a4 <_ZN4QEPU7executeEilll+0x26e>
    45a0:	0c 94 00 2b 	jmp	0x5600	; 0x5600 <_ZN4QEPU7executeEilll+0x12ca>
				if(flags.flaglist[ALLOW_BRANCH_STACK])
    45a4:	80 91 30 01 	lds	r24, 0x0130
    45a8:	88 23       	and	r24, r24
    45aa:	69 f0       	breq	.+26     	; 0x45c6 <_ZN4QEPU7executeEilll+0x290>
					jumpstack.push(program_counter+1);
    45ac:	e9 85       	ldd	r30, Y+9	; 0x09
    45ae:	fa 85       	ldd	r31, Y+10	; 0x0a
    45b0:	ea 52       	subi	r30, 0x2A	; 42
    45b2:	ff 4f       	sbci	r31, 0xFF	; 255
    45b4:	60 81       	ld	r22, Z
    45b6:	71 81       	ldd	r23, Z+1	; 0x01
    45b8:	6f 5f       	subi	r22, 0xFF	; 255
    45ba:	7f 4f       	sbci	r23, 0xFF	; 255
    45bc:	89 85       	ldd	r24, Y+9	; 0x09
    45be:	9a 85       	ldd	r25, Y+10	; 0x0a
    45c0:	0b 96       	adiw	r24, 0x0b	; 11
    45c2:	0e 94 7d 1e 	call	0x3cfa	; 0x3cfa <_ZN4QEPU9Jumpstack4pushEi>
		serial.writestrln(phidim);
	}
}

void QEPU::set_programcounter(int newaddress){
	program_counter=newaddress-1;
    45c6:	e9 85       	ldd	r30, Y+9	; 0x09
    45c8:	fa 85       	ldd	r31, Y+10	; 0x0a
    45ca:	ea 52       	subi	r30, 0x2A	; 42
    45cc:	ff 4f       	sbci	r31, 0xFF	; 255
    45ce:	b1 e0       	ldi	r27, 0x01	; 1
    45d0:	4b 1a       	sub	r4, r27
    45d2:	51 08       	sbc	r5, r1
    45d4:	51 82       	std	Z+1, r5	; 0x01
    45d6:	40 82       	st	Z, r4
    45d8:	0c 94 00 2b 	jmp	0x5600	; 0x5600 <_ZN4QEPU7executeEilll+0x12ca>
					jumpstack.push(program_counter+1);
				set_programcounter(op1);
			}
			break;
		case 0x12: /*BEQ (branch if equal) (with jumpstack)*/
			if(flags.flaglist[CND_EQUAL]){
    45dc:	80 91 2a 01 	lds	r24, 0x012A
    45e0:	88 23       	and	r24, r24
    45e2:	11 f4       	brne	.+4      	; 0x45e8 <_ZN4QEPU7executeEilll+0x2b2>
    45e4:	0c 94 00 2b 	jmp	0x5600	; 0x5600 <_ZN4QEPU7executeEilll+0x12ca>
				if(flags.flaglist[ALLOW_BRANCH_STACK])
    45e8:	80 91 30 01 	lds	r24, 0x0130
    45ec:	88 23       	and	r24, r24
    45ee:	69 f0       	breq	.+26     	; 0x460a <_ZN4QEPU7executeEilll+0x2d4>
					jumpstack.push(program_counter+1);
    45f0:	e9 85       	ldd	r30, Y+9	; 0x09
    45f2:	fa 85       	ldd	r31, Y+10	; 0x0a
    45f4:	ea 52       	subi	r30, 0x2A	; 42
    45f6:	ff 4f       	sbci	r31, 0xFF	; 255
    45f8:	60 81       	ld	r22, Z
    45fa:	71 81       	ldd	r23, Z+1	; 0x01
    45fc:	6f 5f       	subi	r22, 0xFF	; 255
    45fe:	7f 4f       	sbci	r23, 0xFF	; 255
    4600:	89 85       	ldd	r24, Y+9	; 0x09
    4602:	9a 85       	ldd	r25, Y+10	; 0x0a
    4604:	0b 96       	adiw	r24, 0x0b	; 11
    4606:	0e 94 7d 1e 	call	0x3cfa	; 0x3cfa <_ZN4QEPU9Jumpstack4pushEi>
		serial.writestrln(phidim);
	}
}

void QEPU::set_programcounter(int newaddress){
	program_counter=newaddress-1;
    460a:	e9 85       	ldd	r30, Y+9	; 0x09
    460c:	fa 85       	ldd	r31, Y+10	; 0x0a
    460e:	ea 52       	subi	r30, 0x2A	; 42
    4610:	ff 4f       	sbci	r31, 0xFF	; 255
    4612:	81 e0       	ldi	r24, 0x01	; 1
    4614:	48 1a       	sub	r4, r24
    4616:	51 08       	sbc	r5, r1
    4618:	51 82       	std	Z+1, r5	; 0x01
    461a:	40 82       	st	Z, r4
    461c:	f1 c7       	rjmp	.+4066   	; 0x5600 <_ZN4QEPU7executeEilll+0x12ca>
					jumpstack.push(program_counter+1);
				set_programcounter(op1);
			}
			break;
		case 0x13: /*BGE (branch if greater or equal (with jumpstack))*/
			if(flags.flaglist[CND_GRTER_EQUAL]){
    461e:	80 91 2b 01 	lds	r24, 0x012B
    4622:	88 23       	and	r24, r24
    4624:	09 f4       	brne	.+2      	; 0x4628 <_ZN4QEPU7executeEilll+0x2f2>
    4626:	ec c7       	rjmp	.+4056   	; 0x5600 <_ZN4QEPU7executeEilll+0x12ca>
				if(flags.flaglist[ALLOW_BRANCH_STACK])
    4628:	80 91 30 01 	lds	r24, 0x0130
    462c:	88 23       	and	r24, r24
    462e:	69 f0       	breq	.+26     	; 0x464a <_ZN4QEPU7executeEilll+0x314>
					jumpstack.push(program_counter+1);
    4630:	e9 85       	ldd	r30, Y+9	; 0x09
    4632:	fa 85       	ldd	r31, Y+10	; 0x0a
    4634:	ea 52       	subi	r30, 0x2A	; 42
    4636:	ff 4f       	sbci	r31, 0xFF	; 255
    4638:	60 81       	ld	r22, Z
    463a:	71 81       	ldd	r23, Z+1	; 0x01
    463c:	6f 5f       	subi	r22, 0xFF	; 255
    463e:	7f 4f       	sbci	r23, 0xFF	; 255
    4640:	89 85       	ldd	r24, Y+9	; 0x09
    4642:	9a 85       	ldd	r25, Y+10	; 0x0a
    4644:	0b 96       	adiw	r24, 0x0b	; 11
    4646:	0e 94 7d 1e 	call	0x3cfa	; 0x3cfa <_ZN4QEPU9Jumpstack4pushEi>
		serial.writestrln(phidim);
	}
}

void QEPU::set_programcounter(int newaddress){
	program_counter=newaddress-1;
    464a:	e9 85       	ldd	r30, Y+9	; 0x09
    464c:	fa 85       	ldd	r31, Y+10	; 0x0a
    464e:	ea 52       	subi	r30, 0x2A	; 42
    4650:	ff 4f       	sbci	r31, 0xFF	; 255
    4652:	91 e0       	ldi	r25, 0x01	; 1
    4654:	49 1a       	sub	r4, r25
    4656:	51 08       	sbc	r5, r1
    4658:	51 82       	std	Z+1, r5	; 0x01
    465a:	40 82       	st	Z, r4
    465c:	d1 c7       	rjmp	.+4002   	; 0x5600 <_ZN4QEPU7executeEilll+0x12ca>
					jumpstack.push(program_counter+1);
				set_programcounter(op1);
			}
			break;
		case 0x14: /*BGR (branch if greater (with jumpstack))*/
			if(flags.flaglist[CND_GRTER]){
    465e:	80 91 2c 01 	lds	r24, 0x012C
    4662:	88 23       	and	r24, r24
    4664:	09 f4       	brne	.+2      	; 0x4668 <_ZN4QEPU7executeEilll+0x332>
    4666:	cc c7       	rjmp	.+3992   	; 0x5600 <_ZN4QEPU7executeEilll+0x12ca>
				if(flags.flaglist[ALLOW_BRANCH_STACK])
    4668:	80 91 30 01 	lds	r24, 0x0130
    466c:	88 23       	and	r24, r24
    466e:	69 f0       	breq	.+26     	; 0x468a <_ZN4QEPU7executeEilll+0x354>
					jumpstack.push(program_counter+1);
    4670:	e9 85       	ldd	r30, Y+9	; 0x09
    4672:	fa 85       	ldd	r31, Y+10	; 0x0a
    4674:	ea 52       	subi	r30, 0x2A	; 42
    4676:	ff 4f       	sbci	r31, 0xFF	; 255
    4678:	60 81       	ld	r22, Z
    467a:	71 81       	ldd	r23, Z+1	; 0x01
    467c:	6f 5f       	subi	r22, 0xFF	; 255
    467e:	7f 4f       	sbci	r23, 0xFF	; 255
    4680:	89 85       	ldd	r24, Y+9	; 0x09
    4682:	9a 85       	ldd	r25, Y+10	; 0x0a
    4684:	0b 96       	adiw	r24, 0x0b	; 11
    4686:	0e 94 7d 1e 	call	0x3cfa	; 0x3cfa <_ZN4QEPU9Jumpstack4pushEi>
		serial.writestrln(phidim);
	}
}

void QEPU::set_programcounter(int newaddress){
	program_counter=newaddress-1;
    468a:	e9 85       	ldd	r30, Y+9	; 0x09
    468c:	fa 85       	ldd	r31, Y+10	; 0x0a
    468e:	ea 52       	subi	r30, 0x2A	; 42
    4690:	ff 4f       	sbci	r31, 0xFF	; 255
    4692:	a1 e0       	ldi	r26, 0x01	; 1
    4694:	4a 1a       	sub	r4, r26
    4696:	51 08       	sbc	r5, r1
    4698:	51 82       	std	Z+1, r5	; 0x01
    469a:	40 82       	st	Z, r4
    469c:	b1 c7       	rjmp	.+3938   	; 0x5600 <_ZN4QEPU7executeEilll+0x12ca>
					jumpstack.push(program_counter+1);
				set_programcounter(op1);
			}
			break;
		case 0x15: /*BDI (branch if different (with jumpstack))*/
			if(flags.flaglist[CND_DIFF]){
    469e:	80 91 2d 01 	lds	r24, 0x012D
    46a2:	88 23       	and	r24, r24
    46a4:	09 f4       	brne	.+2      	; 0x46a8 <_ZN4QEPU7executeEilll+0x372>
    46a6:	ac c7       	rjmp	.+3928   	; 0x5600 <_ZN4QEPU7executeEilll+0x12ca>
				if(flags.flaglist[ALLOW_BRANCH_STACK])
    46a8:	80 91 30 01 	lds	r24, 0x0130
    46ac:	88 23       	and	r24, r24
    46ae:	69 f0       	breq	.+26     	; 0x46ca <_ZN4QEPU7executeEilll+0x394>
					jumpstack.push(program_counter+1);
    46b0:	e9 85       	ldd	r30, Y+9	; 0x09
    46b2:	fa 85       	ldd	r31, Y+10	; 0x0a
    46b4:	ea 52       	subi	r30, 0x2A	; 42
    46b6:	ff 4f       	sbci	r31, 0xFF	; 255
    46b8:	60 81       	ld	r22, Z
    46ba:	71 81       	ldd	r23, Z+1	; 0x01
    46bc:	6f 5f       	subi	r22, 0xFF	; 255
    46be:	7f 4f       	sbci	r23, 0xFF	; 255
    46c0:	89 85       	ldd	r24, Y+9	; 0x09
    46c2:	9a 85       	ldd	r25, Y+10	; 0x0a
    46c4:	0b 96       	adiw	r24, 0x0b	; 11
    46c6:	0e 94 7d 1e 	call	0x3cfa	; 0x3cfa <_ZN4QEPU9Jumpstack4pushEi>
		serial.writestrln(phidim);
	}
}

void QEPU::set_programcounter(int newaddress){
	program_counter=newaddress-1;
    46ca:	e9 85       	ldd	r30, Y+9	; 0x09
    46cc:	fa 85       	ldd	r31, Y+10	; 0x0a
    46ce:	ea 52       	subi	r30, 0x2A	; 42
    46d0:	ff 4f       	sbci	r31, 0xFF	; 255
    46d2:	b1 e0       	ldi	r27, 0x01	; 1
    46d4:	4b 1a       	sub	r4, r27
    46d6:	51 08       	sbc	r5, r1
    46d8:	51 82       	std	Z+1, r5	; 0x01
    46da:	40 82       	st	Z, r4
    46dc:	91 c7       	rjmp	.+3874   	; 0x5600 <_ZN4QEPU7executeEilll+0x12ca>
					jumpstack.push(program_counter+1);
				set_programcounter(op1);
			}
			break;
		case 0x16: /*BZE (branch if register(op1)=0 (zero) (with jumpstack))*/
			if(flags.flaglist[CND_ZERO]){
    46de:	80 91 2e 01 	lds	r24, 0x012E
    46e2:	88 23       	and	r24, r24
    46e4:	09 f4       	brne	.+2      	; 0x46e8 <_ZN4QEPU7executeEilll+0x3b2>
    46e6:	8c c7       	rjmp	.+3864   	; 0x5600 <_ZN4QEPU7executeEilll+0x12ca>
				if(flags.flaglist[ALLOW_BRANCH_STACK])
    46e8:	80 91 30 01 	lds	r24, 0x0130
    46ec:	88 23       	and	r24, r24
    46ee:	69 f0       	breq	.+26     	; 0x470a <_ZN4QEPU7executeEilll+0x3d4>
					jumpstack.push(program_counter+1);
    46f0:	e9 85       	ldd	r30, Y+9	; 0x09
    46f2:	fa 85       	ldd	r31, Y+10	; 0x0a
    46f4:	ea 52       	subi	r30, 0x2A	; 42
    46f6:	ff 4f       	sbci	r31, 0xFF	; 255
    46f8:	60 81       	ld	r22, Z
    46fa:	71 81       	ldd	r23, Z+1	; 0x01
    46fc:	6f 5f       	subi	r22, 0xFF	; 255
    46fe:	7f 4f       	sbci	r23, 0xFF	; 255
    4700:	89 85       	ldd	r24, Y+9	; 0x09
    4702:	9a 85       	ldd	r25, Y+10	; 0x0a
    4704:	0b 96       	adiw	r24, 0x0b	; 11
    4706:	0e 94 7d 1e 	call	0x3cfa	; 0x3cfa <_ZN4QEPU9Jumpstack4pushEi>
		serial.writestrln(phidim);
	}
}

void QEPU::set_programcounter(int newaddress){
	program_counter=newaddress-1;
    470a:	e9 85       	ldd	r30, Y+9	; 0x09
    470c:	fa 85       	ldd	r31, Y+10	; 0x0a
    470e:	ea 52       	subi	r30, 0x2A	; 42
    4710:	ff 4f       	sbci	r31, 0xFF	; 255
    4712:	81 e0       	ldi	r24, 0x01	; 1
    4714:	48 1a       	sub	r4, r24
    4716:	51 08       	sbc	r5, r1
    4718:	51 82       	std	Z+1, r5	; 0x01
    471a:	40 82       	st	Z, r4
    471c:	71 c7       	rjmp	.+3810   	; 0x5600 <_ZN4QEPU7executeEilll+0x12ca>
					jumpstack.push(program_counter+1);
				set_programcounter(op1);
			}
			break;
		case 0x17: /*BNZ (branch if register(op1)!=0 (not zero) (with jumpstack))*/
			if(flags.flaglist[CND_NOT_ZERO]){
    471e:	80 91 2f 01 	lds	r24, 0x012F
    4722:	88 23       	and	r24, r24
    4724:	09 f4       	brne	.+2      	; 0x4728 <_ZN4QEPU7executeEilll+0x3f2>
    4726:	6c c7       	rjmp	.+3800   	; 0x5600 <_ZN4QEPU7executeEilll+0x12ca>
				if(flags.flaglist[ALLOW_BRANCH_STACK])
    4728:	80 91 30 01 	lds	r24, 0x0130
    472c:	88 23       	and	r24, r24
    472e:	69 f0       	breq	.+26     	; 0x474a <_ZN4QEPU7executeEilll+0x414>
					jumpstack.push(program_counter+1);
    4730:	e9 85       	ldd	r30, Y+9	; 0x09
    4732:	fa 85       	ldd	r31, Y+10	; 0x0a
    4734:	ea 52       	subi	r30, 0x2A	; 42
    4736:	ff 4f       	sbci	r31, 0xFF	; 255
    4738:	60 81       	ld	r22, Z
    473a:	71 81       	ldd	r23, Z+1	; 0x01
    473c:	6f 5f       	subi	r22, 0xFF	; 255
    473e:	7f 4f       	sbci	r23, 0xFF	; 255
    4740:	89 85       	ldd	r24, Y+9	; 0x09
    4742:	9a 85       	ldd	r25, Y+10	; 0x0a
    4744:	0b 96       	adiw	r24, 0x0b	; 11
    4746:	0e 94 7d 1e 	call	0x3cfa	; 0x3cfa <_ZN4QEPU9Jumpstack4pushEi>
		serial.writestrln(phidim);
	}
}

void QEPU::set_programcounter(int newaddress){
	program_counter=newaddress-1;
    474a:	e9 85       	ldd	r30, Y+9	; 0x09
    474c:	fa 85       	ldd	r31, Y+10	; 0x0a
    474e:	ea 52       	subi	r30, 0x2A	; 42
    4750:	ff 4f       	sbci	r31, 0xFF	; 255
    4752:	91 e0       	ldi	r25, 0x01	; 1
    4754:	49 1a       	sub	r4, r25
    4756:	51 08       	sbc	r5, r1
    4758:	51 82       	std	Z+1, r5	; 0x01
    475a:	40 82       	st	Z, r4
    475c:	51 c7       	rjmp	.+3746   	; 0x5600 <_ZN4QEPU7executeEilll+0x12ca>
					jumpstack.push(program_counter+1);
				set_programcounter(op1);
			}
			break;
		case 0x18: /*CALL (incondicional branch WITH jumpstack)*/
			jumpstack.push(program_counter+1);
    475e:	e9 84       	ldd	r14, Y+9	; 0x09
    4760:	fa 84       	ldd	r15, Y+10	; 0x0a
    4762:	a6 ed       	ldi	r26, 0xD6	; 214
    4764:	ea 0e       	add	r14, r26
    4766:	f1 1c       	adc	r15, r1
    4768:	f7 01       	movw	r30, r14
    476a:	60 81       	ld	r22, Z
    476c:	71 81       	ldd	r23, Z+1	; 0x01
    476e:	6f 5f       	subi	r22, 0xFF	; 255
    4770:	7f 4f       	sbci	r23, 0xFF	; 255
    4772:	89 85       	ldd	r24, Y+9	; 0x09
    4774:	9a 85       	ldd	r25, Y+10	; 0x0a
    4776:	0b 96       	adiw	r24, 0x0b	; 11
    4778:	0e 94 7d 1e 	call	0x3cfa	; 0x3cfa <_ZN4QEPU9Jumpstack4pushEi>
		serial.writestrln(phidim);
	}
}

void QEPU::set_programcounter(int newaddress){
	program_counter=newaddress-1;
    477c:	f1 e0       	ldi	r31, 0x01	; 1
    477e:	4f 1a       	sub	r4, r31
    4780:	51 08       	sbc	r5, r1
    4782:	d7 01       	movw	r26, r14
    4784:	4d 92       	st	X+, r4
    4786:	5c 92       	st	X, r5
    4788:	3b c7       	rjmp	.+3702   	; 0x5600 <_ZN4QEPU7executeEilll+0x12ca>
		case 0x18: /*CALL (incondicional branch WITH jumpstack)*/
			jumpstack.push(program_counter+1);
			set_programcounter(op1);
			break;
		case 0x19: /*RET (return)*/
			set_programcounter(jumpstack.pop());
    478a:	89 85       	ldd	r24, Y+9	; 0x09
    478c:	9a 85       	ldd	r25, Y+10	; 0x0a
    478e:	0b 96       	adiw	r24, 0x0b	; 11
    4790:	0e 94 8d 1e 	call	0x3d1a	; 0x3d1a <_ZN4QEPU9Jumpstack3popEv>
		serial.writestrln(phidim);
	}
}

void QEPU::set_programcounter(int newaddress){
	program_counter=newaddress-1;
    4794:	e9 85       	ldd	r30, Y+9	; 0x09
    4796:	fa 85       	ldd	r31, Y+10	; 0x0a
    4798:	ea 52       	subi	r30, 0x2A	; 42
    479a:	ff 4f       	sbci	r31, 0xFF	; 255
    479c:	01 97       	sbiw	r24, 0x01	; 1
    479e:	91 83       	std	Z+1, r25	; 0x01
    47a0:	80 83       	st	Z, r24
    47a2:	2e c7       	rjmp	.+3676   	; 0x5600 <_ZN4QEPU7executeEilll+0x12ca>
    47a4:	e9 85       	ldd	r30, Y+9	; 0x09
    47a6:	fa 85       	ldd	r31, Y+10	; 0x0a
    47a8:	ea 52       	subi	r30, 0x2A	; 42
    47aa:	ff 4f       	sbci	r31, 0xFF	; 255
    47ac:	b1 e0       	ldi	r27, 0x01	; 1
    47ae:	4b 1a       	sub	r4, r27
    47b0:	51 08       	sbc	r5, r1
    47b2:	51 82       	std	Z+1, r5	; 0x01
    47b4:	40 82       	st	Z, r4
    47b6:	24 c7       	rjmp	.+3656   	; 0x5600 <_ZN4QEPU7executeEilll+0x12ca>
		case 0x1A: /*JMP (jump (incondicional branch WITHOUT jumpstack))*/
			set_programcounter(op1);
			break;
		/*IMPLEMENT LOGIC AND ARITHMETIC (CLASSICAL) CALCULATIONS HERE*/
		case 0x1B: /*ADD*/
			sram.write(op1,sram.read(op2)+sram.read(op3));
    47b8:	c9 84       	ldd	r12, Y+9	; 0x09
    47ba:	da 84       	ldd	r13, Y+10	; 0x0a
    47bc:	e3 e0       	ldi	r30, 0x03	; 3
    47be:	ce 0e       	add	r12, r30
    47c0:	d1 1c       	adc	r13, r1
    47c2:	69 81       	ldd	r22, Y+1	; 0x01
    47c4:	7a 81       	ldd	r23, Y+2	; 0x02
    47c6:	c6 01       	movw	r24, r12
    47c8:	0e 94 b8 2c 	call	0x5970	; 0x5970 <_ZN4SRAM4readEi>
    47cc:	f8 2e       	mov	r15, r24
    47ce:	6a 2d       	mov	r22, r10
    47d0:	7b 2d       	mov	r23, r11
    47d2:	c6 01       	movw	r24, r12
    47d4:	0e 94 b8 2c 	call	0x5970	; 0x5970 <_ZN4SRAM4readEi>
    47d8:	48 2f       	mov	r20, r24
    47da:	55 27       	eor	r21, r21
    47dc:	47 fd       	sbrc	r20, 7
    47de:	50 95       	com	r21
    47e0:	4f 0d       	add	r20, r15
    47e2:	51 1d       	adc	r21, r1
    47e4:	f7 fc       	sbrc	r15, 7
    47e6:	5a 95       	dec	r21
    47e8:	b2 01       	movw	r22, r4
    47ea:	c6 01       	movw	r24, r12
    47ec:	0e 94 23 2d 	call	0x5a46	; 0x5a46 <_ZN4SRAM5writeEii>
			break;
    47f0:	07 c7       	rjmp	.+3598   	; 0x5600 <_ZN4QEPU7executeEilll+0x12ca>
		case 0x1C: /*SUB*/
			sram.write(op1,sram.read(op2)-sram.read(op3));
    47f2:	c9 84       	ldd	r12, Y+9	; 0x09
    47f4:	da 84       	ldd	r13, Y+10	; 0x0a
    47f6:	f3 e0       	ldi	r31, 0x03	; 3
    47f8:	cf 0e       	add	r12, r31
    47fa:	d1 1c       	adc	r13, r1
    47fc:	69 81       	ldd	r22, Y+1	; 0x01
    47fe:	7a 81       	ldd	r23, Y+2	; 0x02
    4800:	c6 01       	movw	r24, r12
    4802:	0e 94 b8 2c 	call	0x5970	; 0x5970 <_ZN4SRAM4readEi>
    4806:	f8 2e       	mov	r15, r24
    4808:	6a 2d       	mov	r22, r10
    480a:	7b 2d       	mov	r23, r11
    480c:	c6 01       	movw	r24, r12
    480e:	0e 94 b8 2c 	call	0x5970	; 0x5970 <_ZN4SRAM4readEi>
    4812:	4f 2d       	mov	r20, r15
    4814:	55 27       	eor	r21, r21
    4816:	47 fd       	sbrc	r20, 7
    4818:	50 95       	com	r21
    481a:	48 1b       	sub	r20, r24
    481c:	51 09       	sbc	r21, r1
    481e:	87 fd       	sbrc	r24, 7
    4820:	53 95       	inc	r21
    4822:	b2 01       	movw	r22, r4
    4824:	c6 01       	movw	r24, r12
    4826:	0e 94 23 2d 	call	0x5a46	; 0x5a46 <_ZN4SRAM5writeEii>
			break;
    482a:	ea c6       	rjmp	.+3540   	; 0x5600 <_ZN4QEPU7executeEilll+0x12ca>
		case 0x1D: /*MUL*/
			sram.write(op1,sram.read(op2)*sram.read(op3));
    482c:	c9 84       	ldd	r12, Y+9	; 0x09
    482e:	da 84       	ldd	r13, Y+10	; 0x0a
    4830:	83 e0       	ldi	r24, 0x03	; 3
    4832:	c8 0e       	add	r12, r24
    4834:	d1 1c       	adc	r13, r1
    4836:	69 81       	ldd	r22, Y+1	; 0x01
    4838:	7a 81       	ldd	r23, Y+2	; 0x02
    483a:	c6 01       	movw	r24, r12
    483c:	0e 94 b8 2c 	call	0x5970	; 0x5970 <_ZN4SRAM4readEi>
    4840:	f8 2e       	mov	r15, r24
    4842:	6a 2d       	mov	r22, r10
    4844:	7b 2d       	mov	r23, r11
    4846:	c6 01       	movw	r24, r12
    4848:	0e 94 b8 2c 	call	0x5970	; 0x5970 <_ZN4SRAM4readEi>
    484c:	9f 2d       	mov	r25, r15
    484e:	98 02       	muls	r25, r24
    4850:	a0 01       	movw	r20, r0
    4852:	11 24       	eor	r1, r1
    4854:	b2 01       	movw	r22, r4
    4856:	c6 01       	movw	r24, r12
    4858:	0e 94 23 2d 	call	0x5a46	; 0x5a46 <_ZN4SRAM5writeEii>
			break;
    485c:	d1 c6       	rjmp	.+3490   	; 0x5600 <_ZN4QEPU7executeEilll+0x12ca>
		case 0x1E: /*DIV*/
			sram.write(op1,sram.read(op2)/sram.read(op3));
    485e:	c9 84       	ldd	r12, Y+9	; 0x09
    4860:	da 84       	ldd	r13, Y+10	; 0x0a
    4862:	a3 e0       	ldi	r26, 0x03	; 3
    4864:	ca 0e       	add	r12, r26
    4866:	d1 1c       	adc	r13, r1
    4868:	69 81       	ldd	r22, Y+1	; 0x01
    486a:	7a 81       	ldd	r23, Y+2	; 0x02
    486c:	c6 01       	movw	r24, r12
    486e:	0e 94 b8 2c 	call	0x5970	; 0x5970 <_ZN4SRAM4readEi>
    4872:	f8 2e       	mov	r15, r24
    4874:	6a 2d       	mov	r22, r10
    4876:	7b 2d       	mov	r23, r11
    4878:	c6 01       	movw	r24, r12
    487a:	0e 94 b8 2c 	call	0x5970	; 0x5970 <_ZN4SRAM4readEi>
    487e:	68 2f       	mov	r22, r24
    4880:	8f 2d       	mov	r24, r15
    4882:	99 27       	eor	r25, r25
    4884:	87 fd       	sbrc	r24, 7
    4886:	90 95       	com	r25
    4888:	77 27       	eor	r23, r23
    488a:	67 fd       	sbrc	r22, 7
    488c:	70 95       	com	r23
    488e:	0e 94 35 33 	call	0x666a	; 0x666a <__divmodhi4>
    4892:	ab 01       	movw	r20, r22
    4894:	b2 01       	movw	r22, r4
    4896:	c6 01       	movw	r24, r12
    4898:	0e 94 23 2d 	call	0x5a46	; 0x5a46 <_ZN4SRAM5writeEii>
			break;
    489c:	b1 c6       	rjmp	.+3426   	; 0x5600 <_ZN4QEPU7executeEilll+0x12ca>
		case 0x1F: /*AND*/
			sram.write(op1,sram.read(op2)&sram.read(op3));
    489e:	c9 84       	ldd	r12, Y+9	; 0x09
    48a0:	da 84       	ldd	r13, Y+10	; 0x0a
    48a2:	b3 e0       	ldi	r27, 0x03	; 3
    48a4:	cb 0e       	add	r12, r27
    48a6:	d1 1c       	adc	r13, r1
    48a8:	69 81       	ldd	r22, Y+1	; 0x01
    48aa:	7a 81       	ldd	r23, Y+2	; 0x02
    48ac:	c6 01       	movw	r24, r12
    48ae:	0e 94 b8 2c 	call	0x5970	; 0x5970 <_ZN4SRAM4readEi>
    48b2:	f8 2e       	mov	r15, r24
    48b4:	6a 2d       	mov	r22, r10
    48b6:	7b 2d       	mov	r23, r11
    48b8:	c6 01       	movw	r24, r12
    48ba:	0e 94 b8 2c 	call	0x5970	; 0x5970 <_ZN4SRAM4readEi>
    48be:	8f 21       	and	r24, r15
    48c0:	48 2f       	mov	r20, r24
    48c2:	55 27       	eor	r21, r21
    48c4:	47 fd       	sbrc	r20, 7
    48c6:	50 95       	com	r21
    48c8:	b2 01       	movw	r22, r4
    48ca:	c6 01       	movw	r24, r12
    48cc:	0e 94 23 2d 	call	0x5a46	; 0x5a46 <_ZN4SRAM5writeEii>
			break;
    48d0:	97 c6       	rjmp	.+3374   	; 0x5600 <_ZN4QEPU7executeEilll+0x12ca>
		case 0x20: /*OR*/
			sram.write(op1,sram.read(op2)|sram.read(op3));
    48d2:	c9 84       	ldd	r12, Y+9	; 0x09
    48d4:	da 84       	ldd	r13, Y+10	; 0x0a
    48d6:	e3 e0       	ldi	r30, 0x03	; 3
    48d8:	ce 0e       	add	r12, r30
    48da:	d1 1c       	adc	r13, r1
    48dc:	69 81       	ldd	r22, Y+1	; 0x01
    48de:	7a 81       	ldd	r23, Y+2	; 0x02
    48e0:	c6 01       	movw	r24, r12
    48e2:	0e 94 b8 2c 	call	0x5970	; 0x5970 <_ZN4SRAM4readEi>
    48e6:	f8 2e       	mov	r15, r24
    48e8:	6a 2d       	mov	r22, r10
    48ea:	7b 2d       	mov	r23, r11
    48ec:	c6 01       	movw	r24, r12
    48ee:	0e 94 b8 2c 	call	0x5970	; 0x5970 <_ZN4SRAM4readEi>
    48f2:	8f 29       	or	r24, r15
    48f4:	48 2f       	mov	r20, r24
    48f6:	55 27       	eor	r21, r21
    48f8:	47 fd       	sbrc	r20, 7
    48fa:	50 95       	com	r21
    48fc:	b2 01       	movw	r22, r4
    48fe:	c6 01       	movw	r24, r12
    4900:	0e 94 23 2d 	call	0x5a46	; 0x5a46 <_ZN4SRAM5writeEii>
			break;
    4904:	7d c6       	rjmp	.+3322   	; 0x5600 <_ZN4QEPU7executeEilll+0x12ca>
		case 0x21: /*NOR*/
			sram.write(op1,~(sram.read(op2)|sram.read(op3)));
    4906:	c9 84       	ldd	r12, Y+9	; 0x09
    4908:	da 84       	ldd	r13, Y+10	; 0x0a
    490a:	f3 e0       	ldi	r31, 0x03	; 3
    490c:	cf 0e       	add	r12, r31
    490e:	d1 1c       	adc	r13, r1
    4910:	69 81       	ldd	r22, Y+1	; 0x01
    4912:	7a 81       	ldd	r23, Y+2	; 0x02
    4914:	c6 01       	movw	r24, r12
    4916:	0e 94 b8 2c 	call	0x5970	; 0x5970 <_ZN4SRAM4readEi>
    491a:	f8 2e       	mov	r15, r24
    491c:	6a 2d       	mov	r22, r10
    491e:	7b 2d       	mov	r23, r11
    4920:	c6 01       	movw	r24, r12
    4922:	0e 94 b8 2c 	call	0x5970	; 0x5970 <_ZN4SRAM4readEi>
    4926:	8f 29       	or	r24, r15
    4928:	48 2f       	mov	r20, r24
    492a:	55 27       	eor	r21, r21
    492c:	47 fd       	sbrc	r20, 7
    492e:	50 95       	com	r21
    4930:	40 95       	com	r20
    4932:	50 95       	com	r21
    4934:	b2 01       	movw	r22, r4
    4936:	c6 01       	movw	r24, r12
    4938:	0e 94 23 2d 	call	0x5a46	; 0x5a46 <_ZN4SRAM5writeEii>
			break;
    493c:	61 c6       	rjmp	.+3266   	; 0x5600 <_ZN4QEPU7executeEilll+0x12ca>
		case 0x22: /*XOR*/
			sram.write(op1,sram.read(op2)^sram.read(op3));
    493e:	c9 84       	ldd	r12, Y+9	; 0x09
    4940:	da 84       	ldd	r13, Y+10	; 0x0a
    4942:	83 e0       	ldi	r24, 0x03	; 3
    4944:	c8 0e       	add	r12, r24
    4946:	d1 1c       	adc	r13, r1
    4948:	69 81       	ldd	r22, Y+1	; 0x01
    494a:	7a 81       	ldd	r23, Y+2	; 0x02
    494c:	c6 01       	movw	r24, r12
    494e:	0e 94 b8 2c 	call	0x5970	; 0x5970 <_ZN4SRAM4readEi>
    4952:	f8 2e       	mov	r15, r24
    4954:	6a 2d       	mov	r22, r10
    4956:	7b 2d       	mov	r23, r11
    4958:	c6 01       	movw	r24, r12
    495a:	0e 94 b8 2c 	call	0x5970	; 0x5970 <_ZN4SRAM4readEi>
    495e:	8f 25       	eor	r24, r15
    4960:	48 2f       	mov	r20, r24
    4962:	55 27       	eor	r21, r21
    4964:	47 fd       	sbrc	r20, 7
    4966:	50 95       	com	r21
    4968:	b2 01       	movw	r22, r4
    496a:	c6 01       	movw	r24, r12
    496c:	0e 94 23 2d 	call	0x5a46	; 0x5a46 <_ZN4SRAM5writeEii>
			break;
    4970:	47 c6       	rjmp	.+3214   	; 0x5600 <_ZN4QEPU7executeEilll+0x12ca>
		case 0x23: /*NAN*/
			sram.write(op1,~(sram.read(op2)&sram.read(op3)));
    4972:	c9 84       	ldd	r12, Y+9	; 0x09
    4974:	da 84       	ldd	r13, Y+10	; 0x0a
    4976:	93 e0       	ldi	r25, 0x03	; 3
    4978:	c9 0e       	add	r12, r25
    497a:	d1 1c       	adc	r13, r1
    497c:	69 81       	ldd	r22, Y+1	; 0x01
    497e:	7a 81       	ldd	r23, Y+2	; 0x02
    4980:	c6 01       	movw	r24, r12
    4982:	0e 94 b8 2c 	call	0x5970	; 0x5970 <_ZN4SRAM4readEi>
    4986:	f8 2e       	mov	r15, r24
    4988:	6a 2d       	mov	r22, r10
    498a:	7b 2d       	mov	r23, r11
    498c:	c6 01       	movw	r24, r12
    498e:	0e 94 b8 2c 	call	0x5970	; 0x5970 <_ZN4SRAM4readEi>
    4992:	8f 21       	and	r24, r15
    4994:	48 2f       	mov	r20, r24
    4996:	55 27       	eor	r21, r21
    4998:	47 fd       	sbrc	r20, 7
    499a:	50 95       	com	r21
    499c:	40 95       	com	r20
    499e:	50 95       	com	r21
    49a0:	b2 01       	movw	r22, r4
    49a2:	c6 01       	movw	r24, r12
    49a4:	0e 94 23 2d 	call	0x5a46	; 0x5a46 <_ZN4SRAM5writeEii>
			break;
    49a8:	2b c6       	rjmp	.+3158   	; 0x5600 <_ZN4QEPU7executeEilll+0x12ca>
		case 0x24: /*NOT*/
			sram.write(op1,~sram.read(op2));
    49aa:	e9 84       	ldd	r14, Y+9	; 0x09
    49ac:	fa 84       	ldd	r15, Y+10	; 0x0a
    49ae:	a3 e0       	ldi	r26, 0x03	; 3
    49b0:	ea 0e       	add	r14, r26
    49b2:	f1 1c       	adc	r15, r1
    49b4:	69 81       	ldd	r22, Y+1	; 0x01
    49b6:	7a 81       	ldd	r23, Y+2	; 0x02
    49b8:	c7 01       	movw	r24, r14
    49ba:	0e 94 b8 2c 	call	0x5970	; 0x5970 <_ZN4SRAM4readEi>
    49be:	48 2f       	mov	r20, r24
    49c0:	55 27       	eor	r21, r21
    49c2:	47 fd       	sbrc	r20, 7
    49c4:	50 95       	com	r21
    49c6:	40 95       	com	r20
    49c8:	50 95       	com	r21
    49ca:	b2 01       	movw	r22, r4
    49cc:	c7 01       	movw	r24, r14
    49ce:	0e 94 23 2d 	call	0x5a46	; 0x5a46 <_ZN4SRAM5writeEii>
			break;
    49d2:	16 c6       	rjmp	.+3116   	; 0x5600 <_ZN4QEPU7executeEilll+0x12ca>
		case 0x25: /*SHL*/
			sram.write(op1,sram.read(op2)<<op3);
    49d4:	e9 84       	ldd	r14, Y+9	; 0x09
    49d6:	fa 84       	ldd	r15, Y+10	; 0x0a
    49d8:	b3 e0       	ldi	r27, 0x03	; 3
    49da:	eb 0e       	add	r14, r27
    49dc:	f1 1c       	adc	r15, r1
    49de:	69 81       	ldd	r22, Y+1	; 0x01
    49e0:	7a 81       	ldd	r23, Y+2	; 0x02
    49e2:	c7 01       	movw	r24, r14
    49e4:	0e 94 b8 2c 	call	0x5970	; 0x5970 <_ZN4SRAM4readEi>
    49e8:	48 2f       	mov	r20, r24
    49ea:	55 27       	eor	r21, r21
    49ec:	47 fd       	sbrc	r20, 7
    49ee:	50 95       	com	r21
    49f0:	02 c0       	rjmp	.+4      	; 0x49f6 <_ZN4QEPU7executeEilll+0x6c0>
    49f2:	44 0f       	add	r20, r20
    49f4:	55 1f       	adc	r21, r21
    49f6:	aa 94       	dec	r10
    49f8:	e2 f7       	brpl	.-8      	; 0x49f2 <_ZN4QEPU7executeEilll+0x6bc>
    49fa:	b2 01       	movw	r22, r4
    49fc:	c7 01       	movw	r24, r14
    49fe:	0e 94 23 2d 	call	0x5a46	; 0x5a46 <_ZN4SRAM5writeEii>
			break;
    4a02:	fe c5       	rjmp	.+3068   	; 0x5600 <_ZN4QEPU7executeEilll+0x12ca>
		case 0x26: /*SHR*/
			sram.write(op1,sram.read(op2)>>op3);
    4a04:	e9 84       	ldd	r14, Y+9	; 0x09
    4a06:	fa 84       	ldd	r15, Y+10	; 0x0a
    4a08:	e3 e0       	ldi	r30, 0x03	; 3
    4a0a:	ee 0e       	add	r14, r30
    4a0c:	f1 1c       	adc	r15, r1
    4a0e:	69 81       	ldd	r22, Y+1	; 0x01
    4a10:	7a 81       	ldd	r23, Y+2	; 0x02
    4a12:	c7 01       	movw	r24, r14
    4a14:	0e 94 b8 2c 	call	0x5970	; 0x5970 <_ZN4SRAM4readEi>
    4a18:	48 2f       	mov	r20, r24
    4a1a:	55 27       	eor	r21, r21
    4a1c:	47 fd       	sbrc	r20, 7
    4a1e:	50 95       	com	r21
    4a20:	02 c0       	rjmp	.+4      	; 0x4a26 <_ZN4QEPU7executeEilll+0x6f0>
    4a22:	55 95       	asr	r21
    4a24:	47 95       	ror	r20
    4a26:	aa 94       	dec	r10
    4a28:	e2 f7       	brpl	.-8      	; 0x4a22 <_ZN4QEPU7executeEilll+0x6ec>
    4a2a:	b2 01       	movw	r22, r4
    4a2c:	c7 01       	movw	r24, r14
    4a2e:	0e 94 23 2d 	call	0x5a46	; 0x5a46 <_ZN4SRAM5writeEii>
			break;
    4a32:	e6 c5       	rjmp	.+3020   	; 0x5600 <_ZN4QEPU7executeEilll+0x12ca>
		case 0x27: /*INT (interrupt)*/ //NEEDS TABLE SYSTEM
			interrupt_cpu(op1);
    4a34:	b2 01       	movw	r22, r4
    4a36:	89 85       	ldd	r24, Y+9	; 0x09
    4a38:	9a 85       	ldd	r25, Y+10	; 0x0a
    4a3a:	0e 94 17 1e 	call	0x3c2e	; 0x3c2e <_ZN4QEPU13interrupt_cpuEi>
			break;
    4a3e:	e0 c5       	rjmp	.+3008   	; 0x5600 <_ZN4QEPU7executeEilll+0x12ca>
		case 0x28: /*DLY (delay)*/
			utils.delay(op1);
    4a40:	b2 01       	movw	r22, r4
    4a42:	89 85       	ldd	r24, Y+9	; 0x09
    4a44:	9a 85       	ldd	r25, Y+10	; 0x0a
    4a46:	8b 52       	subi	r24, 0x2B	; 43
    4a48:	9f 4f       	sbci	r25, 0xFF	; 255
    4a4a:	0e 94 ac 2e 	call	0x5d58	; 0x5d58 <_ZN5Utils5delayEi>
			break;
    4a4e:	d8 c5       	rjmp	.+2992   	; 0x5600 <_ZN4QEPU7executeEilll+0x12ca>
		case 0x29: /*NOP (nop) - DOES NOTHING*/ 
			break;
		case 0x2A: /*HLT (halt)*/ 
			program_counter=program_counter_maximum;
    4a50:	e9 85       	ldd	r30, Y+9	; 0x09
    4a52:	fa 85       	ldd	r31, Y+10	; 0x0a
    4a54:	ea 52       	subi	r30, 0x2A	; 42
    4a56:	ff 4f       	sbci	r31, 0xFF	; 255
    4a58:	a9 85       	ldd	r26, Y+9	; 0x09
    4a5a:	ba 85       	ldd	r27, Y+10	; 0x0a
    4a5c:	a8 52       	subi	r26, 0x28	; 40
    4a5e:	bf 4f       	sbci	r27, 0xFF	; 255
    4a60:	8d 91       	ld	r24, X+
    4a62:	9c 91       	ld	r25, X
    4a64:	91 83       	std	Z+1, r25	; 0x01
    4a66:	80 83       	st	Z, r24
			break;
    4a68:	cb c5       	rjmp	.+2966   	; 0x5600 <_ZN4QEPU7executeEilll+0x12ca>
		//QUANTUM FUNCTIONS:
		//1 QUBIT GATES -
		case 0x2B: // X GATE
			newthephi=gates.X(read(op1,THE,false),read(op1,PHI,false));
    4a6a:	20 e0       	ldi	r18, 0x00	; 0
    4a6c:	41 e0       	ldi	r20, 0x01	; 1
    4a6e:	50 e0       	ldi	r21, 0x00	; 0
    4a70:	b2 01       	movw	r22, r4
    4a72:	89 85       	ldd	r24, Y+9	; 0x09
    4a74:	9a 85       	ldd	r25, Y+10	; 0x0a
    4a76:	0e 94 f1 1f 	call	0x3fe2	; 0x3fe2 <_ZN4QEPU4readEiib>
    4a7a:	8c 01       	movw	r16, r24
    4a7c:	20 e0       	ldi	r18, 0x00	; 0
    4a7e:	40 e0       	ldi	r20, 0x00	; 0
    4a80:	50 e0       	ldi	r21, 0x00	; 0
    4a82:	b2 01       	movw	r22, r4
    4a84:	89 85       	ldd	r24, Y+9	; 0x09
    4a86:	9a 85       	ldd	r25, Y+10	; 0x0a
    4a88:	0e 94 f1 1f 	call	0x3fe2	; 0x3fe2 <_ZN4QEPU4readEiib>
    4a8c:	a8 01       	movw	r20, r16
    4a8e:	bc 01       	movw	r22, r24
    4a90:	89 85       	ldd	r24, Y+9	; 0x09
    4a92:	9a 85       	ldd	r25, Y+10	; 0x0a
    4a94:	0a 96       	adiw	r24, 0x0a	; 10
    4a96:	0e 94 62 09 	call	0x12c4	; 0x12c4 <_ZN5Gates1XEii>
    4a9a:	8c 01       	movw	r16, r24
			write(op1,THE,newthephi[0]);write(op1,PHI,newthephi[1]);
    4a9c:	dc 01       	movw	r26, r24
    4a9e:	2d 91       	ld	r18, X+
    4aa0:	3c 91       	ld	r19, X
    4aa2:	40 e0       	ldi	r20, 0x00	; 0
    4aa4:	50 e0       	ldi	r21, 0x00	; 0
    4aa6:	b2 01       	movw	r22, r4
    4aa8:	89 85       	ldd	r24, Y+9	; 0x09
    4aaa:	9a 85       	ldd	r25, Y+10	; 0x0a
    4aac:	0e 94 c4 1f 	call	0x3f88	; 0x3f88 <_ZN4QEPU5writeEiii>
    4ab0:	f8 01       	movw	r30, r16
    4ab2:	22 81       	ldd	r18, Z+2	; 0x02
    4ab4:	33 81       	ldd	r19, Z+3	; 0x03
    4ab6:	41 e0       	ldi	r20, 0x01	; 1
    4ab8:	50 e0       	ldi	r21, 0x00	; 0
    4aba:	b2 01       	movw	r22, r4
    4abc:	89 85       	ldd	r24, Y+9	; 0x09
    4abe:	9a 85       	ldd	r25, Y+10	; 0x0a
    4ac0:	0e 94 c4 1f 	call	0x3f88	; 0x3f88 <_ZN4QEPU5writeEiii>
			break;
    4ac4:	9d c5       	rjmp	.+2874   	; 0x5600 <_ZN4QEPU7executeEilll+0x12ca>
		case 0x2C: // Y GATE
			newthephi=gates.Y(read(op1,THE,false),read(op1,PHI,false));
    4ac6:	20 e0       	ldi	r18, 0x00	; 0
    4ac8:	41 e0       	ldi	r20, 0x01	; 1
    4aca:	50 e0       	ldi	r21, 0x00	; 0
    4acc:	b2 01       	movw	r22, r4
    4ace:	89 85       	ldd	r24, Y+9	; 0x09
    4ad0:	9a 85       	ldd	r25, Y+10	; 0x0a
    4ad2:	0e 94 f1 1f 	call	0x3fe2	; 0x3fe2 <_ZN4QEPU4readEiib>
    4ad6:	8c 01       	movw	r16, r24
    4ad8:	20 e0       	ldi	r18, 0x00	; 0
    4ada:	40 e0       	ldi	r20, 0x00	; 0
    4adc:	50 e0       	ldi	r21, 0x00	; 0
    4ade:	b2 01       	movw	r22, r4
    4ae0:	89 85       	ldd	r24, Y+9	; 0x09
    4ae2:	9a 85       	ldd	r25, Y+10	; 0x0a
    4ae4:	0e 94 f1 1f 	call	0x3fe2	; 0x3fe2 <_ZN4QEPU4readEiib>
    4ae8:	a8 01       	movw	r20, r16
    4aea:	bc 01       	movw	r22, r24
    4aec:	89 85       	ldd	r24, Y+9	; 0x09
    4aee:	9a 85       	ldd	r25, Y+10	; 0x0a
    4af0:	0a 96       	adiw	r24, 0x0a	; 10
    4af2:	0e 94 cc 09 	call	0x1398	; 0x1398 <_ZN5Gates1YEii>
    4af6:	8c 01       	movw	r16, r24
			write(op1,THE,newthephi[0]);write(op1,PHI,newthephi[1]);
    4af8:	dc 01       	movw	r26, r24
    4afa:	2d 91       	ld	r18, X+
    4afc:	3c 91       	ld	r19, X
    4afe:	40 e0       	ldi	r20, 0x00	; 0
    4b00:	50 e0       	ldi	r21, 0x00	; 0
    4b02:	b2 01       	movw	r22, r4
    4b04:	89 85       	ldd	r24, Y+9	; 0x09
    4b06:	9a 85       	ldd	r25, Y+10	; 0x0a
    4b08:	0e 94 c4 1f 	call	0x3f88	; 0x3f88 <_ZN4QEPU5writeEiii>
    4b0c:	f8 01       	movw	r30, r16
    4b0e:	22 81       	ldd	r18, Z+2	; 0x02
    4b10:	33 81       	ldd	r19, Z+3	; 0x03
    4b12:	41 e0       	ldi	r20, 0x01	; 1
    4b14:	50 e0       	ldi	r21, 0x00	; 0
    4b16:	b2 01       	movw	r22, r4
    4b18:	89 85       	ldd	r24, Y+9	; 0x09
    4b1a:	9a 85       	ldd	r25, Y+10	; 0x0a
    4b1c:	0e 94 c4 1f 	call	0x3f88	; 0x3f88 <_ZN4QEPU5writeEiii>
			break;
    4b20:	6f c5       	rjmp	.+2782   	; 0x5600 <_ZN4QEPU7executeEilll+0x12ca>
		case 0x2D: // Z GATE
			newthephi=gates.Z(read(op1,THE,false),read(op1,PHI,false));
    4b22:	20 e0       	ldi	r18, 0x00	; 0
    4b24:	41 e0       	ldi	r20, 0x01	; 1
    4b26:	50 e0       	ldi	r21, 0x00	; 0
    4b28:	b2 01       	movw	r22, r4
    4b2a:	89 85       	ldd	r24, Y+9	; 0x09
    4b2c:	9a 85       	ldd	r25, Y+10	; 0x0a
    4b2e:	0e 94 f1 1f 	call	0x3fe2	; 0x3fe2 <_ZN4QEPU4readEiib>
    4b32:	8c 01       	movw	r16, r24
    4b34:	20 e0       	ldi	r18, 0x00	; 0
    4b36:	40 e0       	ldi	r20, 0x00	; 0
    4b38:	50 e0       	ldi	r21, 0x00	; 0
    4b3a:	b2 01       	movw	r22, r4
    4b3c:	89 85       	ldd	r24, Y+9	; 0x09
    4b3e:	9a 85       	ldd	r25, Y+10	; 0x0a
    4b40:	0e 94 f1 1f 	call	0x3fe2	; 0x3fe2 <_ZN4QEPU4readEiib>
    4b44:	a8 01       	movw	r20, r16
    4b46:	bc 01       	movw	r22, r24
    4b48:	89 85       	ldd	r24, Y+9	; 0x09
    4b4a:	9a 85       	ldd	r25, Y+10	; 0x0a
    4b4c:	0a 96       	adiw	r24, 0x0a	; 10
    4b4e:	0e 94 36 0a 	call	0x146c	; 0x146c <_ZN5Gates1ZEii>
    4b52:	8c 01       	movw	r16, r24
			write(op1,THE,newthephi[0]);write(op1,PHI,newthephi[1]);
    4b54:	dc 01       	movw	r26, r24
    4b56:	2d 91       	ld	r18, X+
    4b58:	3c 91       	ld	r19, X
    4b5a:	40 e0       	ldi	r20, 0x00	; 0
    4b5c:	50 e0       	ldi	r21, 0x00	; 0
    4b5e:	b2 01       	movw	r22, r4
    4b60:	89 85       	ldd	r24, Y+9	; 0x09
    4b62:	9a 85       	ldd	r25, Y+10	; 0x0a
    4b64:	0e 94 c4 1f 	call	0x3f88	; 0x3f88 <_ZN4QEPU5writeEiii>
    4b68:	f8 01       	movw	r30, r16
    4b6a:	22 81       	ldd	r18, Z+2	; 0x02
    4b6c:	33 81       	ldd	r19, Z+3	; 0x03
    4b6e:	41 e0       	ldi	r20, 0x01	; 1
    4b70:	50 e0       	ldi	r21, 0x00	; 0
    4b72:	b2 01       	movw	r22, r4
    4b74:	89 85       	ldd	r24, Y+9	; 0x09
    4b76:	9a 85       	ldd	r25, Y+10	; 0x0a
    4b78:	0e 94 c4 1f 	call	0x3f88	; 0x3f88 <_ZN4QEPU5writeEiii>
			break;
    4b7c:	41 c5       	rjmp	.+2690   	; 0x5600 <_ZN4QEPU7executeEilll+0x12ca>
		case 0x2E: // H GATE
			newthephi=gates.H(read(op1,THE,false),read(op1,PHI,false));
    4b7e:	20 e0       	ldi	r18, 0x00	; 0
    4b80:	41 e0       	ldi	r20, 0x01	; 1
    4b82:	50 e0       	ldi	r21, 0x00	; 0
    4b84:	b2 01       	movw	r22, r4
    4b86:	89 85       	ldd	r24, Y+9	; 0x09
    4b88:	9a 85       	ldd	r25, Y+10	; 0x0a
    4b8a:	0e 94 f1 1f 	call	0x3fe2	; 0x3fe2 <_ZN4QEPU4readEiib>
    4b8e:	8c 01       	movw	r16, r24
    4b90:	20 e0       	ldi	r18, 0x00	; 0
    4b92:	40 e0       	ldi	r20, 0x00	; 0
    4b94:	50 e0       	ldi	r21, 0x00	; 0
    4b96:	b2 01       	movw	r22, r4
    4b98:	89 85       	ldd	r24, Y+9	; 0x09
    4b9a:	9a 85       	ldd	r25, Y+10	; 0x0a
    4b9c:	0e 94 f1 1f 	call	0x3fe2	; 0x3fe2 <_ZN4QEPU4readEiib>
    4ba0:	a8 01       	movw	r20, r16
    4ba2:	bc 01       	movw	r22, r24
    4ba4:	89 85       	ldd	r24, Y+9	; 0x09
    4ba6:	9a 85       	ldd	r25, Y+10	; 0x0a
    4ba8:	0a 96       	adiw	r24, 0x0a	; 10
    4baa:	0e 94 a0 0a 	call	0x1540	; 0x1540 <_ZN5Gates1HEii>
    4bae:	8c 01       	movw	r16, r24
			write(op1,THE,newthephi[0]);write(op1,PHI,newthephi[1]);
    4bb0:	dc 01       	movw	r26, r24
    4bb2:	2d 91       	ld	r18, X+
    4bb4:	3c 91       	ld	r19, X
    4bb6:	40 e0       	ldi	r20, 0x00	; 0
    4bb8:	50 e0       	ldi	r21, 0x00	; 0
    4bba:	b2 01       	movw	r22, r4
    4bbc:	89 85       	ldd	r24, Y+9	; 0x09
    4bbe:	9a 85       	ldd	r25, Y+10	; 0x0a
    4bc0:	0e 94 c4 1f 	call	0x3f88	; 0x3f88 <_ZN4QEPU5writeEiii>
    4bc4:	f8 01       	movw	r30, r16
    4bc6:	22 81       	ldd	r18, Z+2	; 0x02
    4bc8:	33 81       	ldd	r19, Z+3	; 0x03
    4bca:	41 e0       	ldi	r20, 0x01	; 1
    4bcc:	50 e0       	ldi	r21, 0x00	; 0
    4bce:	b2 01       	movw	r22, r4
    4bd0:	89 85       	ldd	r24, Y+9	; 0x09
    4bd2:	9a 85       	ldd	r25, Y+10	; 0x0a
    4bd4:	0e 94 c4 1f 	call	0x3f88	; 0x3f88 <_ZN4QEPU5writeEiii>
			break;
    4bd8:	13 c5       	rjmp	.+2598   	; 0x5600 <_ZN4QEPU7executeEilll+0x12ca>
		case 0x2F: // S GATE
			newthephi=gates.S(read(op1,THE,false),read(op1,PHI,false));
    4bda:	20 e0       	ldi	r18, 0x00	; 0
    4bdc:	41 e0       	ldi	r20, 0x01	; 1
    4bde:	50 e0       	ldi	r21, 0x00	; 0
    4be0:	b2 01       	movw	r22, r4
    4be2:	89 85       	ldd	r24, Y+9	; 0x09
    4be4:	9a 85       	ldd	r25, Y+10	; 0x0a
    4be6:	0e 94 f1 1f 	call	0x3fe2	; 0x3fe2 <_ZN4QEPU4readEiib>
    4bea:	8c 01       	movw	r16, r24
    4bec:	20 e0       	ldi	r18, 0x00	; 0
    4bee:	40 e0       	ldi	r20, 0x00	; 0
    4bf0:	50 e0       	ldi	r21, 0x00	; 0
    4bf2:	b2 01       	movw	r22, r4
    4bf4:	89 85       	ldd	r24, Y+9	; 0x09
    4bf6:	9a 85       	ldd	r25, Y+10	; 0x0a
    4bf8:	0e 94 f1 1f 	call	0x3fe2	; 0x3fe2 <_ZN4QEPU4readEiib>
    4bfc:	a8 01       	movw	r20, r16
    4bfe:	bc 01       	movw	r22, r24
    4c00:	89 85       	ldd	r24, Y+9	; 0x09
    4c02:	9a 85       	ldd	r25, Y+10	; 0x0a
    4c04:	0a 96       	adiw	r24, 0x0a	; 10
    4c06:	0e 94 0e 0b 	call	0x161c	; 0x161c <_ZN5Gates1SEii>
    4c0a:	8c 01       	movw	r16, r24
			write(op1,THE,newthephi[0]);write(op1,PHI,newthephi[1]);
    4c0c:	dc 01       	movw	r26, r24
    4c0e:	2d 91       	ld	r18, X+
    4c10:	3c 91       	ld	r19, X
    4c12:	40 e0       	ldi	r20, 0x00	; 0
    4c14:	50 e0       	ldi	r21, 0x00	; 0
    4c16:	b2 01       	movw	r22, r4
    4c18:	89 85       	ldd	r24, Y+9	; 0x09
    4c1a:	9a 85       	ldd	r25, Y+10	; 0x0a
    4c1c:	0e 94 c4 1f 	call	0x3f88	; 0x3f88 <_ZN4QEPU5writeEiii>
    4c20:	f8 01       	movw	r30, r16
    4c22:	22 81       	ldd	r18, Z+2	; 0x02
    4c24:	33 81       	ldd	r19, Z+3	; 0x03
    4c26:	41 e0       	ldi	r20, 0x01	; 1
    4c28:	50 e0       	ldi	r21, 0x00	; 0
    4c2a:	b2 01       	movw	r22, r4
    4c2c:	89 85       	ldd	r24, Y+9	; 0x09
    4c2e:	9a 85       	ldd	r25, Y+10	; 0x0a
    4c30:	0e 94 c4 1f 	call	0x3f88	; 0x3f88 <_ZN4QEPU5writeEiii>
			break;
    4c34:	e5 c4       	rjmp	.+2506   	; 0x5600 <_ZN4QEPU7executeEilll+0x12ca>
		case 0x30: // T GATE
			newthephi=gates.T(read(op1,THE,false),read(op1,PHI,false));
    4c36:	20 e0       	ldi	r18, 0x00	; 0
    4c38:	41 e0       	ldi	r20, 0x01	; 1
    4c3a:	50 e0       	ldi	r21, 0x00	; 0
    4c3c:	b2 01       	movw	r22, r4
    4c3e:	89 85       	ldd	r24, Y+9	; 0x09
    4c40:	9a 85       	ldd	r25, Y+10	; 0x0a
    4c42:	0e 94 f1 1f 	call	0x3fe2	; 0x3fe2 <_ZN4QEPU4readEiib>
    4c46:	8c 01       	movw	r16, r24
    4c48:	20 e0       	ldi	r18, 0x00	; 0
    4c4a:	40 e0       	ldi	r20, 0x00	; 0
    4c4c:	50 e0       	ldi	r21, 0x00	; 0
    4c4e:	b2 01       	movw	r22, r4
    4c50:	89 85       	ldd	r24, Y+9	; 0x09
    4c52:	9a 85       	ldd	r25, Y+10	; 0x0a
    4c54:	0e 94 f1 1f 	call	0x3fe2	; 0x3fe2 <_ZN4QEPU4readEiib>
    4c58:	a8 01       	movw	r20, r16
    4c5a:	bc 01       	movw	r22, r24
    4c5c:	89 85       	ldd	r24, Y+9	; 0x09
    4c5e:	9a 85       	ldd	r25, Y+10	; 0x0a
    4c60:	0a 96       	adiw	r24, 0x0a	; 10
    4c62:	0e 94 78 0b 	call	0x16f0	; 0x16f0 <_ZN5Gates1TEii>
    4c66:	8c 01       	movw	r16, r24
			write(op1,THE,newthephi[0]);write(op1,PHI,newthephi[1]);
    4c68:	dc 01       	movw	r26, r24
    4c6a:	2d 91       	ld	r18, X+
    4c6c:	3c 91       	ld	r19, X
    4c6e:	40 e0       	ldi	r20, 0x00	; 0
    4c70:	50 e0       	ldi	r21, 0x00	; 0
    4c72:	b2 01       	movw	r22, r4
    4c74:	89 85       	ldd	r24, Y+9	; 0x09
    4c76:	9a 85       	ldd	r25, Y+10	; 0x0a
    4c78:	0e 94 c4 1f 	call	0x3f88	; 0x3f88 <_ZN4QEPU5writeEiii>
    4c7c:	f8 01       	movw	r30, r16
    4c7e:	22 81       	ldd	r18, Z+2	; 0x02
    4c80:	33 81       	ldd	r19, Z+3	; 0x03
    4c82:	41 e0       	ldi	r20, 0x01	; 1
    4c84:	50 e0       	ldi	r21, 0x00	; 0
    4c86:	b2 01       	movw	r22, r4
    4c88:	89 85       	ldd	r24, Y+9	; 0x09
    4c8a:	9a 85       	ldd	r25, Y+10	; 0x0a
    4c8c:	0e 94 c4 1f 	call	0x3f88	; 0x3f88 <_ZN4QEPU5writeEiii>
			break;
    4c90:	b7 c4       	rjmp	.+2414   	; 0x5600 <_ZN4QEPU7executeEilll+0x12ca>
		case 0x31: // ROTATE X GATE
			newthephi=gates.ROX(read(op1,THE,false),read(op1,PHI,false),op2);
    4c92:	20 e0       	ldi	r18, 0x00	; 0
    4c94:	41 e0       	ldi	r20, 0x01	; 1
    4c96:	50 e0       	ldi	r21, 0x00	; 0
    4c98:	b2 01       	movw	r22, r4
    4c9a:	89 85       	ldd	r24, Y+9	; 0x09
    4c9c:	9a 85       	ldd	r25, Y+10	; 0x0a
    4c9e:	0e 94 f1 1f 	call	0x3fe2	; 0x3fe2 <_ZN4QEPU4readEiib>
    4ca2:	8c 01       	movw	r16, r24
    4ca4:	20 e0       	ldi	r18, 0x00	; 0
    4ca6:	40 e0       	ldi	r20, 0x00	; 0
    4ca8:	50 e0       	ldi	r21, 0x00	; 0
    4caa:	b2 01       	movw	r22, r4
    4cac:	89 85       	ldd	r24, Y+9	; 0x09
    4cae:	9a 85       	ldd	r25, Y+10	; 0x0a
    4cb0:	0e 94 f1 1f 	call	0x3fe2	; 0x3fe2 <_ZN4QEPU4readEiib>
    4cb4:	29 81       	ldd	r18, Y+1	; 0x01
    4cb6:	3a 81       	ldd	r19, Y+2	; 0x02
    4cb8:	a8 01       	movw	r20, r16
    4cba:	bc 01       	movw	r22, r24
    4cbc:	89 85       	ldd	r24, Y+9	; 0x09
    4cbe:	9a 85       	ldd	r25, Y+10	; 0x0a
    4cc0:	0a 96       	adiw	r24, 0x0a	; 10
    4cc2:	0e 94 f3 12 	call	0x25e6	; 0x25e6 <_ZN5Gates3ROXEiii>
    4cc6:	8c 01       	movw	r16, r24
			write(op1,THE,newthephi[0]); write(op1,PHI,newthephi[1]);
    4cc8:	dc 01       	movw	r26, r24
    4cca:	2d 91       	ld	r18, X+
    4ccc:	3c 91       	ld	r19, X
    4cce:	40 e0       	ldi	r20, 0x00	; 0
    4cd0:	50 e0       	ldi	r21, 0x00	; 0
    4cd2:	b2 01       	movw	r22, r4
    4cd4:	89 85       	ldd	r24, Y+9	; 0x09
    4cd6:	9a 85       	ldd	r25, Y+10	; 0x0a
    4cd8:	0e 94 c4 1f 	call	0x3f88	; 0x3f88 <_ZN4QEPU5writeEiii>
    4cdc:	f8 01       	movw	r30, r16
    4cde:	22 81       	ldd	r18, Z+2	; 0x02
    4ce0:	33 81       	ldd	r19, Z+3	; 0x03
    4ce2:	41 e0       	ldi	r20, 0x01	; 1
    4ce4:	50 e0       	ldi	r21, 0x00	; 0
    4ce6:	b2 01       	movw	r22, r4
    4ce8:	89 85       	ldd	r24, Y+9	; 0x09
    4cea:	9a 85       	ldd	r25, Y+10	; 0x0a
    4cec:	0e 94 c4 1f 	call	0x3f88	; 0x3f88 <_ZN4QEPU5writeEiii>
			break;
    4cf0:	87 c4       	rjmp	.+2318   	; 0x5600 <_ZN4QEPU7executeEilll+0x12ca>
		case 0x32: // ROTATE Y GATE
			newthephi=gates.ROY(read(op1,THE,false),read(op1,PHI,false),op2);
    4cf2:	20 e0       	ldi	r18, 0x00	; 0
    4cf4:	41 e0       	ldi	r20, 0x01	; 1
    4cf6:	50 e0       	ldi	r21, 0x00	; 0
    4cf8:	b2 01       	movw	r22, r4
    4cfa:	89 85       	ldd	r24, Y+9	; 0x09
    4cfc:	9a 85       	ldd	r25, Y+10	; 0x0a
    4cfe:	0e 94 f1 1f 	call	0x3fe2	; 0x3fe2 <_ZN4QEPU4readEiib>
    4d02:	8c 01       	movw	r16, r24
    4d04:	20 e0       	ldi	r18, 0x00	; 0
    4d06:	40 e0       	ldi	r20, 0x00	; 0
    4d08:	50 e0       	ldi	r21, 0x00	; 0
    4d0a:	b2 01       	movw	r22, r4
    4d0c:	89 85       	ldd	r24, Y+9	; 0x09
    4d0e:	9a 85       	ldd	r25, Y+10	; 0x0a
    4d10:	0e 94 f1 1f 	call	0x3fe2	; 0x3fe2 <_ZN4QEPU4readEiib>
    4d14:	29 81       	ldd	r18, Y+1	; 0x01
    4d16:	3a 81       	ldd	r19, Y+2	; 0x02
    4d18:	a8 01       	movw	r20, r16
    4d1a:	bc 01       	movw	r22, r24
    4d1c:	89 85       	ldd	r24, Y+9	; 0x09
    4d1e:	9a 85       	ldd	r25, Y+10	; 0x0a
    4d20:	0a 96       	adiw	r24, 0x0a	; 10
    4d22:	0e 94 92 13 	call	0x2724	; 0x2724 <_ZN5Gates3ROYEiii>
    4d26:	8c 01       	movw	r16, r24
			write(op1,THE,newthephi[0]); write(op1,PHI,newthephi[1]);
    4d28:	dc 01       	movw	r26, r24
    4d2a:	2d 91       	ld	r18, X+
    4d2c:	3c 91       	ld	r19, X
    4d2e:	40 e0       	ldi	r20, 0x00	; 0
    4d30:	50 e0       	ldi	r21, 0x00	; 0
    4d32:	b2 01       	movw	r22, r4
    4d34:	89 85       	ldd	r24, Y+9	; 0x09
    4d36:	9a 85       	ldd	r25, Y+10	; 0x0a
    4d38:	0e 94 c4 1f 	call	0x3f88	; 0x3f88 <_ZN4QEPU5writeEiii>
    4d3c:	f8 01       	movw	r30, r16
    4d3e:	22 81       	ldd	r18, Z+2	; 0x02
    4d40:	33 81       	ldd	r19, Z+3	; 0x03
    4d42:	41 e0       	ldi	r20, 0x01	; 1
    4d44:	50 e0       	ldi	r21, 0x00	; 0
    4d46:	b2 01       	movw	r22, r4
    4d48:	89 85       	ldd	r24, Y+9	; 0x09
    4d4a:	9a 85       	ldd	r25, Y+10	; 0x0a
    4d4c:	0e 94 c4 1f 	call	0x3f88	; 0x3f88 <_ZN4QEPU5writeEiii>
			break;
    4d50:	57 c4       	rjmp	.+2222   	; 0x5600 <_ZN4QEPU7executeEilll+0x12ca>
		case 0x33: // ROTATE Z GATE
			newthephi=gates.ROZ(read(op1,THE,false),read(op1,PHI,false),op2);
    4d52:	20 e0       	ldi	r18, 0x00	; 0
    4d54:	41 e0       	ldi	r20, 0x01	; 1
    4d56:	50 e0       	ldi	r21, 0x00	; 0
    4d58:	b2 01       	movw	r22, r4
    4d5a:	89 85       	ldd	r24, Y+9	; 0x09
    4d5c:	9a 85       	ldd	r25, Y+10	; 0x0a
    4d5e:	0e 94 f1 1f 	call	0x3fe2	; 0x3fe2 <_ZN4QEPU4readEiib>
    4d62:	8c 01       	movw	r16, r24
    4d64:	20 e0       	ldi	r18, 0x00	; 0
    4d66:	40 e0       	ldi	r20, 0x00	; 0
    4d68:	50 e0       	ldi	r21, 0x00	; 0
    4d6a:	b2 01       	movw	r22, r4
    4d6c:	89 85       	ldd	r24, Y+9	; 0x09
    4d6e:	9a 85       	ldd	r25, Y+10	; 0x0a
    4d70:	0e 94 f1 1f 	call	0x3fe2	; 0x3fe2 <_ZN4QEPU4readEiib>
    4d74:	29 81       	ldd	r18, Y+1	; 0x01
    4d76:	3a 81       	ldd	r19, Y+2	; 0x02
    4d78:	a8 01       	movw	r20, r16
    4d7a:	bc 01       	movw	r22, r24
    4d7c:	89 85       	ldd	r24, Y+9	; 0x09
    4d7e:	9a 85       	ldd	r25, Y+10	; 0x0a
    4d80:	0a 96       	adiw	r24, 0x0a	; 10
    4d82:	0e 94 2e 14 	call	0x285c	; 0x285c <_ZN5Gates3ROZEiii>
    4d86:	8c 01       	movw	r16, r24
			write(op1,THE,newthephi[0]); write(op1,PHI,newthephi[1]);
    4d88:	dc 01       	movw	r26, r24
    4d8a:	2d 91       	ld	r18, X+
    4d8c:	3c 91       	ld	r19, X
    4d8e:	40 e0       	ldi	r20, 0x00	; 0
    4d90:	50 e0       	ldi	r21, 0x00	; 0
    4d92:	b2 01       	movw	r22, r4
    4d94:	89 85       	ldd	r24, Y+9	; 0x09
    4d96:	9a 85       	ldd	r25, Y+10	; 0x0a
    4d98:	0e 94 c4 1f 	call	0x3f88	; 0x3f88 <_ZN4QEPU5writeEiii>
    4d9c:	f8 01       	movw	r30, r16
    4d9e:	22 81       	ldd	r18, Z+2	; 0x02
    4da0:	33 81       	ldd	r19, Z+3	; 0x03
    4da2:	41 e0       	ldi	r20, 0x01	; 1
    4da4:	50 e0       	ldi	r21, 0x00	; 0
    4da6:	b2 01       	movw	r22, r4
    4da8:	89 85       	ldd	r24, Y+9	; 0x09
    4daa:	9a 85       	ldd	r25, Y+10	; 0x0a
    4dac:	0e 94 c4 1f 	call	0x3f88	; 0x3f88 <_ZN4QEPU5writeEiii>
			break;
    4db0:	27 c4       	rjmp	.+2126   	; 0x5600 <_ZN4QEPU7executeEilll+0x12ca>
		//2 QUBIT GATES -
		case 0x34: // CNOT GATE
			newthephi=gates.CNO(read(op1,THE,false),read(op1,PHI,false),read(op2,THE,false),read(op2,PHI,false));
    4db2:	20 e0       	ldi	r18, 0x00	; 0
    4db4:	41 e0       	ldi	r20, 0x01	; 1
    4db6:	50 e0       	ldi	r21, 0x00	; 0
    4db8:	69 81       	ldd	r22, Y+1	; 0x01
    4dba:	7a 81       	ldd	r23, Y+2	; 0x02
    4dbc:	89 85       	ldd	r24, Y+9	; 0x09
    4dbe:	9a 85       	ldd	r25, Y+10	; 0x0a
    4dc0:	0e 94 f1 1f 	call	0x3fe2	; 0x3fe2 <_ZN4QEPU4readEiib>
    4dc4:	8c 01       	movw	r16, r24
    4dc6:	20 e0       	ldi	r18, 0x00	; 0
    4dc8:	40 e0       	ldi	r20, 0x00	; 0
    4dca:	50 e0       	ldi	r21, 0x00	; 0
    4dcc:	69 81       	ldd	r22, Y+1	; 0x01
    4dce:	7a 81       	ldd	r23, Y+2	; 0x02
    4dd0:	89 85       	ldd	r24, Y+9	; 0x09
    4dd2:	9a 85       	ldd	r25, Y+10	; 0x0a
    4dd4:	0e 94 f1 1f 	call	0x3fe2	; 0x3fe2 <_ZN4QEPU4readEiib>
    4dd8:	6c 01       	movw	r12, r24
    4dda:	20 e0       	ldi	r18, 0x00	; 0
    4ddc:	41 e0       	ldi	r20, 0x01	; 1
    4dde:	50 e0       	ldi	r21, 0x00	; 0
    4de0:	b2 01       	movw	r22, r4
    4de2:	89 85       	ldd	r24, Y+9	; 0x09
    4de4:	9a 85       	ldd	r25, Y+10	; 0x0a
    4de6:	0e 94 f1 1f 	call	0x3fe2	; 0x3fe2 <_ZN4QEPU4readEiib>
    4dea:	7c 01       	movw	r14, r24
    4dec:	20 e0       	ldi	r18, 0x00	; 0
    4dee:	40 e0       	ldi	r20, 0x00	; 0
    4df0:	50 e0       	ldi	r21, 0x00	; 0
    4df2:	b2 01       	movw	r22, r4
    4df4:	89 85       	ldd	r24, Y+9	; 0x09
    4df6:	9a 85       	ldd	r25, Y+10	; 0x0a
    4df8:	0e 94 f1 1f 	call	0x3fe2	; 0x3fe2 <_ZN4QEPU4readEiib>
    4dfc:	96 01       	movw	r18, r12
    4dfe:	a7 01       	movw	r20, r14
    4e00:	bc 01       	movw	r22, r24
    4e02:	89 85       	ldd	r24, Y+9	; 0x09
    4e04:	9a 85       	ldd	r25, Y+10	; 0x0a
    4e06:	0a 96       	adiw	r24, 0x0a	; 10
    4e08:	0e 94 e1 0b 	call	0x17c2	; 0x17c2 <_ZN5Gates3CNOEiiii>
    4e0c:	8c 01       	movw	r16, r24
			write(op1,THE,newthephi[0]); write(op1,PHI,newthephi[1]);
    4e0e:	dc 01       	movw	r26, r24
    4e10:	2d 91       	ld	r18, X+
    4e12:	3c 91       	ld	r19, X
    4e14:	40 e0       	ldi	r20, 0x00	; 0
    4e16:	50 e0       	ldi	r21, 0x00	; 0
    4e18:	b2 01       	movw	r22, r4
    4e1a:	89 85       	ldd	r24, Y+9	; 0x09
    4e1c:	9a 85       	ldd	r25, Y+10	; 0x0a
    4e1e:	0e 94 c4 1f 	call	0x3f88	; 0x3f88 <_ZN4QEPU5writeEiii>
    4e22:	f8 01       	movw	r30, r16
    4e24:	22 81       	ldd	r18, Z+2	; 0x02
    4e26:	33 81       	ldd	r19, Z+3	; 0x03
    4e28:	41 e0       	ldi	r20, 0x01	; 1
    4e2a:	50 e0       	ldi	r21, 0x00	; 0
    4e2c:	b2 01       	movw	r22, r4
    4e2e:	89 85       	ldd	r24, Y+9	; 0x09
    4e30:	9a 85       	ldd	r25, Y+10	; 0x0a
    4e32:	0e 94 c4 1f 	call	0x3f88	; 0x3f88 <_ZN4QEPU5writeEiii>
			write(op2,THE,newthephi[2]); write(op2,PHI,newthephi[3]);
    4e36:	d8 01       	movw	r26, r16
    4e38:	14 96       	adiw	r26, 0x04	; 4
    4e3a:	2d 91       	ld	r18, X+
    4e3c:	3c 91       	ld	r19, X
    4e3e:	15 97       	sbiw	r26, 0x05	; 5
    4e40:	40 e0       	ldi	r20, 0x00	; 0
    4e42:	50 e0       	ldi	r21, 0x00	; 0
    4e44:	69 81       	ldd	r22, Y+1	; 0x01
    4e46:	7a 81       	ldd	r23, Y+2	; 0x02
    4e48:	89 85       	ldd	r24, Y+9	; 0x09
    4e4a:	9a 85       	ldd	r25, Y+10	; 0x0a
    4e4c:	0e 94 c4 1f 	call	0x3f88	; 0x3f88 <_ZN4QEPU5writeEiii>
    4e50:	f8 01       	movw	r30, r16
    4e52:	26 81       	ldd	r18, Z+6	; 0x06
    4e54:	37 81       	ldd	r19, Z+7	; 0x07
    4e56:	41 e0       	ldi	r20, 0x01	; 1
    4e58:	50 e0       	ldi	r21, 0x00	; 0
    4e5a:	69 81       	ldd	r22, Y+1	; 0x01
    4e5c:	7a 81       	ldd	r23, Y+2	; 0x02
    4e5e:	89 85       	ldd	r24, Y+9	; 0x09
    4e60:	9a 85       	ldd	r25, Y+10	; 0x0a
    4e62:	0e 94 c4 1f 	call	0x3f88	; 0x3f88 <_ZN4QEPU5writeEiii>
			break;
    4e66:	cc c3       	rjmp	.+1944   	; 0x5600 <_ZN4QEPU7executeEilll+0x12ca>
		case 0x35: // CSIGN GATE
			newthephi=gates.CSI(read(op1,THE,false),read(op1,PHI,false),read(op2,THE,false),read(op2,PHI,false));
    4e68:	20 e0       	ldi	r18, 0x00	; 0
    4e6a:	41 e0       	ldi	r20, 0x01	; 1
    4e6c:	50 e0       	ldi	r21, 0x00	; 0
    4e6e:	69 81       	ldd	r22, Y+1	; 0x01
    4e70:	7a 81       	ldd	r23, Y+2	; 0x02
    4e72:	89 85       	ldd	r24, Y+9	; 0x09
    4e74:	9a 85       	ldd	r25, Y+10	; 0x0a
    4e76:	0e 94 f1 1f 	call	0x3fe2	; 0x3fe2 <_ZN4QEPU4readEiib>
    4e7a:	8c 01       	movw	r16, r24
    4e7c:	20 e0       	ldi	r18, 0x00	; 0
    4e7e:	40 e0       	ldi	r20, 0x00	; 0
    4e80:	50 e0       	ldi	r21, 0x00	; 0
    4e82:	69 81       	ldd	r22, Y+1	; 0x01
    4e84:	7a 81       	ldd	r23, Y+2	; 0x02
    4e86:	89 85       	ldd	r24, Y+9	; 0x09
    4e88:	9a 85       	ldd	r25, Y+10	; 0x0a
    4e8a:	0e 94 f1 1f 	call	0x3fe2	; 0x3fe2 <_ZN4QEPU4readEiib>
    4e8e:	6c 01       	movw	r12, r24
    4e90:	20 e0       	ldi	r18, 0x00	; 0
    4e92:	41 e0       	ldi	r20, 0x01	; 1
    4e94:	50 e0       	ldi	r21, 0x00	; 0
    4e96:	b2 01       	movw	r22, r4
    4e98:	89 85       	ldd	r24, Y+9	; 0x09
    4e9a:	9a 85       	ldd	r25, Y+10	; 0x0a
    4e9c:	0e 94 f1 1f 	call	0x3fe2	; 0x3fe2 <_ZN4QEPU4readEiib>
    4ea0:	7c 01       	movw	r14, r24
    4ea2:	20 e0       	ldi	r18, 0x00	; 0
    4ea4:	40 e0       	ldi	r20, 0x00	; 0
    4ea6:	50 e0       	ldi	r21, 0x00	; 0
    4ea8:	b2 01       	movw	r22, r4
    4eaa:	89 85       	ldd	r24, Y+9	; 0x09
    4eac:	9a 85       	ldd	r25, Y+10	; 0x0a
    4eae:	0e 94 f1 1f 	call	0x3fe2	; 0x3fe2 <_ZN4QEPU4readEiib>
    4eb2:	96 01       	movw	r18, r12
    4eb4:	a7 01       	movw	r20, r14
    4eb6:	bc 01       	movw	r22, r24
    4eb8:	89 85       	ldd	r24, Y+9	; 0x09
    4eba:	9a 85       	ldd	r25, Y+10	; 0x0a
    4ebc:	0a 96       	adiw	r24, 0x0a	; 10
    4ebe:	0e 94 e3 0c 	call	0x19c6	; 0x19c6 <_ZN5Gates3CSIEiiii>
    4ec2:	8c 01       	movw	r16, r24
			write(op1,THE,newthephi[0]); write(op1,PHI,newthephi[1]);
    4ec4:	dc 01       	movw	r26, r24
    4ec6:	2d 91       	ld	r18, X+
    4ec8:	3c 91       	ld	r19, X
    4eca:	40 e0       	ldi	r20, 0x00	; 0
    4ecc:	50 e0       	ldi	r21, 0x00	; 0
    4ece:	b2 01       	movw	r22, r4
    4ed0:	89 85       	ldd	r24, Y+9	; 0x09
    4ed2:	9a 85       	ldd	r25, Y+10	; 0x0a
    4ed4:	0e 94 c4 1f 	call	0x3f88	; 0x3f88 <_ZN4QEPU5writeEiii>
    4ed8:	f8 01       	movw	r30, r16
    4eda:	22 81       	ldd	r18, Z+2	; 0x02
    4edc:	33 81       	ldd	r19, Z+3	; 0x03
    4ede:	41 e0       	ldi	r20, 0x01	; 1
    4ee0:	50 e0       	ldi	r21, 0x00	; 0
    4ee2:	b2 01       	movw	r22, r4
    4ee4:	89 85       	ldd	r24, Y+9	; 0x09
    4ee6:	9a 85       	ldd	r25, Y+10	; 0x0a
    4ee8:	0e 94 c4 1f 	call	0x3f88	; 0x3f88 <_ZN4QEPU5writeEiii>
			write(op2,THE,newthephi[2]); write(op2,PHI,newthephi[3]);
    4eec:	d8 01       	movw	r26, r16
    4eee:	14 96       	adiw	r26, 0x04	; 4
    4ef0:	2d 91       	ld	r18, X+
    4ef2:	3c 91       	ld	r19, X
    4ef4:	15 97       	sbiw	r26, 0x05	; 5
    4ef6:	40 e0       	ldi	r20, 0x00	; 0
    4ef8:	50 e0       	ldi	r21, 0x00	; 0
    4efa:	69 81       	ldd	r22, Y+1	; 0x01
    4efc:	7a 81       	ldd	r23, Y+2	; 0x02
    4efe:	89 85       	ldd	r24, Y+9	; 0x09
    4f00:	9a 85       	ldd	r25, Y+10	; 0x0a
    4f02:	0e 94 c4 1f 	call	0x3f88	; 0x3f88 <_ZN4QEPU5writeEiii>
    4f06:	f8 01       	movw	r30, r16
    4f08:	26 81       	ldd	r18, Z+6	; 0x06
    4f0a:	37 81       	ldd	r19, Z+7	; 0x07
    4f0c:	41 e0       	ldi	r20, 0x01	; 1
    4f0e:	50 e0       	ldi	r21, 0x00	; 0
    4f10:	69 81       	ldd	r22, Y+1	; 0x01
    4f12:	7a 81       	ldd	r23, Y+2	; 0x02
    4f14:	89 85       	ldd	r24, Y+9	; 0x09
    4f16:	9a 85       	ldd	r25, Y+10	; 0x0a
    4f18:	0e 94 c4 1f 	call	0x3f88	; 0x3f88 <_ZN4QEPU5writeEiii>
			break;
    4f1c:	71 c3       	rjmp	.+1762   	; 0x5600 <_ZN4QEPU7executeEilll+0x12ca>
		case 0x36: // SWAP GATE
			newthephi=gates.SWA(read(op1,THE,false),read(op1,PHI,false),read(op2,THE,false),read(op2,PHI,false));
    4f1e:	20 e0       	ldi	r18, 0x00	; 0
    4f20:	41 e0       	ldi	r20, 0x01	; 1
    4f22:	50 e0       	ldi	r21, 0x00	; 0
    4f24:	69 81       	ldd	r22, Y+1	; 0x01
    4f26:	7a 81       	ldd	r23, Y+2	; 0x02
    4f28:	89 85       	ldd	r24, Y+9	; 0x09
    4f2a:	9a 85       	ldd	r25, Y+10	; 0x0a
    4f2c:	0e 94 f1 1f 	call	0x3fe2	; 0x3fe2 <_ZN4QEPU4readEiib>
    4f30:	8c 01       	movw	r16, r24
    4f32:	20 e0       	ldi	r18, 0x00	; 0
    4f34:	40 e0       	ldi	r20, 0x00	; 0
    4f36:	50 e0       	ldi	r21, 0x00	; 0
    4f38:	69 81       	ldd	r22, Y+1	; 0x01
    4f3a:	7a 81       	ldd	r23, Y+2	; 0x02
    4f3c:	89 85       	ldd	r24, Y+9	; 0x09
    4f3e:	9a 85       	ldd	r25, Y+10	; 0x0a
    4f40:	0e 94 f1 1f 	call	0x3fe2	; 0x3fe2 <_ZN4QEPU4readEiib>
    4f44:	6c 01       	movw	r12, r24
    4f46:	20 e0       	ldi	r18, 0x00	; 0
    4f48:	41 e0       	ldi	r20, 0x01	; 1
    4f4a:	50 e0       	ldi	r21, 0x00	; 0
    4f4c:	b2 01       	movw	r22, r4
    4f4e:	89 85       	ldd	r24, Y+9	; 0x09
    4f50:	9a 85       	ldd	r25, Y+10	; 0x0a
    4f52:	0e 94 f1 1f 	call	0x3fe2	; 0x3fe2 <_ZN4QEPU4readEiib>
    4f56:	7c 01       	movw	r14, r24
    4f58:	20 e0       	ldi	r18, 0x00	; 0
    4f5a:	40 e0       	ldi	r20, 0x00	; 0
    4f5c:	50 e0       	ldi	r21, 0x00	; 0
    4f5e:	b2 01       	movw	r22, r4
    4f60:	89 85       	ldd	r24, Y+9	; 0x09
    4f62:	9a 85       	ldd	r25, Y+10	; 0x0a
    4f64:	0e 94 f1 1f 	call	0x3fe2	; 0x3fe2 <_ZN4QEPU4readEiib>
    4f68:	96 01       	movw	r18, r12
    4f6a:	a7 01       	movw	r20, r14
    4f6c:	bc 01       	movw	r22, r24
    4f6e:	89 85       	ldd	r24, Y+9	; 0x09
    4f70:	9a 85       	ldd	r25, Y+10	; 0x0a
    4f72:	0a 96       	adiw	r24, 0x0a	; 10
    4f74:	0e 94 e5 0d 	call	0x1bca	; 0x1bca <_ZN5Gates3SWAEiiii>
    4f78:	8c 01       	movw	r16, r24
			write(op1,THE,newthephi[0]); write(op1,PHI,newthephi[1]);
    4f7a:	dc 01       	movw	r26, r24
    4f7c:	2d 91       	ld	r18, X+
    4f7e:	3c 91       	ld	r19, X
    4f80:	40 e0       	ldi	r20, 0x00	; 0
    4f82:	50 e0       	ldi	r21, 0x00	; 0
    4f84:	b2 01       	movw	r22, r4
    4f86:	89 85       	ldd	r24, Y+9	; 0x09
    4f88:	9a 85       	ldd	r25, Y+10	; 0x0a
    4f8a:	0e 94 c4 1f 	call	0x3f88	; 0x3f88 <_ZN4QEPU5writeEiii>
    4f8e:	f8 01       	movw	r30, r16
    4f90:	22 81       	ldd	r18, Z+2	; 0x02
    4f92:	33 81       	ldd	r19, Z+3	; 0x03
    4f94:	41 e0       	ldi	r20, 0x01	; 1
    4f96:	50 e0       	ldi	r21, 0x00	; 0
    4f98:	b2 01       	movw	r22, r4
    4f9a:	89 85       	ldd	r24, Y+9	; 0x09
    4f9c:	9a 85       	ldd	r25, Y+10	; 0x0a
    4f9e:	0e 94 c4 1f 	call	0x3f88	; 0x3f88 <_ZN4QEPU5writeEiii>
			write(op2,THE,newthephi[2]); write(op2,PHI,newthephi[3]);
    4fa2:	d8 01       	movw	r26, r16
    4fa4:	14 96       	adiw	r26, 0x04	; 4
    4fa6:	2d 91       	ld	r18, X+
    4fa8:	3c 91       	ld	r19, X
    4faa:	15 97       	sbiw	r26, 0x05	; 5
    4fac:	40 e0       	ldi	r20, 0x00	; 0
    4fae:	50 e0       	ldi	r21, 0x00	; 0
    4fb0:	69 81       	ldd	r22, Y+1	; 0x01
    4fb2:	7a 81       	ldd	r23, Y+2	; 0x02
    4fb4:	89 85       	ldd	r24, Y+9	; 0x09
    4fb6:	9a 85       	ldd	r25, Y+10	; 0x0a
    4fb8:	0e 94 c4 1f 	call	0x3f88	; 0x3f88 <_ZN4QEPU5writeEiii>
    4fbc:	f8 01       	movw	r30, r16
    4fbe:	26 81       	ldd	r18, Z+6	; 0x06
    4fc0:	37 81       	ldd	r19, Z+7	; 0x07
    4fc2:	41 e0       	ldi	r20, 0x01	; 1
    4fc4:	50 e0       	ldi	r21, 0x00	; 0
    4fc6:	69 81       	ldd	r22, Y+1	; 0x01
    4fc8:	7a 81       	ldd	r23, Y+2	; 0x02
    4fca:	89 85       	ldd	r24, Y+9	; 0x09
    4fcc:	9a 85       	ldd	r25, Y+10	; 0x0a
    4fce:	0e 94 c4 1f 	call	0x3f88	; 0x3f88 <_ZN4QEPU5writeEiii>
			break;
    4fd2:	16 c3       	rjmp	.+1580   	; 0x5600 <_ZN4QEPU7executeEilll+0x12ca>
		case 0x37: // INCREMENT GATE
			newthephi=gates.INC(read(op1,THE,false),read(op1,PHI,false),read(op2,THE,false),read(op2,PHI,false));
    4fd4:	20 e0       	ldi	r18, 0x00	; 0
    4fd6:	41 e0       	ldi	r20, 0x01	; 1
    4fd8:	50 e0       	ldi	r21, 0x00	; 0
    4fda:	69 81       	ldd	r22, Y+1	; 0x01
    4fdc:	7a 81       	ldd	r23, Y+2	; 0x02
    4fde:	89 85       	ldd	r24, Y+9	; 0x09
    4fe0:	9a 85       	ldd	r25, Y+10	; 0x0a
    4fe2:	0e 94 f1 1f 	call	0x3fe2	; 0x3fe2 <_ZN4QEPU4readEiib>
    4fe6:	8c 01       	movw	r16, r24
    4fe8:	20 e0       	ldi	r18, 0x00	; 0
    4fea:	40 e0       	ldi	r20, 0x00	; 0
    4fec:	50 e0       	ldi	r21, 0x00	; 0
    4fee:	69 81       	ldd	r22, Y+1	; 0x01
    4ff0:	7a 81       	ldd	r23, Y+2	; 0x02
    4ff2:	89 85       	ldd	r24, Y+9	; 0x09
    4ff4:	9a 85       	ldd	r25, Y+10	; 0x0a
    4ff6:	0e 94 f1 1f 	call	0x3fe2	; 0x3fe2 <_ZN4QEPU4readEiib>
    4ffa:	6c 01       	movw	r12, r24
    4ffc:	20 e0       	ldi	r18, 0x00	; 0
    4ffe:	41 e0       	ldi	r20, 0x01	; 1
    5000:	50 e0       	ldi	r21, 0x00	; 0
    5002:	b2 01       	movw	r22, r4
    5004:	89 85       	ldd	r24, Y+9	; 0x09
    5006:	9a 85       	ldd	r25, Y+10	; 0x0a
    5008:	0e 94 f1 1f 	call	0x3fe2	; 0x3fe2 <_ZN4QEPU4readEiib>
    500c:	7c 01       	movw	r14, r24
    500e:	20 e0       	ldi	r18, 0x00	; 0
    5010:	40 e0       	ldi	r20, 0x00	; 0
    5012:	50 e0       	ldi	r21, 0x00	; 0
    5014:	b2 01       	movw	r22, r4
    5016:	89 85       	ldd	r24, Y+9	; 0x09
    5018:	9a 85       	ldd	r25, Y+10	; 0x0a
    501a:	0e 94 f1 1f 	call	0x3fe2	; 0x3fe2 <_ZN4QEPU4readEiib>
    501e:	96 01       	movw	r18, r12
    5020:	a7 01       	movw	r20, r14
    5022:	bc 01       	movw	r22, r24
    5024:	89 85       	ldd	r24, Y+9	; 0x09
    5026:	9a 85       	ldd	r25, Y+10	; 0x0a
    5028:	0a 96       	adiw	r24, 0x0a	; 10
    502a:	0e 94 e7 0e 	call	0x1dce	; 0x1dce <_ZN5Gates3INCEiiii>
    502e:	8c 01       	movw	r16, r24
			write(op1,THE,newthephi[0]); write(op1,PHI,newthephi[1]);
    5030:	dc 01       	movw	r26, r24
    5032:	2d 91       	ld	r18, X+
    5034:	3c 91       	ld	r19, X
    5036:	40 e0       	ldi	r20, 0x00	; 0
    5038:	50 e0       	ldi	r21, 0x00	; 0
    503a:	b2 01       	movw	r22, r4
    503c:	89 85       	ldd	r24, Y+9	; 0x09
    503e:	9a 85       	ldd	r25, Y+10	; 0x0a
    5040:	0e 94 c4 1f 	call	0x3f88	; 0x3f88 <_ZN4QEPU5writeEiii>
    5044:	f8 01       	movw	r30, r16
    5046:	22 81       	ldd	r18, Z+2	; 0x02
    5048:	33 81       	ldd	r19, Z+3	; 0x03
    504a:	41 e0       	ldi	r20, 0x01	; 1
    504c:	50 e0       	ldi	r21, 0x00	; 0
    504e:	b2 01       	movw	r22, r4
    5050:	89 85       	ldd	r24, Y+9	; 0x09
    5052:	9a 85       	ldd	r25, Y+10	; 0x0a
    5054:	0e 94 c4 1f 	call	0x3f88	; 0x3f88 <_ZN4QEPU5writeEiii>
			write(op2,THE,newthephi[2]); write(op2,PHI,newthephi[3]);
    5058:	d8 01       	movw	r26, r16
    505a:	14 96       	adiw	r26, 0x04	; 4
    505c:	2d 91       	ld	r18, X+
    505e:	3c 91       	ld	r19, X
    5060:	15 97       	sbiw	r26, 0x05	; 5
    5062:	40 e0       	ldi	r20, 0x00	; 0
    5064:	50 e0       	ldi	r21, 0x00	; 0
    5066:	69 81       	ldd	r22, Y+1	; 0x01
    5068:	7a 81       	ldd	r23, Y+2	; 0x02
    506a:	89 85       	ldd	r24, Y+9	; 0x09
    506c:	9a 85       	ldd	r25, Y+10	; 0x0a
    506e:	0e 94 c4 1f 	call	0x3f88	; 0x3f88 <_ZN4QEPU5writeEiii>
    5072:	f8 01       	movw	r30, r16
    5074:	26 81       	ldd	r18, Z+6	; 0x06
    5076:	37 81       	ldd	r19, Z+7	; 0x07
    5078:	41 e0       	ldi	r20, 0x01	; 1
    507a:	50 e0       	ldi	r21, 0x00	; 0
    507c:	69 81       	ldd	r22, Y+1	; 0x01
    507e:	7a 81       	ldd	r23, Y+2	; 0x02
    5080:	89 85       	ldd	r24, Y+9	; 0x09
    5082:	9a 85       	ldd	r25, Y+10	; 0x0a
    5084:	0e 94 c4 1f 	call	0x3f88	; 0x3f88 <_ZN4QEPU5writeEiii>
			break;
    5088:	bb c2       	rjmp	.+1398   	; 0x5600 <_ZN4QEPU7executeEilll+0x12ca>
		case 0x38: // DECREMENT GATE
			newthephi=gates.DEC(read(op1,THE,false),read(op1,PHI,false),read(op2,THE,false),read(op2,PHI,false));
    508a:	20 e0       	ldi	r18, 0x00	; 0
    508c:	41 e0       	ldi	r20, 0x01	; 1
    508e:	50 e0       	ldi	r21, 0x00	; 0
    5090:	69 81       	ldd	r22, Y+1	; 0x01
    5092:	7a 81       	ldd	r23, Y+2	; 0x02
    5094:	89 85       	ldd	r24, Y+9	; 0x09
    5096:	9a 85       	ldd	r25, Y+10	; 0x0a
    5098:	0e 94 f1 1f 	call	0x3fe2	; 0x3fe2 <_ZN4QEPU4readEiib>
    509c:	8c 01       	movw	r16, r24
    509e:	20 e0       	ldi	r18, 0x00	; 0
    50a0:	40 e0       	ldi	r20, 0x00	; 0
    50a2:	50 e0       	ldi	r21, 0x00	; 0
    50a4:	69 81       	ldd	r22, Y+1	; 0x01
    50a6:	7a 81       	ldd	r23, Y+2	; 0x02
    50a8:	89 85       	ldd	r24, Y+9	; 0x09
    50aa:	9a 85       	ldd	r25, Y+10	; 0x0a
    50ac:	0e 94 f1 1f 	call	0x3fe2	; 0x3fe2 <_ZN4QEPU4readEiib>
    50b0:	6c 01       	movw	r12, r24
    50b2:	20 e0       	ldi	r18, 0x00	; 0
    50b4:	41 e0       	ldi	r20, 0x01	; 1
    50b6:	50 e0       	ldi	r21, 0x00	; 0
    50b8:	b2 01       	movw	r22, r4
    50ba:	89 85       	ldd	r24, Y+9	; 0x09
    50bc:	9a 85       	ldd	r25, Y+10	; 0x0a
    50be:	0e 94 f1 1f 	call	0x3fe2	; 0x3fe2 <_ZN4QEPU4readEiib>
    50c2:	7c 01       	movw	r14, r24
    50c4:	20 e0       	ldi	r18, 0x00	; 0
    50c6:	40 e0       	ldi	r20, 0x00	; 0
    50c8:	50 e0       	ldi	r21, 0x00	; 0
    50ca:	b2 01       	movw	r22, r4
    50cc:	89 85       	ldd	r24, Y+9	; 0x09
    50ce:	9a 85       	ldd	r25, Y+10	; 0x0a
    50d0:	0e 94 f1 1f 	call	0x3fe2	; 0x3fe2 <_ZN4QEPU4readEiib>
    50d4:	96 01       	movw	r18, r12
    50d6:	a7 01       	movw	r20, r14
    50d8:	bc 01       	movw	r22, r24
    50da:	89 85       	ldd	r24, Y+9	; 0x09
    50dc:	9a 85       	ldd	r25, Y+10	; 0x0a
    50de:	0a 96       	adiw	r24, 0x0a	; 10
    50e0:	0e 94 e9 0f 	call	0x1fd2	; 0x1fd2 <_ZN5Gates3DECEiiii>
    50e4:	8c 01       	movw	r16, r24
			write(op1,THE,newthephi[0]); write(op1,PHI,newthephi[1]);
    50e6:	dc 01       	movw	r26, r24
    50e8:	2d 91       	ld	r18, X+
    50ea:	3c 91       	ld	r19, X
    50ec:	40 e0       	ldi	r20, 0x00	; 0
    50ee:	50 e0       	ldi	r21, 0x00	; 0
    50f0:	b2 01       	movw	r22, r4
    50f2:	89 85       	ldd	r24, Y+9	; 0x09
    50f4:	9a 85       	ldd	r25, Y+10	; 0x0a
    50f6:	0e 94 c4 1f 	call	0x3f88	; 0x3f88 <_ZN4QEPU5writeEiii>
    50fa:	f8 01       	movw	r30, r16
    50fc:	22 81       	ldd	r18, Z+2	; 0x02
    50fe:	33 81       	ldd	r19, Z+3	; 0x03
    5100:	41 e0       	ldi	r20, 0x01	; 1
    5102:	50 e0       	ldi	r21, 0x00	; 0
    5104:	b2 01       	movw	r22, r4
    5106:	89 85       	ldd	r24, Y+9	; 0x09
    5108:	9a 85       	ldd	r25, Y+10	; 0x0a
    510a:	0e 94 c4 1f 	call	0x3f88	; 0x3f88 <_ZN4QEPU5writeEiii>
			write(op2,THE,newthephi[2]); write(op2,PHI,newthephi[3]);
    510e:	d8 01       	movw	r26, r16
    5110:	14 96       	adiw	r26, 0x04	; 4
    5112:	2d 91       	ld	r18, X+
    5114:	3c 91       	ld	r19, X
    5116:	15 97       	sbiw	r26, 0x05	; 5
    5118:	40 e0       	ldi	r20, 0x00	; 0
    511a:	50 e0       	ldi	r21, 0x00	; 0
    511c:	69 81       	ldd	r22, Y+1	; 0x01
    511e:	7a 81       	ldd	r23, Y+2	; 0x02
    5120:	89 85       	ldd	r24, Y+9	; 0x09
    5122:	9a 85       	ldd	r25, Y+10	; 0x0a
    5124:	0e 94 c4 1f 	call	0x3f88	; 0x3f88 <_ZN4QEPU5writeEiii>
    5128:	f8 01       	movw	r30, r16
    512a:	26 81       	ldd	r18, Z+6	; 0x06
    512c:	37 81       	ldd	r19, Z+7	; 0x07
    512e:	41 e0       	ldi	r20, 0x01	; 1
    5130:	50 e0       	ldi	r21, 0x00	; 0
    5132:	69 81       	ldd	r22, Y+1	; 0x01
    5134:	7a 81       	ldd	r23, Y+2	; 0x02
    5136:	89 85       	ldd	r24, Y+9	; 0x09
    5138:	9a 85       	ldd	r25, Y+10	; 0x0a
    513a:	0e 94 c4 1f 	call	0x3f88	; 0x3f88 <_ZN4QEPU5writeEiii>
			break;
    513e:	60 c2       	rjmp	.+1216   	; 0x5600 <_ZN4QEPU7executeEilll+0x12ca>
		case 0x39: // SWAGSQ GATE
			newthephi=gates.SWQ(read(op1,THE,false),read(op1,PHI,false),read(op2,THE,false),read(op2,PHI,false));
    5140:	20 e0       	ldi	r18, 0x00	; 0
    5142:	41 e0       	ldi	r20, 0x01	; 1
    5144:	50 e0       	ldi	r21, 0x00	; 0
    5146:	69 81       	ldd	r22, Y+1	; 0x01
    5148:	7a 81       	ldd	r23, Y+2	; 0x02
    514a:	89 85       	ldd	r24, Y+9	; 0x09
    514c:	9a 85       	ldd	r25, Y+10	; 0x0a
    514e:	0e 94 f1 1f 	call	0x3fe2	; 0x3fe2 <_ZN4QEPU4readEiib>
    5152:	8c 01       	movw	r16, r24
    5154:	20 e0       	ldi	r18, 0x00	; 0
    5156:	40 e0       	ldi	r20, 0x00	; 0
    5158:	50 e0       	ldi	r21, 0x00	; 0
    515a:	69 81       	ldd	r22, Y+1	; 0x01
    515c:	7a 81       	ldd	r23, Y+2	; 0x02
    515e:	89 85       	ldd	r24, Y+9	; 0x09
    5160:	9a 85       	ldd	r25, Y+10	; 0x0a
    5162:	0e 94 f1 1f 	call	0x3fe2	; 0x3fe2 <_ZN4QEPU4readEiib>
    5166:	6c 01       	movw	r12, r24
    5168:	20 e0       	ldi	r18, 0x00	; 0
    516a:	41 e0       	ldi	r20, 0x01	; 1
    516c:	50 e0       	ldi	r21, 0x00	; 0
    516e:	b2 01       	movw	r22, r4
    5170:	89 85       	ldd	r24, Y+9	; 0x09
    5172:	9a 85       	ldd	r25, Y+10	; 0x0a
    5174:	0e 94 f1 1f 	call	0x3fe2	; 0x3fe2 <_ZN4QEPU4readEiib>
    5178:	7c 01       	movw	r14, r24
    517a:	20 e0       	ldi	r18, 0x00	; 0
    517c:	40 e0       	ldi	r20, 0x00	; 0
    517e:	50 e0       	ldi	r21, 0x00	; 0
    5180:	b2 01       	movw	r22, r4
    5182:	89 85       	ldd	r24, Y+9	; 0x09
    5184:	9a 85       	ldd	r25, Y+10	; 0x0a
    5186:	0e 94 f1 1f 	call	0x3fe2	; 0x3fe2 <_ZN4QEPU4readEiib>
    518a:	96 01       	movw	r18, r12
    518c:	a7 01       	movw	r20, r14
    518e:	bc 01       	movw	r22, r24
    5190:	89 85       	ldd	r24, Y+9	; 0x09
    5192:	9a 85       	ldd	r25, Y+10	; 0x0a
    5194:	0a 96       	adiw	r24, 0x0a	; 10
    5196:	0e 94 eb 10 	call	0x21d6	; 0x21d6 <_ZN5Gates3SWQEiiii>
    519a:	8c 01       	movw	r16, r24
			write(op1,THE,newthephi[0]); write(op1,PHI,newthephi[1]);
    519c:	dc 01       	movw	r26, r24
    519e:	2d 91       	ld	r18, X+
    51a0:	3c 91       	ld	r19, X
    51a2:	40 e0       	ldi	r20, 0x00	; 0
    51a4:	50 e0       	ldi	r21, 0x00	; 0
    51a6:	b2 01       	movw	r22, r4
    51a8:	89 85       	ldd	r24, Y+9	; 0x09
    51aa:	9a 85       	ldd	r25, Y+10	; 0x0a
    51ac:	0e 94 c4 1f 	call	0x3f88	; 0x3f88 <_ZN4QEPU5writeEiii>
    51b0:	f8 01       	movw	r30, r16
    51b2:	22 81       	ldd	r18, Z+2	; 0x02
    51b4:	33 81       	ldd	r19, Z+3	; 0x03
    51b6:	41 e0       	ldi	r20, 0x01	; 1
    51b8:	50 e0       	ldi	r21, 0x00	; 0
    51ba:	b2 01       	movw	r22, r4
    51bc:	89 85       	ldd	r24, Y+9	; 0x09
    51be:	9a 85       	ldd	r25, Y+10	; 0x0a
    51c0:	0e 94 c4 1f 	call	0x3f88	; 0x3f88 <_ZN4QEPU5writeEiii>
			write(op2,THE,newthephi[2]); write(op2,PHI,newthephi[3]);
    51c4:	d8 01       	movw	r26, r16
    51c6:	14 96       	adiw	r26, 0x04	; 4
    51c8:	2d 91       	ld	r18, X+
    51ca:	3c 91       	ld	r19, X
    51cc:	15 97       	sbiw	r26, 0x05	; 5
    51ce:	40 e0       	ldi	r20, 0x00	; 0
    51d0:	50 e0       	ldi	r21, 0x00	; 0
    51d2:	69 81       	ldd	r22, Y+1	; 0x01
    51d4:	7a 81       	ldd	r23, Y+2	; 0x02
    51d6:	89 85       	ldd	r24, Y+9	; 0x09
    51d8:	9a 85       	ldd	r25, Y+10	; 0x0a
    51da:	0e 94 c4 1f 	call	0x3f88	; 0x3f88 <_ZN4QEPU5writeEiii>
    51de:	f8 01       	movw	r30, r16
    51e0:	26 81       	ldd	r18, Z+6	; 0x06
    51e2:	37 81       	ldd	r19, Z+7	; 0x07
    51e4:	41 e0       	ldi	r20, 0x01	; 1
    51e6:	50 e0       	ldi	r21, 0x00	; 0
    51e8:	69 81       	ldd	r22, Y+1	; 0x01
    51ea:	7a 81       	ldd	r23, Y+2	; 0x02
    51ec:	89 85       	ldd	r24, Y+9	; 0x09
    51ee:	9a 85       	ldd	r25, Y+10	; 0x0a
    51f0:	0e 94 c4 1f 	call	0x3f88	; 0x3f88 <_ZN4QEPU5writeEiii>
			break;
    51f4:	05 c2       	rjmp	.+1034   	; 0x5600 <_ZN4QEPU7executeEilll+0x12ca>
		case 0x3A: // SWAPI GATE
			newthephi=gates.SWI(read(op1,THE,false),read(op1,PHI,false),read(op2,THE,false),read(op2,PHI,false));
    51f6:	20 e0       	ldi	r18, 0x00	; 0
    51f8:	41 e0       	ldi	r20, 0x01	; 1
    51fa:	50 e0       	ldi	r21, 0x00	; 0
    51fc:	69 81       	ldd	r22, Y+1	; 0x01
    51fe:	7a 81       	ldd	r23, Y+2	; 0x02
    5200:	89 85       	ldd	r24, Y+9	; 0x09
    5202:	9a 85       	ldd	r25, Y+10	; 0x0a
    5204:	0e 94 f1 1f 	call	0x3fe2	; 0x3fe2 <_ZN4QEPU4readEiib>
    5208:	8c 01       	movw	r16, r24
    520a:	20 e0       	ldi	r18, 0x00	; 0
    520c:	40 e0       	ldi	r20, 0x00	; 0
    520e:	50 e0       	ldi	r21, 0x00	; 0
    5210:	69 81       	ldd	r22, Y+1	; 0x01
    5212:	7a 81       	ldd	r23, Y+2	; 0x02
    5214:	89 85       	ldd	r24, Y+9	; 0x09
    5216:	9a 85       	ldd	r25, Y+10	; 0x0a
    5218:	0e 94 f1 1f 	call	0x3fe2	; 0x3fe2 <_ZN4QEPU4readEiib>
    521c:	6c 01       	movw	r12, r24
    521e:	20 e0       	ldi	r18, 0x00	; 0
    5220:	41 e0       	ldi	r20, 0x01	; 1
    5222:	50 e0       	ldi	r21, 0x00	; 0
    5224:	b2 01       	movw	r22, r4
    5226:	89 85       	ldd	r24, Y+9	; 0x09
    5228:	9a 85       	ldd	r25, Y+10	; 0x0a
    522a:	0e 94 f1 1f 	call	0x3fe2	; 0x3fe2 <_ZN4QEPU4readEiib>
    522e:	7c 01       	movw	r14, r24
    5230:	20 e0       	ldi	r18, 0x00	; 0
    5232:	40 e0       	ldi	r20, 0x00	; 0
    5234:	50 e0       	ldi	r21, 0x00	; 0
    5236:	b2 01       	movw	r22, r4
    5238:	89 85       	ldd	r24, Y+9	; 0x09
    523a:	9a 85       	ldd	r25, Y+10	; 0x0a
    523c:	0e 94 f1 1f 	call	0x3fe2	; 0x3fe2 <_ZN4QEPU4readEiib>
    5240:	96 01       	movw	r18, r12
    5242:	a7 01       	movw	r20, r14
    5244:	bc 01       	movw	r22, r24
    5246:	89 85       	ldd	r24, Y+9	; 0x09
    5248:	9a 85       	ldd	r25, Y+10	; 0x0a
    524a:	0a 96       	adiw	r24, 0x0a	; 10
    524c:	0e 94 f1 11 	call	0x23e2	; 0x23e2 <_ZN5Gates3SWIEiiii>
    5250:	8c 01       	movw	r16, r24
			write(op1,THE,newthephi[0]); write(op1,PHI,newthephi[1]);
    5252:	dc 01       	movw	r26, r24
    5254:	2d 91       	ld	r18, X+
    5256:	3c 91       	ld	r19, X
    5258:	40 e0       	ldi	r20, 0x00	; 0
    525a:	50 e0       	ldi	r21, 0x00	; 0
    525c:	b2 01       	movw	r22, r4
    525e:	89 85       	ldd	r24, Y+9	; 0x09
    5260:	9a 85       	ldd	r25, Y+10	; 0x0a
    5262:	0e 94 c4 1f 	call	0x3f88	; 0x3f88 <_ZN4QEPU5writeEiii>
    5266:	f8 01       	movw	r30, r16
    5268:	22 81       	ldd	r18, Z+2	; 0x02
    526a:	33 81       	ldd	r19, Z+3	; 0x03
    526c:	41 e0       	ldi	r20, 0x01	; 1
    526e:	50 e0       	ldi	r21, 0x00	; 0
    5270:	b2 01       	movw	r22, r4
    5272:	89 85       	ldd	r24, Y+9	; 0x09
    5274:	9a 85       	ldd	r25, Y+10	; 0x0a
    5276:	0e 94 c4 1f 	call	0x3f88	; 0x3f88 <_ZN4QEPU5writeEiii>
			write(op2,THE,newthephi[2]); write(op2,PHI,newthephi[3]);
    527a:	d8 01       	movw	r26, r16
    527c:	14 96       	adiw	r26, 0x04	; 4
    527e:	2d 91       	ld	r18, X+
    5280:	3c 91       	ld	r19, X
    5282:	15 97       	sbiw	r26, 0x05	; 5
    5284:	40 e0       	ldi	r20, 0x00	; 0
    5286:	50 e0       	ldi	r21, 0x00	; 0
    5288:	69 81       	ldd	r22, Y+1	; 0x01
    528a:	7a 81       	ldd	r23, Y+2	; 0x02
    528c:	89 85       	ldd	r24, Y+9	; 0x09
    528e:	9a 85       	ldd	r25, Y+10	; 0x0a
    5290:	0e 94 c4 1f 	call	0x3f88	; 0x3f88 <_ZN4QEPU5writeEiii>
    5294:	f8 01       	movw	r30, r16
    5296:	26 81       	ldd	r18, Z+6	; 0x06
    5298:	37 81       	ldd	r19, Z+7	; 0x07
    529a:	41 e0       	ldi	r20, 0x01	; 1
    529c:	50 e0       	ldi	r21, 0x00	; 0
    529e:	69 81       	ldd	r22, Y+1	; 0x01
    52a0:	7a 81       	ldd	r23, Y+2	; 0x02
    52a2:	89 85       	ldd	r24, Y+9	; 0x09
    52a4:	9a 85       	ldd	r25, Y+10	; 0x0a
    52a6:	0e 94 c4 1f 	call	0x3f88	; 0x3f88 <_ZN4QEPU5writeEiii>
			break;
    52aa:	aa c1       	rjmp	.+852    	; 0x5600 <_ZN4QEPU7executeEilll+0x12ca>
		//3 QUBIT GATES -
		case 0x3B: // CONTROL SWAP GATE
			newthephi=gates.CSW(read(op1,THE,false),read(op1,PHI,false),read(op2,THE,false),read(op2,PHI,false),read(op3,THE,false),read(op3,PHI,false));
    52ac:	9a 2c       	mov	r9, r10
    52ae:	8b 2c       	mov	r8, r11
    52b0:	20 e0       	ldi	r18, 0x00	; 0
    52b2:	41 e0       	ldi	r20, 0x01	; 1
    52b4:	50 e0       	ldi	r21, 0x00	; 0
    52b6:	6a 2d       	mov	r22, r10
    52b8:	7b 2d       	mov	r23, r11
    52ba:	89 85       	ldd	r24, Y+9	; 0x09
    52bc:	9a 85       	ldd	r25, Y+10	; 0x0a
    52be:	0e 94 f1 1f 	call	0x3fe2	; 0x3fe2 <_ZN4QEPU4readEiib>
    52c2:	6c 01       	movw	r12, r24
    52c4:	20 e0       	ldi	r18, 0x00	; 0
    52c6:	40 e0       	ldi	r20, 0x00	; 0
    52c8:	50 e0       	ldi	r21, 0x00	; 0
    52ca:	6a 2d       	mov	r22, r10
    52cc:	7b 2d       	mov	r23, r11
    52ce:	89 85       	ldd	r24, Y+9	; 0x09
    52d0:	9a 85       	ldd	r25, Y+10	; 0x0a
    52d2:	0e 94 f1 1f 	call	0x3fe2	; 0x3fe2 <_ZN4QEPU4readEiib>
    52d6:	7c 01       	movw	r14, r24
    52d8:	20 e0       	ldi	r18, 0x00	; 0
    52da:	41 e0       	ldi	r20, 0x01	; 1
    52dc:	50 e0       	ldi	r21, 0x00	; 0
    52de:	69 81       	ldd	r22, Y+1	; 0x01
    52e0:	7a 81       	ldd	r23, Y+2	; 0x02
    52e2:	89 85       	ldd	r24, Y+9	; 0x09
    52e4:	9a 85       	ldd	r25, Y+10	; 0x0a
    52e6:	0e 94 f1 1f 	call	0x3fe2	; 0x3fe2 <_ZN4QEPU4readEiib>
    52ea:	8c 01       	movw	r16, r24
    52ec:	20 e0       	ldi	r18, 0x00	; 0
    52ee:	40 e0       	ldi	r20, 0x00	; 0
    52f0:	50 e0       	ldi	r21, 0x00	; 0
    52f2:	69 81       	ldd	r22, Y+1	; 0x01
    52f4:	7a 81       	ldd	r23, Y+2	; 0x02
    52f6:	89 85       	ldd	r24, Y+9	; 0x09
    52f8:	9a 85       	ldd	r25, Y+10	; 0x0a
    52fa:	0e 94 f1 1f 	call	0x3fe2	; 0x3fe2 <_ZN4QEPU4readEiib>
    52fe:	5c 01       	movw	r10, r24
    5300:	20 e0       	ldi	r18, 0x00	; 0
    5302:	41 e0       	ldi	r20, 0x01	; 1
    5304:	50 e0       	ldi	r21, 0x00	; 0
    5306:	b2 01       	movw	r22, r4
    5308:	89 85       	ldd	r24, Y+9	; 0x09
    530a:	9a 85       	ldd	r25, Y+10	; 0x0a
    530c:	0e 94 f1 1f 	call	0x3fe2	; 0x3fe2 <_ZN4QEPU4readEiib>
    5310:	1c 01       	movw	r2, r24
    5312:	20 e0       	ldi	r18, 0x00	; 0
    5314:	40 e0       	ldi	r20, 0x00	; 0
    5316:	50 e0       	ldi	r21, 0x00	; 0
    5318:	b2 01       	movw	r22, r4
    531a:	89 85       	ldd	r24, Y+9	; 0x09
    531c:	9a 85       	ldd	r25, Y+10	; 0x0a
    531e:	0e 94 f1 1f 	call	0x3fe2	; 0x3fe2 <_ZN4QEPU4readEiib>
    5322:	95 01       	movw	r18, r10
    5324:	a1 01       	movw	r20, r2
    5326:	bc 01       	movw	r22, r24
    5328:	89 85       	ldd	r24, Y+9	; 0x09
    532a:	9a 85       	ldd	r25, Y+10	; 0x0a
    532c:	0a 96       	adiw	r24, 0x0a	; 10
    532e:	0e 94 c4 14 	call	0x2988	; 0x2988 <_ZN5Gates3CSWEiiiiii>
    5332:	8c 01       	movw	r16, r24
			write(op1,THE,newthephi[0]); write(op1,PHI,newthephi[1]);
    5334:	dc 01       	movw	r26, r24
    5336:	2d 91       	ld	r18, X+
    5338:	3c 91       	ld	r19, X
    533a:	40 e0       	ldi	r20, 0x00	; 0
    533c:	50 e0       	ldi	r21, 0x00	; 0
    533e:	b2 01       	movw	r22, r4
    5340:	89 85       	ldd	r24, Y+9	; 0x09
    5342:	9a 85       	ldd	r25, Y+10	; 0x0a
    5344:	0e 94 c4 1f 	call	0x3f88	; 0x3f88 <_ZN4QEPU5writeEiii>
    5348:	f8 01       	movw	r30, r16
    534a:	22 81       	ldd	r18, Z+2	; 0x02
    534c:	33 81       	ldd	r19, Z+3	; 0x03
    534e:	41 e0       	ldi	r20, 0x01	; 1
    5350:	50 e0       	ldi	r21, 0x00	; 0
    5352:	b2 01       	movw	r22, r4
    5354:	89 85       	ldd	r24, Y+9	; 0x09
    5356:	9a 85       	ldd	r25, Y+10	; 0x0a
    5358:	0e 94 c4 1f 	call	0x3f88	; 0x3f88 <_ZN4QEPU5writeEiii>
			write(op2,THE,newthephi[2]); write(op2,PHI,newthephi[3]);
    535c:	d8 01       	movw	r26, r16
    535e:	14 96       	adiw	r26, 0x04	; 4
    5360:	2d 91       	ld	r18, X+
    5362:	3c 91       	ld	r19, X
    5364:	15 97       	sbiw	r26, 0x05	; 5
    5366:	40 e0       	ldi	r20, 0x00	; 0
    5368:	50 e0       	ldi	r21, 0x00	; 0
    536a:	69 81       	ldd	r22, Y+1	; 0x01
    536c:	7a 81       	ldd	r23, Y+2	; 0x02
    536e:	89 85       	ldd	r24, Y+9	; 0x09
    5370:	9a 85       	ldd	r25, Y+10	; 0x0a
    5372:	0e 94 c4 1f 	call	0x3f88	; 0x3f88 <_ZN4QEPU5writeEiii>
    5376:	f8 01       	movw	r30, r16
    5378:	26 81       	ldd	r18, Z+6	; 0x06
    537a:	37 81       	ldd	r19, Z+7	; 0x07
    537c:	41 e0       	ldi	r20, 0x01	; 1
    537e:	50 e0       	ldi	r21, 0x00	; 0
    5380:	69 81       	ldd	r22, Y+1	; 0x01
    5382:	7a 81       	ldd	r23, Y+2	; 0x02
    5384:	89 85       	ldd	r24, Y+9	; 0x09
    5386:	9a 85       	ldd	r25, Y+10	; 0x0a
    5388:	0e 94 c4 1f 	call	0x3f88	; 0x3f88 <_ZN4QEPU5writeEiii>
			write(op3,THE,newthephi[4]); write(op3,PHI,newthephi[5]);
    538c:	d8 01       	movw	r26, r16
    538e:	18 96       	adiw	r26, 0x08	; 8
    5390:	2d 91       	ld	r18, X+
    5392:	3c 91       	ld	r19, X
    5394:	19 97       	sbiw	r26, 0x09	; 9
    5396:	40 e0       	ldi	r20, 0x00	; 0
    5398:	50 e0       	ldi	r21, 0x00	; 0
    539a:	69 2d       	mov	r22, r9
    539c:	78 2d       	mov	r23, r8
    539e:	89 85       	ldd	r24, Y+9	; 0x09
    53a0:	9a 85       	ldd	r25, Y+10	; 0x0a
    53a2:	0e 94 c4 1f 	call	0x3f88	; 0x3f88 <_ZN4QEPU5writeEiii>
    53a6:	f8 01       	movw	r30, r16
    53a8:	22 85       	ldd	r18, Z+10	; 0x0a
    53aa:	33 85       	ldd	r19, Z+11	; 0x0b
    53ac:	41 e0       	ldi	r20, 0x01	; 1
    53ae:	50 e0       	ldi	r21, 0x00	; 0
    53b0:	69 2d       	mov	r22, r9
    53b2:	78 2d       	mov	r23, r8
    53b4:	89 85       	ldd	r24, Y+9	; 0x09
    53b6:	9a 85       	ldd	r25, Y+10	; 0x0a
    53b8:	0e 94 c4 1f 	call	0x3f88	; 0x3f88 <_ZN4QEPU5writeEiii>
			break;
    53bc:	21 c1       	rjmp	.+578    	; 0x5600 <_ZN4QEPU7executeEilll+0x12ca>
		case 0x3C: // TOFFOLI GATE
			newthephi=gates.TOF(read(op1,THE,false),read(op1,PHI,false),read(op2,THE,false),read(op2,PHI,false),read(op3,THE,false),read(op3,PHI,false));
    53be:	9a 2c       	mov	r9, r10
    53c0:	8b 2c       	mov	r8, r11
    53c2:	20 e0       	ldi	r18, 0x00	; 0
    53c4:	41 e0       	ldi	r20, 0x01	; 1
    53c6:	50 e0       	ldi	r21, 0x00	; 0
    53c8:	6a 2d       	mov	r22, r10
    53ca:	7b 2d       	mov	r23, r11
    53cc:	89 85       	ldd	r24, Y+9	; 0x09
    53ce:	9a 85       	ldd	r25, Y+10	; 0x0a
    53d0:	0e 94 f1 1f 	call	0x3fe2	; 0x3fe2 <_ZN4QEPU4readEiib>
    53d4:	6c 01       	movw	r12, r24
    53d6:	20 e0       	ldi	r18, 0x00	; 0
    53d8:	40 e0       	ldi	r20, 0x00	; 0
    53da:	50 e0       	ldi	r21, 0x00	; 0
    53dc:	6a 2d       	mov	r22, r10
    53de:	7b 2d       	mov	r23, r11
    53e0:	89 85       	ldd	r24, Y+9	; 0x09
    53e2:	9a 85       	ldd	r25, Y+10	; 0x0a
    53e4:	0e 94 f1 1f 	call	0x3fe2	; 0x3fe2 <_ZN4QEPU4readEiib>
    53e8:	7c 01       	movw	r14, r24
    53ea:	20 e0       	ldi	r18, 0x00	; 0
    53ec:	41 e0       	ldi	r20, 0x01	; 1
    53ee:	50 e0       	ldi	r21, 0x00	; 0
    53f0:	69 81       	ldd	r22, Y+1	; 0x01
    53f2:	7a 81       	ldd	r23, Y+2	; 0x02
    53f4:	89 85       	ldd	r24, Y+9	; 0x09
    53f6:	9a 85       	ldd	r25, Y+10	; 0x0a
    53f8:	0e 94 f1 1f 	call	0x3fe2	; 0x3fe2 <_ZN4QEPU4readEiib>
    53fc:	8c 01       	movw	r16, r24
    53fe:	20 e0       	ldi	r18, 0x00	; 0
    5400:	40 e0       	ldi	r20, 0x00	; 0
    5402:	50 e0       	ldi	r21, 0x00	; 0
    5404:	69 81       	ldd	r22, Y+1	; 0x01
    5406:	7a 81       	ldd	r23, Y+2	; 0x02
    5408:	89 85       	ldd	r24, Y+9	; 0x09
    540a:	9a 85       	ldd	r25, Y+10	; 0x0a
    540c:	0e 94 f1 1f 	call	0x3fe2	; 0x3fe2 <_ZN4QEPU4readEiib>
    5410:	5c 01       	movw	r10, r24
    5412:	20 e0       	ldi	r18, 0x00	; 0
    5414:	41 e0       	ldi	r20, 0x01	; 1
    5416:	50 e0       	ldi	r21, 0x00	; 0
    5418:	b2 01       	movw	r22, r4
    541a:	89 85       	ldd	r24, Y+9	; 0x09
    541c:	9a 85       	ldd	r25, Y+10	; 0x0a
    541e:	0e 94 f1 1f 	call	0x3fe2	; 0x3fe2 <_ZN4QEPU4readEiib>
    5422:	1c 01       	movw	r2, r24
    5424:	20 e0       	ldi	r18, 0x00	; 0
    5426:	40 e0       	ldi	r20, 0x00	; 0
    5428:	50 e0       	ldi	r21, 0x00	; 0
    542a:	b2 01       	movw	r22, r4
    542c:	89 85       	ldd	r24, Y+9	; 0x09
    542e:	9a 85       	ldd	r25, Y+10	; 0x0a
    5430:	0e 94 f1 1f 	call	0x3fe2	; 0x3fe2 <_ZN4QEPU4readEiib>
    5434:	95 01       	movw	r18, r10
    5436:	a1 01       	movw	r20, r2
    5438:	bc 01       	movw	r22, r24
    543a:	89 85       	ldd	r24, Y+9	; 0x09
    543c:	9a 85       	ldd	r25, Y+10	; 0x0a
    543e:	0a 96       	adiw	r24, 0x0a	; 10
    5440:	0e 94 c2 17 	call	0x2f84	; 0x2f84 <_ZN5Gates3TOFEiiiiii>
    5444:	8c 01       	movw	r16, r24
			write(op1,THE,newthephi[0]); write(op1,PHI,newthephi[1]);
    5446:	dc 01       	movw	r26, r24
    5448:	2d 91       	ld	r18, X+
    544a:	3c 91       	ld	r19, X
    544c:	40 e0       	ldi	r20, 0x00	; 0
    544e:	50 e0       	ldi	r21, 0x00	; 0
    5450:	b2 01       	movw	r22, r4
    5452:	89 85       	ldd	r24, Y+9	; 0x09
    5454:	9a 85       	ldd	r25, Y+10	; 0x0a
    5456:	0e 94 c4 1f 	call	0x3f88	; 0x3f88 <_ZN4QEPU5writeEiii>
    545a:	f8 01       	movw	r30, r16
    545c:	22 81       	ldd	r18, Z+2	; 0x02
    545e:	33 81       	ldd	r19, Z+3	; 0x03
    5460:	41 e0       	ldi	r20, 0x01	; 1
    5462:	50 e0       	ldi	r21, 0x00	; 0
    5464:	b2 01       	movw	r22, r4
    5466:	89 85       	ldd	r24, Y+9	; 0x09
    5468:	9a 85       	ldd	r25, Y+10	; 0x0a
    546a:	0e 94 c4 1f 	call	0x3f88	; 0x3f88 <_ZN4QEPU5writeEiii>
			write(op2,THE,newthephi[2]); write(op2,PHI,newthephi[3]);
    546e:	d8 01       	movw	r26, r16
    5470:	14 96       	adiw	r26, 0x04	; 4
    5472:	2d 91       	ld	r18, X+
    5474:	3c 91       	ld	r19, X
    5476:	15 97       	sbiw	r26, 0x05	; 5
    5478:	40 e0       	ldi	r20, 0x00	; 0
    547a:	50 e0       	ldi	r21, 0x00	; 0
    547c:	69 81       	ldd	r22, Y+1	; 0x01
    547e:	7a 81       	ldd	r23, Y+2	; 0x02
    5480:	89 85       	ldd	r24, Y+9	; 0x09
    5482:	9a 85       	ldd	r25, Y+10	; 0x0a
    5484:	0e 94 c4 1f 	call	0x3f88	; 0x3f88 <_ZN4QEPU5writeEiii>
    5488:	f8 01       	movw	r30, r16
    548a:	26 81       	ldd	r18, Z+6	; 0x06
    548c:	37 81       	ldd	r19, Z+7	; 0x07
    548e:	41 e0       	ldi	r20, 0x01	; 1
    5490:	50 e0       	ldi	r21, 0x00	; 0
    5492:	69 81       	ldd	r22, Y+1	; 0x01
    5494:	7a 81       	ldd	r23, Y+2	; 0x02
    5496:	89 85       	ldd	r24, Y+9	; 0x09
    5498:	9a 85       	ldd	r25, Y+10	; 0x0a
    549a:	0e 94 c4 1f 	call	0x3f88	; 0x3f88 <_ZN4QEPU5writeEiii>
			write(op3,THE,newthephi[4]); write(op3,PHI,newthephi[5]);
    549e:	d8 01       	movw	r26, r16
    54a0:	18 96       	adiw	r26, 0x08	; 8
    54a2:	2d 91       	ld	r18, X+
    54a4:	3c 91       	ld	r19, X
    54a6:	19 97       	sbiw	r26, 0x09	; 9
    54a8:	40 e0       	ldi	r20, 0x00	; 0
    54aa:	50 e0       	ldi	r21, 0x00	; 0
    54ac:	69 2d       	mov	r22, r9
    54ae:	78 2d       	mov	r23, r8
    54b0:	89 85       	ldd	r24, Y+9	; 0x09
    54b2:	9a 85       	ldd	r25, Y+10	; 0x0a
    54b4:	0e 94 c4 1f 	call	0x3f88	; 0x3f88 <_ZN4QEPU5writeEiii>
    54b8:	f8 01       	movw	r30, r16
    54ba:	22 85       	ldd	r18, Z+10	; 0x0a
    54bc:	33 85       	ldd	r19, Z+11	; 0x0b
    54be:	41 e0       	ldi	r20, 0x01	; 1
    54c0:	50 e0       	ldi	r21, 0x00	; 0
    54c2:	69 2d       	mov	r22, r9
    54c4:	78 2d       	mov	r23, r8
    54c6:	89 85       	ldd	r24, Y+9	; 0x09
    54c8:	9a 85       	ldd	r25, Y+10	; 0x0a
    54ca:	0e 94 c4 1f 	call	0x3f88	; 0x3f88 <_ZN4QEPU5writeEiii>
			break;
    54ce:	98 c0       	rjmp	.+304    	; 0x5600 <_ZN4QEPU7executeEilll+0x12ca>
		case 0x3D: // DEUTSCH GATE
			newthephi=gates.DEU(read(op1,THE,false),read(op1,PHI,false),read(op2,THE,false),read(op2,PHI,false),read(op3,THE,false),read(op3,PHI,false),read(0,THE,false));
    54d0:	20 e0       	ldi	r18, 0x00	; 0
    54d2:	40 e0       	ldi	r20, 0x00	; 0
    54d4:	50 e0       	ldi	r21, 0x00	; 0
    54d6:	60 e0       	ldi	r22, 0x00	; 0
    54d8:	70 e0       	ldi	r23, 0x00	; 0
    54da:	89 85       	ldd	r24, Y+9	; 0x09
    54dc:	9a 85       	ldd	r25, Y+10	; 0x0a
    54de:	0e 94 f1 1f 	call	0x3fe2	; 0x3fe2 <_ZN4QEPU4readEiib>
    54e2:	8c 01       	movw	r16, r24
    54e4:	9a 2c       	mov	r9, r10
    54e6:	8b 2c       	mov	r8, r11
    54e8:	20 e0       	ldi	r18, 0x00	; 0
    54ea:	41 e0       	ldi	r20, 0x01	; 1
    54ec:	50 e0       	ldi	r21, 0x00	; 0
    54ee:	6a 2d       	mov	r22, r10
    54f0:	7b 2d       	mov	r23, r11
    54f2:	89 85       	ldd	r24, Y+9	; 0x09
    54f4:	9a 85       	ldd	r25, Y+10	; 0x0a
    54f6:	0e 94 f1 1f 	call	0x3fe2	; 0x3fe2 <_ZN4QEPU4readEiib>
    54fa:	6c 01       	movw	r12, r24
    54fc:	20 e0       	ldi	r18, 0x00	; 0
    54fe:	40 e0       	ldi	r20, 0x00	; 0
    5500:	50 e0       	ldi	r21, 0x00	; 0
    5502:	6a 2d       	mov	r22, r10
    5504:	7b 2d       	mov	r23, r11
    5506:	89 85       	ldd	r24, Y+9	; 0x09
    5508:	9a 85       	ldd	r25, Y+10	; 0x0a
    550a:	0e 94 f1 1f 	call	0x3fe2	; 0x3fe2 <_ZN4QEPU4readEiib>
    550e:	7c 01       	movw	r14, r24
    5510:	20 e0       	ldi	r18, 0x00	; 0
    5512:	41 e0       	ldi	r20, 0x01	; 1
    5514:	50 e0       	ldi	r21, 0x00	; 0
    5516:	69 81       	ldd	r22, Y+1	; 0x01
    5518:	7a 81       	ldd	r23, Y+2	; 0x02
    551a:	89 85       	ldd	r24, Y+9	; 0x09
    551c:	9a 85       	ldd	r25, Y+10	; 0x0a
    551e:	0e 94 f1 1f 	call	0x3fe2	; 0x3fe2 <_ZN4QEPU4readEiib>
    5522:	1c 01       	movw	r2, r24
    5524:	20 e0       	ldi	r18, 0x00	; 0
    5526:	40 e0       	ldi	r20, 0x00	; 0
    5528:	50 e0       	ldi	r21, 0x00	; 0
    552a:	69 81       	ldd	r22, Y+1	; 0x01
    552c:	7a 81       	ldd	r23, Y+2	; 0x02
    552e:	89 85       	ldd	r24, Y+9	; 0x09
    5530:	9a 85       	ldd	r25, Y+10	; 0x0a
    5532:	0e 94 f1 1f 	call	0x3fe2	; 0x3fe2 <_ZN4QEPU4readEiib>
    5536:	9e 83       	std	Y+6, r25	; 0x06
    5538:	8d 83       	std	Y+5, r24	; 0x05
    553a:	20 e0       	ldi	r18, 0x00	; 0
    553c:	41 e0       	ldi	r20, 0x01	; 1
    553e:	50 e0       	ldi	r21, 0x00	; 0
    5540:	b2 01       	movw	r22, r4
    5542:	89 85       	ldd	r24, Y+9	; 0x09
    5544:	9a 85       	ldd	r25, Y+10	; 0x0a
    5546:	0e 94 f1 1f 	call	0x3fe2	; 0x3fe2 <_ZN4QEPU4readEiib>
    554a:	98 87       	std	Y+8, r25	; 0x08
    554c:	8f 83       	std	Y+7, r24	; 0x07
    554e:	20 e0       	ldi	r18, 0x00	; 0
    5550:	40 e0       	ldi	r20, 0x00	; 0
    5552:	50 e0       	ldi	r21, 0x00	; 0
    5554:	b2 01       	movw	r22, r4
    5556:	89 85       	ldd	r24, Y+9	; 0x09
    5558:	9a 85       	ldd	r25, Y+10	; 0x0a
    555a:	0e 94 f1 1f 	call	0x3fe2	; 0x3fe2 <_ZN4QEPU4readEiib>
    555e:	58 01       	movw	r10, r16
    5560:	81 01       	movw	r16, r2
    5562:	2d 81       	ldd	r18, Y+5	; 0x05
    5564:	3e 81       	ldd	r19, Y+6	; 0x06
    5566:	4f 81       	ldd	r20, Y+7	; 0x07
    5568:	58 85       	ldd	r21, Y+8	; 0x08
    556a:	bc 01       	movw	r22, r24
    556c:	89 85       	ldd	r24, Y+9	; 0x09
    556e:	9a 85       	ldd	r25, Y+10	; 0x0a
    5570:	0a 96       	adiw	r24, 0x0a	; 10
    5572:	0e 94 c0 1a 	call	0x3580	; 0x3580 <_ZN5Gates3DEUEiiiiiii>
    5576:	8c 01       	movw	r16, r24
			write(op1,THE,newthephi[0]); write(op1,PHI,newthephi[1]);
    5578:	dc 01       	movw	r26, r24
    557a:	2d 91       	ld	r18, X+
    557c:	3c 91       	ld	r19, X
    557e:	40 e0       	ldi	r20, 0x00	; 0
    5580:	50 e0       	ldi	r21, 0x00	; 0
    5582:	b2 01       	movw	r22, r4
    5584:	89 85       	ldd	r24, Y+9	; 0x09
    5586:	9a 85       	ldd	r25, Y+10	; 0x0a
    5588:	0e 94 c4 1f 	call	0x3f88	; 0x3f88 <_ZN4QEPU5writeEiii>
    558c:	f8 01       	movw	r30, r16
    558e:	22 81       	ldd	r18, Z+2	; 0x02
    5590:	33 81       	ldd	r19, Z+3	; 0x03
    5592:	41 e0       	ldi	r20, 0x01	; 1
    5594:	50 e0       	ldi	r21, 0x00	; 0
    5596:	b2 01       	movw	r22, r4
    5598:	89 85       	ldd	r24, Y+9	; 0x09
    559a:	9a 85       	ldd	r25, Y+10	; 0x0a
    559c:	0e 94 c4 1f 	call	0x3f88	; 0x3f88 <_ZN4QEPU5writeEiii>
			write(op2,THE,newthephi[2]); write(op2,PHI,newthephi[3]);
    55a0:	d8 01       	movw	r26, r16
    55a2:	14 96       	adiw	r26, 0x04	; 4
    55a4:	2d 91       	ld	r18, X+
    55a6:	3c 91       	ld	r19, X
    55a8:	15 97       	sbiw	r26, 0x05	; 5
    55aa:	40 e0       	ldi	r20, 0x00	; 0
    55ac:	50 e0       	ldi	r21, 0x00	; 0
    55ae:	69 81       	ldd	r22, Y+1	; 0x01
    55b0:	7a 81       	ldd	r23, Y+2	; 0x02
    55b2:	89 85       	ldd	r24, Y+9	; 0x09
    55b4:	9a 85       	ldd	r25, Y+10	; 0x0a
    55b6:	0e 94 c4 1f 	call	0x3f88	; 0x3f88 <_ZN4QEPU5writeEiii>
    55ba:	f8 01       	movw	r30, r16
    55bc:	26 81       	ldd	r18, Z+6	; 0x06
    55be:	37 81       	ldd	r19, Z+7	; 0x07
    55c0:	41 e0       	ldi	r20, 0x01	; 1
    55c2:	50 e0       	ldi	r21, 0x00	; 0
    55c4:	69 81       	ldd	r22, Y+1	; 0x01
    55c6:	7a 81       	ldd	r23, Y+2	; 0x02
    55c8:	89 85       	ldd	r24, Y+9	; 0x09
    55ca:	9a 85       	ldd	r25, Y+10	; 0x0a
    55cc:	0e 94 c4 1f 	call	0x3f88	; 0x3f88 <_ZN4QEPU5writeEiii>
			write(op3,THE,newthephi[4]); write(op3,PHI,newthephi[5]);
    55d0:	d8 01       	movw	r26, r16
    55d2:	18 96       	adiw	r26, 0x08	; 8
    55d4:	2d 91       	ld	r18, X+
    55d6:	3c 91       	ld	r19, X
    55d8:	19 97       	sbiw	r26, 0x09	; 9
    55da:	40 e0       	ldi	r20, 0x00	; 0
    55dc:	50 e0       	ldi	r21, 0x00	; 0
    55de:	69 2d       	mov	r22, r9
    55e0:	78 2d       	mov	r23, r8
    55e2:	89 85       	ldd	r24, Y+9	; 0x09
    55e4:	9a 85       	ldd	r25, Y+10	; 0x0a
    55e6:	0e 94 c4 1f 	call	0x3f88	; 0x3f88 <_ZN4QEPU5writeEiii>
    55ea:	f8 01       	movw	r30, r16
    55ec:	22 85       	ldd	r18, Z+10	; 0x0a
    55ee:	33 85       	ldd	r19, Z+11	; 0x0b
    55f0:	41 e0       	ldi	r20, 0x01	; 1
    55f2:	50 e0       	ldi	r21, 0x00	; 0
    55f4:	69 2d       	mov	r22, r9
    55f6:	78 2d       	mov	r23, r8
    55f8:	89 85       	ldd	r24, Y+9	; 0x09
    55fa:	9a 85       	ldd	r25, Y+10	; 0x0a
    55fc:	0e 94 c4 1f 	call	0x3f88	; 0x3f88 <_ZN4QEPU5writeEiii>
		serial.writestr(" , OP1: ");   serial.writestr(utils.int2str(op1));
		serial.writestr(" , OP2: ");   serial.writestr(utils.int2str(op2));
		serial.writestr(" PC: ");	   serial.writestrln(utils.int2str(program_counter));
		serial.writestrln("");
	}
	free(newthephi);	
    5600:	c8 01       	movw	r24, r16
    5602:	0e 94 fb 33 	call	0x67f6	; 0x67f6 <free>
    5606:	2a 96       	adiw	r28, 0x0a	; 10
    5608:	0f b6       	in	r0, 0x3f	; 63
    560a:	f8 94       	cli
    560c:	de bf       	out	0x3e, r29	; 62
    560e:	0f be       	out	0x3f, r0	; 63
    5610:	cd bf       	out	0x3d, r28	; 61
    5612:	df 91       	pop	r29
    5614:	cf 91       	pop	r28
    5616:	1f 91       	pop	r17
    5618:	0f 91       	pop	r16
    561a:	ff 90       	pop	r15
    561c:	ef 90       	pop	r14
    561e:	df 90       	pop	r13
    5620:	cf 90       	pop	r12
    5622:	bf 90       	pop	r11
    5624:	af 90       	pop	r10
    5626:	9f 90       	pop	r9
    5628:	8f 90       	pop	r8
    562a:	7f 90       	pop	r7
    562c:	6f 90       	pop	r6
    562e:	5f 90       	pop	r5
    5630:	4f 90       	pop	r4
    5632:	3f 90       	pop	r3
    5634:	2f 90       	pop	r2
    5636:	08 95       	ret

00005638 <_ZN4QEPU3runEv>:

void QEPU::set_programcounter(int newaddress){
	program_counter=newaddress-1;
}

void QEPU::run(){
    5638:	2f 92       	push	r2
    563a:	3f 92       	push	r3
    563c:	4f 92       	push	r4
    563e:	5f 92       	push	r5
    5640:	6f 92       	push	r6
    5642:	7f 92       	push	r7
    5644:	8f 92       	push	r8
    5646:	9f 92       	push	r9
    5648:	af 92       	push	r10
    564a:	bf 92       	push	r11
    564c:	cf 92       	push	r12
    564e:	df 92       	push	r13
    5650:	ef 92       	push	r14
    5652:	ff 92       	push	r15
    5654:	0f 93       	push	r16
    5656:	1f 93       	push	r17
    5658:	cf 93       	push	r28
    565a:	df 93       	push	r29
    565c:	cd b7       	in	r28, 0x3d	; 61
    565e:	de b7       	in	r29, 0x3e	; 62
    5660:	ad 97       	sbiw	r28, 0x2d	; 45
    5662:	0f b6       	in	r0, 0x3f	; 63
    5664:	f8 94       	cli
    5666:	de bf       	out	0x3e, r29	; 62
    5668:	0f be       	out	0x3f, r0	; 63
    566a:	cd bf       	out	0x3d, r28	; 61
    566c:	9b a3       	std	Y+35, r25	; 0x23
    566e:	8a a3       	std	Y+34, r24	; 0x22
	//TEMPORARY PRINTING FOR DEBUGGING PURPOSES
	serial.writestrln(" RUNNING "); serial.writestrln("");
    5670:	01 96       	adiw	r24, 0x01	; 1
    5672:	9d a7       	std	Y+45, r25	; 0x2d
    5674:	8c a7       	std	Y+44, r24	; 0x2c
    5676:	60 ed       	ldi	r22, 0xD0	; 208
    5678:	70 e0       	ldi	r23, 0x00	; 0
    567a:	0e 94 4a 2e 	call	0x5c94	; 0x5c94 <_ZN6Serial10writestrlnEPc>
    567e:	65 ec       	ldi	r22, 0xC5	; 197
    5680:	70 e0       	ldi	r23, 0x00	; 0
    5682:	8c a5       	ldd	r24, Y+44	; 0x2c
    5684:	9d a5       	ldd	r25, Y+45	; 0x2d
    5686:	0e 94 4a 2e 	call	0x5c94	; 0x5c94 <_ZN6Serial10writestrlnEPc>
	
	int line_width=INSTR_WIDTH;
	program_counter_maximum=eeprom.count_lines();
    568a:	6a a0       	ldd	r6, Y+34	; 0x22
    568c:	7b a0       	ldd	r7, Y+35	; 0x23
    568e:	22 e0       	ldi	r18, 0x02	; 2
    5690:	62 0e       	add	r6, r18
    5692:	71 1c       	adc	r7, r1
    5694:	c3 01       	movw	r24, r6
    5696:	0e 94 8a 02 	call	0x514	; 0x514 <_ZN6EEProm11count_linesEv>
    569a:	ea a1       	ldd	r30, Y+34	; 0x22
    569c:	fb a1       	ldd	r31, Y+35	; 0x23
    569e:	e8 52       	subi	r30, 0x28	; 40
    56a0:	ff 4f       	sbci	r31, 0xFF	; 255
    56a2:	91 83       	std	Z+1, r25	; 0x01
    56a4:	80 83       	st	Z, r24
	for(int program_counter=0;program_counter<program_counter_maximum;program_counter++){
    56a6:	18 16       	cp	r1, r24
    56a8:	19 06       	cpc	r1, r25
    56aa:	0c f0       	brlt	.+2      	; 0x56ae <_ZN4QEPU3runEv+0x76>
    56ac:	c4 c0       	rjmp	.+392    	; 0x5836 <_ZN4QEPU3runEv+0x1fe>
    56ae:	19 8e       	std	Y+25, r1	; 0x19
    56b0:	18 8e       	std	Y+24, r1	; 0x18
    56b2:	1b 8e       	std	Y+27, r1	; 0x1b
    56b4:	1a 8e       	std	Y+26, r1	; 0x1a
		//FETCH OPERANDS FROM THE EEPROM:
		int eeprom_line_selection=program_counter*line_width;
		int func=0;	char op1s[OP1_WIDTH]=""; char op2s[OP2_WIDTH]=""; char op3s[OP3_WIDTH]="";
		func=eeprom.read(eeprom_line_selection+FIXED_FUNC_OFFSET); // FUNCTION FETCH
		for(int k=0;k<QUBIT_BYTE_SIZE;k++){
			sprintf(op1s,"%s%x",op1s,eeprom.read(eeprom_line_selection+FIXED_OP1_OFFSET+k)); // HEX CONCAT TO STRING (OP1 FETCH)
    56b6:	1e 01       	movw	r2, r28
    56b8:	3f e0       	ldi	r19, 0x0F	; 15
    56ba:	23 0e       	add	r2, r19
    56bc:	31 1c       	adc	r3, r1
    56be:	0f 2e       	mov	r0, r31
    56c0:	fa ed       	ldi	r31, 0xDA	; 218
    56c2:	8f 2e       	mov	r8, r31
    56c4:	f0 e0       	ldi	r31, 0x00	; 0
    56c6:	9f 2e       	mov	r9, r31
    56c8:	f0 2d       	mov	r31, r0
			sprintf(op2s,"%s%x",op2s,eeprom.read(eeprom_line_selection+FIXED_OP2_OFFSET+k)); // HEX CONCAT TO STRING (OP2 FETCH)
    56ca:	2e 01       	movw	r4, r28
    56cc:	88 e0       	ldi	r24, 0x08	; 8
    56ce:	48 0e       	add	r4, r24
    56d0:	51 1c       	adc	r5, r1
			sprintf(op3s,"%s%x",op3s,eeprom.read(eeprom_line_selection+FIXED_OP3_OFFSET+k)); // HEX CONCAT TO STRING (OP3 FETCH)
    56d2:	fe 01       	movw	r30, r28
    56d4:	31 96       	adiw	r30, 0x01	; 1
    56d6:	ff 8b       	std	Y+23, r31	; 0x17
    56d8:	ee 8b       	std	Y+22, r30	; 0x16
		//FETCH OPERANDS FROM THE EEPROM:
		int eeprom_line_selection=program_counter*line_width;
		int func=0;	char op1s[OP1_WIDTH]=""; char op2s[OP2_WIDTH]=""; char op3s[OP3_WIDTH]="";
		func=eeprom.read(eeprom_line_selection+FIXED_FUNC_OFFSET); // FUNCTION FETCH
		for(int k=0;k<QUBIT_BYTE_SIZE;k++){
			sprintf(op1s,"%s%x",op1s,eeprom.read(eeprom_line_selection+FIXED_OP1_OFFSET+k)); // HEX CONCAT TO STRING (OP1 FETCH)
    56da:	2e a2       	std	Y+38, r2	; 0x26
    56dc:	3f a2       	std	Y+39, r3	; 0x27
			sprintf(op2s,"%s%x",op2s,eeprom.read(eeprom_line_selection+FIXED_OP2_OFFSET+k)); // HEX CONCAT TO STRING (OP2 FETCH)
    56de:	48 a6       	std	Y+40, r4	; 0x28
    56e0:	59 a6       	std	Y+41, r5	; 0x29
			sprintf(op3s,"%s%x",op3s,eeprom.read(eeprom_line_selection+FIXED_OP3_OFFSET+k)); // HEX CONCAT TO STRING (OP3 FETCH)
    56e2:	fe 89       	ldd	r31, Y+22	; 0x16
    56e4:	fa a7       	std	Y+42, r31	; 0x2a
    56e6:	2f 89       	ldd	r18, Y+23	; 0x17
    56e8:	2b a7       	std	Y+43, r18	; 0x2b
	//TEMPORARY PRINTING FOR DEBUGGING PURPOSES
	serial.writestrln(" RUNNING "); serial.writestrln("");
	
	int line_width=INSTR_WIDTH;
	program_counter_maximum=eeprom.count_lines();
	for(int program_counter=0;program_counter<program_counter_maximum;program_counter++){
    56ea:	8a a1       	ldd	r24, Y+34	; 0x22
    56ec:	9b a1       	ldd	r25, Y+35	; 0x23
    56ee:	88 52       	subi	r24, 0x28	; 40
    56f0:	9f 4f       	sbci	r25, 0xFF	; 255
    56f2:	9d a3       	std	Y+37, r25	; 0x25
    56f4:	8c a3       	std	Y+36, r24	; 0x24
		//FETCH OPERANDS FROM THE EEPROM:
		int eeprom_line_selection=program_counter*line_width;
		int func=0;	char op1s[OP1_WIDTH]=""; char op2s[OP2_WIDTH]=""; char op3s[OP3_WIDTH]="";
    56f6:	1f 86       	std	Y+15, r1	; 0x0f
    56f8:	18 8a       	std	Y+16, r1	; 0x10
    56fa:	19 8a       	std	Y+17, r1	; 0x11
    56fc:	1a 8a       	std	Y+18, r1	; 0x12
    56fe:	1b 8a       	std	Y+19, r1	; 0x13
    5700:	1c 8a       	std	Y+20, r1	; 0x14
    5702:	1d 8a       	std	Y+21, r1	; 0x15
    5704:	18 86       	std	Y+8, r1	; 0x08
    5706:	19 86       	std	Y+9, r1	; 0x09
    5708:	1a 86       	std	Y+10, r1	; 0x0a
    570a:	1b 86       	std	Y+11, r1	; 0x0b
    570c:	1c 86       	std	Y+12, r1	; 0x0c
    570e:	1d 86       	std	Y+13, r1	; 0x0d
    5710:	1e 86       	std	Y+14, r1	; 0x0e
    5712:	19 82       	std	Y+1, r1	; 0x01
    5714:	1a 82       	std	Y+2, r1	; 0x02
    5716:	1b 82       	std	Y+3, r1	; 0x03
    5718:	1c 82       	std	Y+4, r1	; 0x04
    571a:	1d 82       	std	Y+5, r1	; 0x05
    571c:	1e 82       	std	Y+6, r1	; 0x06
    571e:	1f 82       	std	Y+7, r1	; 0x07
		func=eeprom.read(eeprom_line_selection+FIXED_FUNC_OFFSET); // FUNCTION FETCH
    5720:	68 8d       	ldd	r22, Y+24	; 0x18
    5722:	79 8d       	ldd	r23, Y+25	; 0x19
    5724:	c3 01       	movw	r24, r6
    5726:	0e 94 31 02 	call	0x462	; 0x462 <_ZN6EEProm4readEj>
    572a:	e8 2f       	mov	r30, r24
    572c:	f0 e0       	ldi	r31, 0x00	; 0
    572e:	fd 8f       	std	Y+29, r31	; 0x1d
    5730:	ec 8f       	std	Y+28, r30	; 0x1c
    5732:	c8 8c       	ldd	r12, Y+24	; 0x18
    5734:	d9 8c       	ldd	r13, Y+25	; 0x19
    5736:	f5 e0       	ldi	r31, 0x05	; 5
    5738:	cf 0e       	add	r12, r31
    573a:	d1 1c       	adc	r13, r1
    573c:	08 8d       	ldd	r16, Y+24	; 0x18
    573e:	19 8d       	ldd	r17, Y+25	; 0x19
    5740:	0f 5f       	subi	r16, 0xFF	; 255
    5742:	1f 4f       	sbci	r17, 0xFF	; 255
		for(int k=0;k<QUBIT_BYTE_SIZE;k++){
			sprintf(op1s,"%s%x",op1s,eeprom.read(eeprom_line_selection+FIXED_OP1_OFFSET+k)); // HEX CONCAT TO STRING (OP1 FETCH)
    5744:	b8 01       	movw	r22, r16
    5746:	c3 01       	movw	r24, r6
    5748:	0e 94 31 02 	call	0x462	; 0x462 <_ZN6EEProm4readEj>
    574c:	1f 92       	push	r1
    574e:	8f 93       	push	r24
    5750:	3f 92       	push	r3
    5752:	2f 92       	push	r2
    5754:	9f 92       	push	r9
    5756:	8f 92       	push	r8
    5758:	3f 92       	push	r3
    575a:	2f 92       	push	r2
    575c:	0e 94 34 36 	call	0x6c68	; 0x6c68 <sprintf>
    5760:	b8 01       	movw	r22, r16
    5762:	6c 5f       	subi	r22, 0xFC	; 252
    5764:	7f 4f       	sbci	r23, 0xFF	; 255
			sprintf(op2s,"%s%x",op2s,eeprom.read(eeprom_line_selection+FIXED_OP2_OFFSET+k)); // HEX CONCAT TO STRING (OP2 FETCH)
    5766:	c3 01       	movw	r24, r6
    5768:	0e 94 31 02 	call	0x462	; 0x462 <_ZN6EEProm4readEj>
    576c:	1f 92       	push	r1
    576e:	8f 93       	push	r24
    5770:	5f 92       	push	r5
    5772:	4f 92       	push	r4
    5774:	9f 92       	push	r9
    5776:	8f 92       	push	r8
    5778:	5f 92       	push	r5
    577a:	4f 92       	push	r4
    577c:	0e 94 34 36 	call	0x6c68	; 0x6c68 <sprintf>
    5780:	b8 01       	movw	r22, r16
    5782:	68 5f       	subi	r22, 0xF8	; 248
    5784:	7f 4f       	sbci	r23, 0xFF	; 255
			sprintf(op3s,"%s%x",op3s,eeprom.read(eeprom_line_selection+FIXED_OP3_OFFSET+k)); // HEX CONCAT TO STRING (OP3 FETCH)
    5786:	c3 01       	movw	r24, r6
    5788:	0e 94 31 02 	call	0x462	; 0x462 <_ZN6EEProm4readEj>
    578c:	1f 92       	push	r1
    578e:	8f 93       	push	r24
    5790:	2f 89       	ldd	r18, Y+23	; 0x17
    5792:	2f 93       	push	r18
    5794:	3e 89       	ldd	r19, Y+22	; 0x16
    5796:	3f 93       	push	r19
    5798:	9f 92       	push	r9
    579a:	8f 92       	push	r8
    579c:	2f 93       	push	r18
    579e:	3f 93       	push	r19
    57a0:	0e 94 34 36 	call	0x6c68	; 0x6c68 <sprintf>
    57a4:	0f 5f       	subi	r16, 0xFF	; 255
    57a6:	1f 4f       	sbci	r17, 0xFF	; 255
	for(int program_counter=0;program_counter<program_counter_maximum;program_counter++){
		//FETCH OPERANDS FROM THE EEPROM:
		int eeprom_line_selection=program_counter*line_width;
		int func=0;	char op1s[OP1_WIDTH]=""; char op2s[OP2_WIDTH]=""; char op3s[OP3_WIDTH]="";
		func=eeprom.read(eeprom_line_selection+FIXED_FUNC_OFFSET); // FUNCTION FETCH
		for(int k=0;k<QUBIT_BYTE_SIZE;k++){
    57a8:	0f b6       	in	r0, 0x3f	; 63
    57aa:	f8 94       	cli
    57ac:	de bf       	out	0x3e, r29	; 62
    57ae:	0f be       	out	0x3f, r0	; 63
    57b0:	cd bf       	out	0x3d, r28	; 61
    57b2:	0c 15       	cp	r16, r12
    57b4:	1d 05       	cpc	r17, r13
    57b6:	31 f6       	brne	.-116    	; 0x5744 <_ZN4QEPU3runEv+0x10c>
			sprintf(op1s,"%s%x",op1s,eeprom.read(eeprom_line_selection+FIXED_OP1_OFFSET+k)); // HEX CONCAT TO STRING (OP1 FETCH)
			sprintf(op2s,"%s%x",op2s,eeprom.read(eeprom_line_selection+FIXED_OP2_OFFSET+k)); // HEX CONCAT TO STRING (OP2 FETCH)
			sprintf(op3s,"%s%x",op3s,eeprom.read(eeprom_line_selection+FIXED_OP3_OFFSET+k)); // HEX CONCAT TO STRING (OP3 FETCH)
		}
		//EXECUTE:
		execute(func,strtol(op1s,NULL,16),strtol(op2s,NULL,16),strtol(op3s,NULL,16)); //INSTRUCTION DECODE AND EXECUTE
    57b8:	40 e1       	ldi	r20, 0x10	; 16
    57ba:	50 e0       	ldi	r21, 0x00	; 0
    57bc:	60 e0       	ldi	r22, 0x00	; 0
    57be:	70 e0       	ldi	r23, 0x00	; 0
    57c0:	8a a5       	ldd	r24, Y+42	; 0x2a
    57c2:	9b a5       	ldd	r25, Y+43	; 0x2b
    57c4:	0e 94 e8 34 	call	0x69d0	; 0x69d0 <strtol>
    57c8:	5b 01       	movw	r10, r22
    57ca:	6c 01       	movw	r12, r24
    57cc:	40 e1       	ldi	r20, 0x10	; 16
    57ce:	50 e0       	ldi	r21, 0x00	; 0
    57d0:	60 e0       	ldi	r22, 0x00	; 0
    57d2:	70 e0       	ldi	r23, 0x00	; 0
    57d4:	88 a5       	ldd	r24, Y+40	; 0x28
    57d6:	99 a5       	ldd	r25, Y+41	; 0x29
    57d8:	0e 94 e8 34 	call	0x69d0	; 0x69d0 <strtol>
    57dc:	6e 8f       	std	Y+30, r22	; 0x1e
    57de:	7f 8f       	std	Y+31, r23	; 0x1f
    57e0:	88 a3       	std	Y+32, r24	; 0x20
    57e2:	99 a3       	std	Y+33, r25	; 0x21
    57e4:	40 e1       	ldi	r20, 0x10	; 16
    57e6:	50 e0       	ldi	r21, 0x00	; 0
    57e8:	60 e0       	ldi	r22, 0x00	; 0
    57ea:	70 e0       	ldi	r23, 0x00	; 0
    57ec:	8e a1       	ldd	r24, Y+38	; 0x26
    57ee:	9f a1       	ldd	r25, Y+39	; 0x27
    57f0:	0e 94 e8 34 	call	0x69d0	; 0x69d0 <strtol>
    57f4:	9b 01       	movw	r18, r22
    57f6:	ac 01       	movw	r20, r24
    57f8:	ee 8c       	ldd	r14, Y+30	; 0x1e
    57fa:	ff 8c       	ldd	r15, Y+31	; 0x1f
    57fc:	08 a1       	ldd	r16, Y+32	; 0x20
    57fe:	19 a1       	ldd	r17, Y+33	; 0x21
    5800:	6c 8d       	ldd	r22, Y+28	; 0x1c
    5802:	7d 8d       	ldd	r23, Y+29	; 0x1d
    5804:	8a a1       	ldd	r24, Y+34	; 0x22
    5806:	9b a1       	ldd	r25, Y+35	; 0x23
    5808:	0e 94 9b 21 	call	0x4336	; 0x4336 <_ZN4QEPU7executeEilll>
	//TEMPORARY PRINTING FOR DEBUGGING PURPOSES
	serial.writestrln(" RUNNING "); serial.writestrln("");
	
	int line_width=INSTR_WIDTH;
	program_counter_maximum=eeprom.count_lines();
	for(int program_counter=0;program_counter<program_counter_maximum;program_counter++){
    580c:	ea 8d       	ldd	r30, Y+26	; 0x1a
    580e:	fb 8d       	ldd	r31, Y+27	; 0x1b
    5810:	31 96       	adiw	r30, 0x01	; 1
    5812:	fb 8f       	std	Y+27, r31	; 0x1b
    5814:	ea 8f       	std	Y+26, r30	; 0x1a
    5816:	28 8d       	ldd	r18, Y+24	; 0x18
    5818:	39 8d       	ldd	r19, Y+25	; 0x19
    581a:	23 5f       	subi	r18, 0xF3	; 243
    581c:	3f 4f       	sbci	r19, 0xFF	; 255
    581e:	39 8f       	std	Y+25, r19	; 0x19
    5820:	28 8f       	std	Y+24, r18	; 0x18
    5822:	ec a1       	ldd	r30, Y+36	; 0x24
    5824:	fd a1       	ldd	r31, Y+37	; 0x25
    5826:	80 81       	ld	r24, Z
    5828:	91 81       	ldd	r25, Z+1	; 0x01
    582a:	2a 8d       	ldd	r18, Y+26	; 0x1a
    582c:	3b 8d       	ldd	r19, Y+27	; 0x1b
    582e:	28 17       	cp	r18, r24
    5830:	39 07       	cpc	r19, r25
    5832:	0c f4       	brge	.+2      	; 0x5836 <_ZN4QEPU3runEv+0x1fe>
    5834:	60 cf       	rjmp	.-320    	; 0x56f6 <_ZN4QEPU3runEv+0xbe>
			sprintf(op3s,"%s%x",op3s,eeprom.read(eeprom_line_selection+FIXED_OP3_OFFSET+k)); // HEX CONCAT TO STRING (OP3 FETCH)
		}
		//EXECUTE:
		execute(func,strtol(op1s,NULL,16),strtol(op2s,NULL,16),strtol(op3s,NULL,16)); //INSTRUCTION DECODE AND EXECUTE
	}
	dumpmem(QUBIT_COUNT);
    5836:	60 e1       	ldi	r22, 0x10	; 16
    5838:	70 e0       	ldi	r23, 0x00	; 0
    583a:	8a a1       	ldd	r24, Y+34	; 0x22
    583c:	9b a1       	ldd	r25, Y+35	; 0x23
    583e:	0e 94 fc 20 	call	0x41f8	; 0x41f8 <_ZN4QEPU7dumpmemEi>
	serial.writestrln("");
    5842:	65 ec       	ldi	r22, 0xC5	; 197
    5844:	70 e0       	ldi	r23, 0x00	; 0
    5846:	8c a5       	ldd	r24, Y+44	; 0x2c
    5848:	9d a5       	ldd	r25, Y+45	; 0x2d
    584a:	0e 94 4a 2e 	call	0x5c94	; 0x5c94 <_ZN6Serial10writestrlnEPc>
	sram.dumpmem(5);
    584e:	65 e0       	ldi	r22, 0x05	; 5
    5850:	70 e0       	ldi	r23, 0x00	; 0
    5852:	8a a1       	ldd	r24, Y+34	; 0x22
    5854:	9b a1       	ldd	r25, Y+35	; 0x23
    5856:	03 96       	adiw	r24, 0x03	; 3
    5858:	0e 94 b5 2d 	call	0x5b6a	; 0x5b6a <_ZN4SRAM7dumpmemEi>
	serial.writestr("The execution of the program has finished");
    585c:	6f ed       	ldi	r22, 0xDF	; 223
    585e:	70 e0       	ldi	r23, 0x00	; 0
    5860:	8c a5       	ldd	r24, Y+44	; 0x2c
    5862:	9d a5       	ldd	r25, Y+45	; 0x2d
    5864:	0e 94 35 2e 	call	0x5c6a	; 0x5c6a <_ZN6Serial8writestrEPc>
	#pragma endregion
}
    5868:	ad 96       	adiw	r28, 0x2d	; 45
    586a:	0f b6       	in	r0, 0x3f	; 63
    586c:	f8 94       	cli
    586e:	de bf       	out	0x3e, r29	; 62
    5870:	0f be       	out	0x3f, r0	; 63
    5872:	cd bf       	out	0x3d, r28	; 61
    5874:	df 91       	pop	r29
    5876:	cf 91       	pop	r28
    5878:	1f 91       	pop	r17
    587a:	0f 91       	pop	r16
    587c:	ff 90       	pop	r15
    587e:	ef 90       	pop	r14
    5880:	df 90       	pop	r13
    5882:	cf 90       	pop	r12
    5884:	bf 90       	pop	r11
    5886:	af 90       	pop	r10
    5888:	9f 90       	pop	r9
    588a:	8f 90       	pop	r8
    588c:	7f 90       	pop	r7
    588e:	6f 90       	pop	r6
    5890:	5f 90       	pop	r5
    5892:	4f 90       	pop	r4
    5894:	3f 90       	pop	r3
    5896:	2f 90       	pop	r2
    5898:	08 95       	ret

0000589a <main>:
#include "qepu.h"
int main(void){
    589a:	cf 93       	push	r28
    589c:	df 93       	push	r29
    589e:	cd b7       	in	r28, 0x3d	; 61
    58a0:	de b7       	in	r29, 0x3e	; 62
    58a2:	cb 5d       	subi	r28, 0xDB	; 219
    58a4:	d1 09       	sbc	r29, r1
    58a6:	0f b6       	in	r0, 0x3f	; 63
    58a8:	f8 94       	cli
    58aa:	de bf       	out	0x3e, r29	; 62
    58ac:	0f be       	out	0x3f, r0	; 63
    58ae:	cd bf       	out	0x3d, r28	; 61
	QEPU qepu;
    58b0:	ce 01       	movw	r24, r28
    58b2:	01 96       	adiw	r24, 0x01	; 1
    58b4:	0e 94 bd 1e 	call	0x3d7a	; 0x3d7a <_ZN4QEPUC1Ev>
	qepu.run();
    58b8:	ce 01       	movw	r24, r28
    58ba:	01 96       	adiw	r24, 0x01	; 1
    58bc:	0e 94 1c 2b 	call	0x5638	; 0x5638 <_ZN4QEPU3runEv>
    58c0:	ff cf       	rjmp	.-2      	; 0x58c0 <main+0x26>

000058c2 <_ZN4SRAM4initEv>:
#include "sram.h"

SRAM::SRAM(){
	init();
}
void SRAM::init(){
    58c2:	fc 01       	movw	r30, r24
	CTRLMEM_DIR=OUTPUT;
    58c4:	8f ef       	ldi	r24, 0xFF	; 255
    58c6:	84 bb       	out	0x14, r24	; 20
	stack_head_offset=MEMORY_HEAD_PERMISSION_OFFSET+HEAD_PROGRAMMER_OFFSET;
    58c8:	84 e1       	ldi	r24, 0x14	; 20
    58ca:	90 e0       	ldi	r25, 0x00	; 0
    58cc:	91 83       	std	Z+1, r25	; 0x01
    58ce:	80 83       	st	Z, r24
	stack_tail_offset=ADDRESS_MAX-MEMORY_TAIL_PERMISSION_OFFSET-TAIL_PROGRAMMER_OFFSET;
    58d0:	88 e3       	ldi	r24, 0x38	; 56
    58d2:	90 e0       	ldi	r25, 0x00	; 0
    58d4:	95 83       	std	Z+5, r25	; 0x05
    58d6:	84 83       	std	Z+4, r24	; 0x04
	memory_restrictedaccess_allowed=false;
    58d8:	16 82       	std	Z+6, r1	; 0x06
    58da:	08 95       	ret

000058dc <_ZN4SRAMC1Ev>:
#include "sram.h"

SRAM::SRAM(){
    58dc:	cf 93       	push	r28
    58de:	df 93       	push	r29
    58e0:	ec 01       	movw	r28, r24
    58e2:	03 96       	adiw	r24, 0x03	; 3
    58e4:	0e 94 29 2e 	call	0x5c52	; 0x5c52 <_ZN6SerialC1Ev>
	init();
    58e8:	ce 01       	movw	r24, r28
    58ea:	0e 94 61 2c 	call	0x58c2	; 0x58c2 <_ZN4SRAM4initEv>
}
    58ee:	df 91       	pop	r29
    58f0:	cf 91       	pop	r28
    58f2:	08 95       	ret

000058f4 <_ZN4SRAM11set_addressEi>:
	stack_tail_offset=ADDRESS_MAX-MEMORY_TAIL_PERMISSION_OFFSET-TAIL_PROGRAMMER_OFFSET;
	memory_restrictedaccess_allowed=false;
}

void SRAM::set_address(int address){
	MEM_ADDRESS_DIR=OUTPUT;
    58f4:	2f ef       	ldi	r18, 0xFF	; 255
    58f6:	2a bb       	out	0x1a, r18	; 26
	if(!memory_restrictedaccess_allowed)
    58f8:	fc 01       	movw	r30, r24
    58fa:	26 81       	ldd	r18, Z+6	; 0x06
    58fc:	21 11       	cpse	r18, r1
    58fe:	0f c0       	rjmp	.+30     	; 0x591e <_ZN4SRAM11set_addressEi+0x2a>
		if(address+stack_head_offset>stack_tail_offset)MEM_ADDRESS=stack_tail_offset;
    5900:	20 81       	ld	r18, Z
    5902:	31 81       	ldd	r19, Z+1	; 0x01
    5904:	84 81       	ldd	r24, Z+4	; 0x04
    5906:	95 81       	ldd	r25, Z+5	; 0x05
    5908:	a9 01       	movw	r20, r18
    590a:	46 0f       	add	r20, r22
    590c:	57 1f       	adc	r21, r23
    590e:	84 17       	cp	r24, r20
    5910:	95 07       	cpc	r25, r21
    5912:	14 f4       	brge	.+4      	; 0x5918 <_ZN4SRAM11set_addressEi+0x24>
    5914:	8b bb       	out	0x1b, r24	; 27
    5916:	08 95       	ret
		else MEM_ADDRESS=address+stack_head_offset;
    5918:	62 0f       	add	r22, r18
    591a:	6b bb       	out	0x1b, r22	; 27
    591c:	08 95       	ret
	else MEM_ADDRESS=address;
    591e:	6b bb       	out	0x1b, r22	; 27
    5920:	08 95       	ret

00005922 <_ZN4SRAM10setctrlpinEii>:
void SRAM::bus_write(int data){
	BUS_DIR=OUTPUT;
	BUS_OUT=data;
}
void SRAM::setctrlpin(int pin,int state){
	CTRLMEM&=~(1<<pin); // CLEAR PIN
    5922:	75 b3       	in	r23, 0x15	; 21
    5924:	21 e0       	ldi	r18, 0x01	; 1
    5926:	30 e0       	ldi	r19, 0x00	; 0
    5928:	c9 01       	movw	r24, r18
    592a:	06 2e       	mov	r0, r22
    592c:	02 c0       	rjmp	.+4      	; 0x5932 <_ZN4SRAM10setctrlpinEii+0x10>
    592e:	88 0f       	add	r24, r24
    5930:	99 1f       	adc	r25, r25
    5932:	0a 94       	dec	r0
    5934:	e2 f7       	brpl	.-8      	; 0x592e <_ZN4SRAM10setctrlpinEii+0xc>
    5936:	80 95       	com	r24
    5938:	87 23       	and	r24, r23
    593a:	85 bb       	out	0x15, r24	; 21
	CTRLMEM|=(state<<pin); // SET PIN
    593c:	85 b3       	in	r24, 0x15	; 21
    593e:	02 c0       	rjmp	.+4      	; 0x5944 <_ZN4SRAM10setctrlpinEii+0x22>
    5940:	44 0f       	add	r20, r20
    5942:	55 1f       	adc	r21, r21
    5944:	6a 95       	dec	r22
    5946:	e2 f7       	brpl	.-8      	; 0x5940 <_ZN4SRAM10setctrlpinEii+0x1e>
    5948:	48 2b       	or	r20, r24
    594a:	45 bb       	out	0x15, r20	; 21
    594c:	08 95       	ret

0000594e <_ZN4SRAM17memory_managementEv>:
		serial.writestrln(mem_debug_str);
	}
}

void SRAM::memory_management(){
	if(stack_head_offset>stack_tail_offset || stack_head_offset<0 || stack_head_offset>ADDRESS_MAX || stack_tail_offset<0 || stack_tail_offset>ADDRESS_MAX){
    594e:	fc 01       	movw	r30, r24
    5950:	20 81       	ld	r18, Z
    5952:	31 81       	ldd	r19, Z+1	; 0x01
    5954:	44 81       	ldd	r20, Z+4	; 0x04
    5956:	55 81       	ldd	r21, Z+5	; 0x05
    5958:	42 17       	cp	r20, r18
    595a:	53 07       	cpc	r21, r19
    595c:	34 f0       	brlt	.+12     	; 0x596a <_ZN4SRAM17memory_managementEv+0x1c>
    595e:	21 30       	cpi	r18, 0x01	; 1
    5960:	31 40       	sbci	r19, 0x01	; 1
    5962:	18 f4       	brcc	.+6      	; 0x596a <_ZN4SRAM17memory_managementEv+0x1c>
    5964:	41 30       	cpi	r20, 0x01	; 1
    5966:	51 40       	sbci	r21, 0x01	; 1
    5968:	10 f0       	brcs	.+4      	; 0x596e <_ZN4SRAM17memory_managementEv+0x20>
		init(); //RESTORE STACK POINTERS TO DEFAULT
    596a:	0e 94 61 2c 	call	0x58c2	; 0x58c2 <_ZN4SRAM4initEv>
    596e:	08 95       	ret

00005970 <_ZN4SRAM4readEi>:
		if(address+stack_head_offset>stack_tail_offset)MEM_ADDRESS=stack_tail_offset;
		else MEM_ADDRESS=address+stack_head_offset;
	else MEM_ADDRESS=address;
}

int8_t SRAM::read(int address){
    5970:	0f 93       	push	r16
    5972:	1f 93       	push	r17
    5974:	cf 93       	push	r28
    5976:	df 93       	push	r29
    5978:	ec 01       	movw	r28, r24
    597a:	8b 01       	movw	r16, r22
	memory_management();
    597c:	0e 94 a7 2c 	call	0x594e	; 0x594e <_ZN4SRAM17memory_managementEv>
	set_address(address);
    5980:	b8 01       	movw	r22, r16
    5982:	ce 01       	movw	r24, r28
    5984:	0e 94 7a 2c 	call	0x58f4	; 0x58f4 <_ZN4SRAM11set_addressEi>
	BUS_DIR=INPUT;
    5988:	17 ba       	out	0x17, r1	; 23
	setctrlpin(MRE,HIGH);
    598a:	41 e0       	ldi	r20, 0x01	; 1
    598c:	50 e0       	ldi	r21, 0x00	; 0
    598e:	66 e0       	ldi	r22, 0x06	; 6
    5990:	70 e0       	ldi	r23, 0x00	; 0
    5992:	ce 01       	movw	r24, r28
    5994:	0e 94 91 2c 	call	0x5922	; 0x5922 <_ZN4SRAM10setctrlpinEii>
	int bus_data=BUS_IN;
    5998:	16 b3       	in	r17, 0x16	; 22
	setctrlpin(MRE,LOW);
    599a:	40 e0       	ldi	r20, 0x00	; 0
    599c:	50 e0       	ldi	r21, 0x00	; 0
    599e:	66 e0       	ldi	r22, 0x06	; 6
    59a0:	70 e0       	ldi	r23, 0x00	; 0
    59a2:	ce 01       	movw	r24, r28
    59a4:	0e 94 91 2c 	call	0x5922	; 0x5922 <_ZN4SRAM10setctrlpinEii>
	BUS_DIR=OUTPUT;
    59a8:	8f ef       	ldi	r24, 0xFF	; 255
    59aa:	87 bb       	out	0x17, r24	; 23
	MEM_ADDRESS=LOW;
    59ac:	1b ba       	out	0x1b, r1	; 27
	return bus_data;
}
    59ae:	81 2f       	mov	r24, r17
    59b0:	df 91       	pop	r29
    59b2:	cf 91       	pop	r28
    59b4:	1f 91       	pop	r17
    59b6:	0f 91       	pop	r16
    59b8:	08 95       	ret

000059ba <_ZN4SRAM9read_sramEv>:
	}else{
		stack_head_offset--;
		write(0,register_data);
	}
}
int* SRAM::read_sram(){
    59ba:	cf 92       	push	r12
    59bc:	df 92       	push	r13
    59be:	ef 92       	push	r14
    59c0:	ff 92       	push	r15
    59c2:	0f 93       	push	r16
    59c4:	1f 93       	push	r17
    59c6:	cf 93       	push	r28
    59c8:	df 93       	push	r29
    59ca:	cd b7       	in	r28, 0x3d	; 61
    59cc:	de b7       	in	r29, 0x3e	; 62
    59ce:	d2 50       	subi	r29, 0x02	; 2
    59d0:	0f b6       	in	r0, 0x3f	; 63
    59d2:	f8 94       	cli
    59d4:	de bf       	out	0x3e, r29	; 62
    59d6:	0f be       	out	0x3f, r0	; 63
    59d8:	cd bf       	out	0x3d, r28	; 61
    59da:	7c 01       	movw	r14, r24
	int ram_memory[ADDRESS_MAX];
	for(int i=stack_head_offset;i<stack_tail_offset;i++) ram_memory[i]=read(i);
    59dc:	fc 01       	movw	r30, r24
    59de:	00 81       	ld	r16, Z
    59e0:	11 81       	ldd	r17, Z+1	; 0x01
    59e2:	84 81       	ldd	r24, Z+4	; 0x04
    59e4:	95 81       	ldd	r25, Z+5	; 0x05
    59e6:	08 17       	cp	r16, r24
    59e8:	19 07       	cpc	r17, r25
    59ea:	e4 f4       	brge	.+56     	; 0x5a24 <_ZN4SRAM9read_sramEv+0x6a>
    59ec:	68 01       	movw	r12, r16
    59ee:	cc 0c       	add	r12, r12
    59f0:	dd 1c       	adc	r13, r13
    59f2:	81 e0       	ldi	r24, 0x01	; 1
    59f4:	90 e0       	ldi	r25, 0x00	; 0
    59f6:	8c 0f       	add	r24, r28
    59f8:	9d 1f       	adc	r25, r29
    59fa:	c8 0e       	add	r12, r24
    59fc:	d9 1e       	adc	r13, r25
    59fe:	b8 01       	movw	r22, r16
    5a00:	c7 01       	movw	r24, r14
    5a02:	0e 94 b8 2c 	call	0x5970	; 0x5970 <_ZN4SRAM4readEi>
    5a06:	99 27       	eor	r25, r25
    5a08:	87 fd       	sbrc	r24, 7
    5a0a:	90 95       	com	r25
    5a0c:	f6 01       	movw	r30, r12
    5a0e:	81 93       	st	Z+, r24
    5a10:	91 93       	st	Z+, r25
    5a12:	6f 01       	movw	r12, r30
    5a14:	0f 5f       	subi	r16, 0xFF	; 255
    5a16:	1f 4f       	sbci	r17, 0xFF	; 255
    5a18:	f7 01       	movw	r30, r14
    5a1a:	84 81       	ldd	r24, Z+4	; 0x04
    5a1c:	95 81       	ldd	r25, Z+5	; 0x05
    5a1e:	08 17       	cp	r16, r24
    5a20:	19 07       	cpc	r17, r25
    5a22:	6c f3       	brlt	.-38     	; 0x59fe <_ZN4SRAM9read_sramEv+0x44>
	return ram_memory;
}
    5a24:	ce 01       	movw	r24, r28
    5a26:	01 96       	adiw	r24, 0x01	; 1
    5a28:	de 5f       	subi	r29, 0xFE	; 254
    5a2a:	0f b6       	in	r0, 0x3f	; 63
    5a2c:	f8 94       	cli
    5a2e:	de bf       	out	0x3e, r29	; 62
    5a30:	0f be       	out	0x3f, r0	; 63
    5a32:	cd bf       	out	0x3d, r28	; 61
    5a34:	df 91       	pop	r29
    5a36:	cf 91       	pop	r28
    5a38:	1f 91       	pop	r17
    5a3a:	0f 91       	pop	r16
    5a3c:	ff 90       	pop	r15
    5a3e:	ef 90       	pop	r14
    5a40:	df 90       	pop	r13
    5a42:	cf 90       	pop	r12
    5a44:	08 95       	ret

00005a46 <_ZN4SRAM5writeEii>:
	setctrlpin(MRE,LOW);
	BUS_DIR=OUTPUT;
	MEM_ADDRESS=LOW;
	return bus_data;
}
void SRAM::write(int address,int data){
    5a46:	ff 92       	push	r15
    5a48:	0f 93       	push	r16
    5a4a:	1f 93       	push	r17
    5a4c:	cf 93       	push	r28
    5a4e:	df 93       	push	r29
    5a50:	ec 01       	movw	r28, r24
    5a52:	8b 01       	movw	r16, r22
    5a54:	f4 2e       	mov	r15, r20
	memory_management();
    5a56:	0e 94 a7 2c 	call	0x594e	; 0x594e <_ZN4SRAM17memory_managementEv>
	set_address(address);
    5a5a:	b8 01       	movw	r22, r16
    5a5c:	ce 01       	movw	r24, r28
    5a5e:	0e 94 7a 2c 	call	0x58f4	; 0x58f4 <_ZN4SRAM11set_addressEi>
	setctrlpin(MWR,LOW);
	MEM_ADDRESS=LOW;
	bus_write(LOW);
}
void SRAM::bus_write(int data){
	BUS_DIR=OUTPUT;
    5a62:	1f ef       	ldi	r17, 0xFF	; 255
    5a64:	17 bb       	out	0x17, r17	; 23
	BUS_OUT=data;
    5a66:	f8 ba       	out	0x18, r15	; 24
}
void SRAM::write(int address,int data){
	memory_management();
	set_address(address);
	bus_write(data);
	setctrlpin(MWR,HIGH);
    5a68:	41 e0       	ldi	r20, 0x01	; 1
    5a6a:	50 e0       	ldi	r21, 0x00	; 0
    5a6c:	65 e0       	ldi	r22, 0x05	; 5
    5a6e:	70 e0       	ldi	r23, 0x00	; 0
    5a70:	ce 01       	movw	r24, r28
    5a72:	0e 94 91 2c 	call	0x5922	; 0x5922 <_ZN4SRAM10setctrlpinEii>
	setctrlpin(MWR,LOW);
    5a76:	40 e0       	ldi	r20, 0x00	; 0
    5a78:	50 e0       	ldi	r21, 0x00	; 0
    5a7a:	65 e0       	ldi	r22, 0x05	; 5
    5a7c:	70 e0       	ldi	r23, 0x00	; 0
    5a7e:	ce 01       	movw	r24, r28
    5a80:	0e 94 91 2c 	call	0x5922	; 0x5922 <_ZN4SRAM10setctrlpinEii>
	MEM_ADDRESS=LOW;
    5a84:	1b ba       	out	0x1b, r1	; 27
	bus_write(LOW);
}
void SRAM::bus_write(int data){
	BUS_DIR=OUTPUT;
    5a86:	17 bb       	out	0x17, r17	; 23
	BUS_OUT=data;
    5a88:	18 ba       	out	0x18, r1	; 24
	bus_write(data);
	setctrlpin(MWR,HIGH);
	setctrlpin(MWR,LOW);
	MEM_ADDRESS=LOW;
	bus_write(LOW);
}
    5a8a:	df 91       	pop	r29
    5a8c:	cf 91       	pop	r28
    5a8e:	1f 91       	pop	r17
    5a90:	0f 91       	pop	r16
    5a92:	ff 90       	pop	r15
    5a94:	08 95       	ret

00005a96 <_ZN4SRAM3popEv>:
}
void SRAM::setctrlpin(int pin,int state){
	CTRLMEM&=~(1<<pin); // CLEAR PIN
	CTRLMEM|=(state<<pin); // SET PIN
}
int SRAM::pop(){
    5a96:	cf 93       	push	r28
    5a98:	df 93       	push	r29
    5a9a:	ec 01       	movw	r28, r24
	memory_management();
    5a9c:	0e 94 a7 2c 	call	0x594e	; 0x594e <_ZN4SRAM17memory_managementEv>
	int popped_number=read(0);
    5aa0:	60 e0       	ldi	r22, 0x00	; 0
    5aa2:	70 e0       	ldi	r23, 0x00	; 0
    5aa4:	ce 01       	movw	r24, r28
    5aa6:	0e 94 b8 2c 	call	0x5970	; 0x5970 <_ZN4SRAM4readEi>
	stack_head_offset++;
    5aaa:	28 81       	ld	r18, Y
    5aac:	39 81       	ldd	r19, Y+1	; 0x01
    5aae:	2f 5f       	subi	r18, 0xFF	; 255
    5ab0:	3f 4f       	sbci	r19, 0xFF	; 255
    5ab2:	39 83       	std	Y+1, r19	; 0x01
    5ab4:	28 83       	st	Y, r18
	if(stack_head_offset>stack_tail_offset) return 0;
    5ab6:	4c 81       	ldd	r20, Y+4	; 0x04
    5ab8:	5d 81       	ldd	r21, Y+5	; 0x05
    5aba:	42 17       	cp	r20, r18
    5abc:	53 07       	cpc	r21, r19
    5abe:	24 f0       	brlt	.+8      	; 0x5ac8 <_ZN4SRAM3popEv+0x32>
	CTRLMEM&=~(1<<pin); // CLEAR PIN
	CTRLMEM|=(state<<pin); // SET PIN
}
int SRAM::pop(){
	memory_management();
	int popped_number=read(0);
    5ac0:	99 27       	eor	r25, r25
    5ac2:	87 fd       	sbrc	r24, 7
    5ac4:	90 95       	com	r25
	stack_head_offset++;
	if(stack_head_offset>stack_tail_offset) return 0;
	else return popped_number;
    5ac6:	02 c0       	rjmp	.+4      	; 0x5acc <_ZN4SRAM3popEv+0x36>
}
int SRAM::pop(){
	memory_management();
	int popped_number=read(0);
	stack_head_offset++;
	if(stack_head_offset>stack_tail_offset) return 0;
    5ac8:	80 e0       	ldi	r24, 0x00	; 0
    5aca:	90 e0       	ldi	r25, 0x00	; 0
	else return popped_number;
}
    5acc:	df 91       	pop	r29
    5ace:	cf 91       	pop	r28
    5ad0:	08 95       	ret

00005ad2 <_ZN4SRAM4pushEi>:
void SRAM::push(int register_data){
    5ad2:	ef 92       	push	r14
    5ad4:	ff 92       	push	r15
    5ad6:	0f 93       	push	r16
    5ad8:	1f 93       	push	r17
    5ada:	cf 93       	push	r28
    5adc:	df 93       	push	r29
    5ade:	8c 01       	movw	r16, r24
    5ae0:	eb 01       	movw	r28, r22
	memory_management();
    5ae2:	0e 94 a7 2c 	call	0x594e	; 0x594e <_ZN4SRAM17memory_managementEv>
	if(stack_head_offset<=MEMORY_HEAD_PERMISSION_OFFSET){ //PUSH EVERY OTHER ELEMENT FORWARD ****
    5ae6:	f8 01       	movw	r30, r16
    5ae8:	80 81       	ld	r24, Z
    5aea:	91 81       	ldd	r25, Z+1	; 0x01
    5aec:	18 16       	cp	r1, r24
    5aee:	19 06       	cpc	r1, r25
    5af0:	5c f1       	brlt	.+86     	; 0x5b48 <_ZN4SRAM4pushEi+0x76>
		int *ram_memory=utils.arrint_shiftright(read_sram(),register_data,stack_tail_offset-stack_head_offset);
    5af2:	e4 80       	ldd	r14, Z+4	; 0x04
    5af4:	f5 80       	ldd	r15, Z+5	; 0x05
    5af6:	e8 1a       	sub	r14, r24
    5af8:	f9 0a       	sbc	r15, r25
    5afa:	c8 01       	movw	r24, r16
    5afc:	0e 94 dd 2c 	call	0x59ba	; 0x59ba <_ZN4SRAM9read_sramEv>
    5b00:	97 01       	movw	r18, r14
    5b02:	ae 01       	movw	r20, r28
    5b04:	bc 01       	movw	r22, r24
    5b06:	c8 01       	movw	r24, r16
    5b08:	02 96       	adiw	r24, 0x02	; 2
    5b0a:	0e 94 e4 2e 	call	0x5dc8	; 0x5dc8 <_ZN5Utils17arrint_shiftrightEPiii>
		for(int i=stack_head_offset;i<stack_tail_offset;i++) write(i,ram_memory[i]);
    5b0e:	f8 01       	movw	r30, r16
    5b10:	c0 81       	ld	r28, Z
    5b12:	d1 81       	ldd	r29, Z+1	; 0x01
    5b14:	24 81       	ldd	r18, Z+4	; 0x04
    5b16:	35 81       	ldd	r19, Z+5	; 0x05
    5b18:	c2 17       	cp	r28, r18
    5b1a:	d3 07       	cpc	r29, r19
    5b1c:	fc f4       	brge	.+62     	; 0x5b5c <_ZN4SRAM4pushEi+0x8a>
    5b1e:	7e 01       	movw	r14, r28
    5b20:	ee 0c       	add	r14, r14
    5b22:	ff 1c       	adc	r15, r15
    5b24:	e8 0e       	add	r14, r24
    5b26:	f9 1e       	adc	r15, r25
    5b28:	f7 01       	movw	r30, r14
    5b2a:	41 91       	ld	r20, Z+
    5b2c:	51 91       	ld	r21, Z+
    5b2e:	7f 01       	movw	r14, r30
    5b30:	be 01       	movw	r22, r28
    5b32:	c8 01       	movw	r24, r16
    5b34:	0e 94 23 2d 	call	0x5a46	; 0x5a46 <_ZN4SRAM5writeEii>
    5b38:	21 96       	adiw	r28, 0x01	; 1
    5b3a:	f8 01       	movw	r30, r16
    5b3c:	84 81       	ldd	r24, Z+4	; 0x04
    5b3e:	95 81       	ldd	r25, Z+5	; 0x05
    5b40:	c8 17       	cp	r28, r24
    5b42:	d9 07       	cpc	r29, r25
    5b44:	8c f3       	brlt	.-30     	; 0x5b28 <_ZN4SRAM4pushEi+0x56>
    5b46:	0a c0       	rjmp	.+20     	; 0x5b5c <_ZN4SRAM4pushEi+0x8a>
	}else{
		stack_head_offset--;
    5b48:	01 97       	sbiw	r24, 0x01	; 1
    5b4a:	f8 01       	movw	r30, r16
    5b4c:	91 83       	std	Z+1, r25	; 0x01
    5b4e:	80 83       	st	Z, r24
		write(0,register_data);
    5b50:	ae 01       	movw	r20, r28
    5b52:	60 e0       	ldi	r22, 0x00	; 0
    5b54:	70 e0       	ldi	r23, 0x00	; 0
    5b56:	c8 01       	movw	r24, r16
    5b58:	0e 94 23 2d 	call	0x5a46	; 0x5a46 <_ZN4SRAM5writeEii>
	}
}
    5b5c:	df 91       	pop	r29
    5b5e:	cf 91       	pop	r28
    5b60:	1f 91       	pop	r17
    5b62:	0f 91       	pop	r16
    5b64:	ff 90       	pop	r15
    5b66:	ef 90       	pop	r14
    5b68:	08 95       	ret

00005b6a <_ZN4SRAM7dumpmemEi>:
int* SRAM::read_sram(){
	int ram_memory[ADDRESS_MAX];
	for(int i=stack_head_offset;i<stack_tail_offset;i++) ram_memory[i]=read(i);
	return ram_memory;
}
void SRAM::dumpmem(int length){
    5b6a:	6f 92       	push	r6
    5b6c:	7f 92       	push	r7
    5b6e:	8f 92       	push	r8
    5b70:	9f 92       	push	r9
    5b72:	af 92       	push	r10
    5b74:	bf 92       	push	r11
    5b76:	cf 92       	push	r12
    5b78:	df 92       	push	r13
    5b7a:	ef 92       	push	r14
    5b7c:	ff 92       	push	r15
    5b7e:	0f 93       	push	r16
    5b80:	1f 93       	push	r17
    5b82:	cf 93       	push	r28
    5b84:	df 93       	push	r29
    5b86:	cd b7       	in	r28, 0x3d	; 61
    5b88:	de b7       	in	r29, 0x3e	; 62
    5b8a:	a8 97       	sbiw	r28, 0x28	; 40
    5b8c:	0f b6       	in	r0, 0x3f	; 63
    5b8e:	f8 94       	cli
    5b90:	de bf       	out	0x3e, r29	; 62
    5b92:	0f be       	out	0x3f, r0	; 63
    5b94:	cd bf       	out	0x3d, r28	; 61
    5b96:	6c 01       	movw	r12, r24
    5b98:	5b 01       	movw	r10, r22
	memory_management();
    5b9a:	0e 94 a7 2c 	call	0x594e	; 0x594e <_ZN4SRAM17memory_managementEv>
	int head=0,tail=length;
	if(length<=0){head=stack_head_offset; tail=stack_tail_offset;}
    5b9e:	1a 14       	cp	r1, r10
    5ba0:	1b 04       	cpc	r1, r11
    5ba2:	84 f4       	brge	.+32     	; 0x5bc4 <_ZN4SRAM7dumpmemEi+0x5a>
	for(int i=0;i<tail+head;i++){
    5ba4:	00 e0       	ldi	r16, 0x00	; 0
    5ba6:	10 e0       	ldi	r17, 0x00	; 0
		char mem_debug_str[40];
		sprintf(mem_debug_str,"Address: %d (Off: %d) Data: %d",i,i+stack_head_offset,read(i));
    5ba8:	0f 2e       	mov	r0, r31
    5baa:	f9 e0       	ldi	r31, 0x09	; 9
    5bac:	6f 2e       	mov	r6, r31
    5bae:	f1 e0       	ldi	r31, 0x01	; 1
    5bb0:	7f 2e       	mov	r7, r31
    5bb2:	f0 2d       	mov	r31, r0
    5bb4:	ce 01       	movw	r24, r28
    5bb6:	01 96       	adiw	r24, 0x01	; 1
    5bb8:	7c 01       	movw	r14, r24
		serial.writestrln(mem_debug_str);
    5bba:	46 01       	movw	r8, r12
    5bbc:	93 e0       	ldi	r25, 0x03	; 3
    5bbe:	89 0e       	add	r8, r25
    5bc0:	91 1c       	adc	r9, r1
    5bc2:	0b c0       	rjmp	.+22     	; 0x5bda <_ZN4SRAM7dumpmemEi+0x70>
}
void SRAM::dumpmem(int length){
	memory_management();
	int head=0,tail=length;
	if(length<=0){head=stack_head_offset; tail=stack_tail_offset;}
	for(int i=0;i<tail+head;i++){
    5bc4:	f6 01       	movw	r30, r12
    5bc6:	a0 80       	ld	r10, Z
    5bc8:	b1 80       	ldd	r11, Z+1	; 0x01
    5bca:	84 81       	ldd	r24, Z+4	; 0x04
    5bcc:	95 81       	ldd	r25, Z+5	; 0x05
    5bce:	a8 0e       	add	r10, r24
    5bd0:	b9 1e       	adc	r11, r25
    5bd2:	1a 14       	cp	r1, r10
    5bd4:	1b 04       	cpc	r1, r11
    5bd6:	34 f3       	brlt	.-52     	; 0x5ba4 <_ZN4SRAM7dumpmemEi+0x3a>
    5bd8:	27 c0       	rjmp	.+78     	; 0x5c28 <_ZN4SRAM7dumpmemEi+0xbe>
		char mem_debug_str[40];
		sprintf(mem_debug_str,"Address: %d (Off: %d) Data: %d",i,i+stack_head_offset,read(i));
    5bda:	b8 01       	movw	r22, r16
    5bdc:	c6 01       	movw	r24, r12
    5bde:	0e 94 b8 2c 	call	0x5970	; 0x5970 <_ZN4SRAM4readEi>
    5be2:	28 2f       	mov	r18, r24
    5be4:	33 27       	eor	r19, r19
    5be6:	27 fd       	sbrc	r18, 7
    5be8:	30 95       	com	r19
    5bea:	3f 93       	push	r19
    5bec:	8f 93       	push	r24
    5bee:	f6 01       	movw	r30, r12
    5bf0:	80 81       	ld	r24, Z
    5bf2:	91 81       	ldd	r25, Z+1	; 0x01
    5bf4:	80 0f       	add	r24, r16
    5bf6:	91 1f       	adc	r25, r17
    5bf8:	9f 93       	push	r25
    5bfa:	8f 93       	push	r24
    5bfc:	1f 93       	push	r17
    5bfe:	0f 93       	push	r16
    5c00:	7f 92       	push	r7
    5c02:	6f 92       	push	r6
    5c04:	ff 92       	push	r15
    5c06:	ef 92       	push	r14
    5c08:	0e 94 34 36 	call	0x6c68	; 0x6c68 <sprintf>
		serial.writestrln(mem_debug_str);
    5c0c:	b7 01       	movw	r22, r14
    5c0e:	c4 01       	movw	r24, r8
    5c10:	0e 94 4a 2e 	call	0x5c94	; 0x5c94 <_ZN6Serial10writestrlnEPc>
}
void SRAM::dumpmem(int length){
	memory_management();
	int head=0,tail=length;
	if(length<=0){head=stack_head_offset; tail=stack_tail_offset;}
	for(int i=0;i<tail+head;i++){
    5c14:	0f 5f       	subi	r16, 0xFF	; 255
    5c16:	1f 4f       	sbci	r17, 0xFF	; 255
    5c18:	0f b6       	in	r0, 0x3f	; 63
    5c1a:	f8 94       	cli
    5c1c:	de bf       	out	0x3e, r29	; 62
    5c1e:	0f be       	out	0x3f, r0	; 63
    5c20:	cd bf       	out	0x3d, r28	; 61
    5c22:	0a 15       	cp	r16, r10
    5c24:	1b 05       	cpc	r17, r11
    5c26:	cc f2       	brlt	.-78     	; 0x5bda <_ZN4SRAM7dumpmemEi+0x70>
		char mem_debug_str[40];
		sprintf(mem_debug_str,"Address: %d (Off: %d) Data: %d",i,i+stack_head_offset,read(i));
		serial.writestrln(mem_debug_str);
	}
}
    5c28:	a8 96       	adiw	r28, 0x28	; 40
    5c2a:	0f b6       	in	r0, 0x3f	; 63
    5c2c:	f8 94       	cli
    5c2e:	de bf       	out	0x3e, r29	; 62
    5c30:	0f be       	out	0x3f, r0	; 63
    5c32:	cd bf       	out	0x3d, r28	; 61
    5c34:	df 91       	pop	r29
    5c36:	cf 91       	pop	r28
    5c38:	1f 91       	pop	r17
    5c3a:	0f 91       	pop	r16
    5c3c:	ff 90       	pop	r15
    5c3e:	ef 90       	pop	r14
    5c40:	df 90       	pop	r13
    5c42:	cf 90       	pop	r12
    5c44:	bf 90       	pop	r11
    5c46:	af 90       	pop	r10
    5c48:	9f 90       	pop	r9
    5c4a:	8f 90       	pop	r8
    5c4c:	7f 90       	pop	r7
    5c4e:	6f 90       	pop	r6
    5c50:	08 95       	ret

00005c52 <_ZN6SerialC1Ev>:
    5c52:	83 e3       	ldi	r24, 0x33	; 51
    5c54:	89 b9       	out	0x09, r24	; 9
    5c56:	10 bc       	out	0x20, r1	; 32
    5c58:	86 e8       	ldi	r24, 0x86	; 134
    5c5a:	80 bd       	out	0x20, r24	; 32
    5c5c:	88 e1       	ldi	r24, 0x18	; 24
    5c5e:	8a b9       	out	0x0a, r24	; 10
    5c60:	08 95       	ret

00005c62 <_ZN6Serial5writeEc>:
    5c62:	5d 9b       	sbis	0x0b, 5	; 11
    5c64:	fe cf       	rjmp	.-4      	; 0x5c62 <_ZN6Serial5writeEc>
    5c66:	6c b9       	out	0x0c, r22	; 12
    5c68:	08 95       	ret

00005c6a <_ZN6Serial8writestrEPc>:
    5c6a:	0f 93       	push	r16
    5c6c:	1f 93       	push	r17
    5c6e:	cf 93       	push	r28
    5c70:	df 93       	push	r29
    5c72:	8c 01       	movw	r16, r24
    5c74:	eb 01       	movw	r28, r22
    5c76:	68 81       	ld	r22, Y
    5c78:	66 23       	and	r22, r22
    5c7a:	39 f0       	breq	.+14     	; 0x5c8a <_ZN6Serial8writestrEPc+0x20>
    5c7c:	21 96       	adiw	r28, 0x01	; 1
    5c7e:	c8 01       	movw	r24, r16
    5c80:	0e 94 31 2e 	call	0x5c62	; 0x5c62 <_ZN6Serial5writeEc>
    5c84:	69 91       	ld	r22, Y+
    5c86:	61 11       	cpse	r22, r1
    5c88:	fa cf       	rjmp	.-12     	; 0x5c7e <_ZN6Serial8writestrEPc+0x14>
    5c8a:	df 91       	pop	r29
    5c8c:	cf 91       	pop	r28
    5c8e:	1f 91       	pop	r17
    5c90:	0f 91       	pop	r16
    5c92:	08 95       	ret

00005c94 <_ZN6Serial10writestrlnEPc>:
    5c94:	cf 93       	push	r28
    5c96:	df 93       	push	r29
    5c98:	ec 01       	movw	r28, r24
    5c9a:	0e 94 35 2e 	call	0x5c6a	; 0x5c6a <_ZN6Serial8writestrEPc>
    5c9e:	6d e0       	ldi	r22, 0x0D	; 13
    5ca0:	ce 01       	movw	r24, r28
    5ca2:	0e 94 31 2e 	call	0x5c62	; 0x5c62 <_ZN6Serial5writeEc>
    5ca6:	df 91       	pop	r29
    5ca8:	cf 91       	pop	r28
    5caa:	08 95       	ret

00005cac <_ZN5Utils10int2binstrEii>:
#include "utils.h"

char * Utils::int2binstr(int num,int strlength){
    5cac:	0f 93       	push	r16
    5cae:	1f 93       	push	r17
    5cb0:	cf 93       	push	r28
    5cb2:	df 93       	push	r29
    5cb4:	06 2f       	mov	r16, r22
    5cb6:	17 2f       	mov	r17, r23
    5cb8:	ea 01       	movw	r28, r20
	char * str = (char*)malloc(strlength + 1);
    5cba:	ca 01       	movw	r24, r20
    5cbc:	01 96       	adiw	r24, 0x01	; 1
    5cbe:	0e 94 63 33 	call	0x66c6	; 0x66c6 <malloc>
	if(!str) return NULL;
    5cc2:	00 97       	sbiw	r24, 0x00	; 0
    5cc4:	b9 f0       	breq	.+46     	; 0x5cf4 <_ZN5Utils10int2binstrEii+0x48>
	str[strlength] = 0;
    5cc6:	fc 01       	movw	r30, r24
    5cc8:	ec 0f       	add	r30, r28
    5cca:	fd 1f       	adc	r31, r29
    5ccc:	10 82       	st	Z, r1

	// type punning because signed shift is implementation-defined
	unsigned u = *(unsigned *)&num;
    5cce:	20 2f       	mov	r18, r16
    5cd0:	31 2f       	mov	r19, r17
	for(; strlength--; u >>= 1)
    5cd2:	be 01       	movw	r22, r28
    5cd4:	61 50       	subi	r22, 0x01	; 1
    5cd6:	71 09       	sbc	r23, r1
    5cd8:	cd 2b       	or	r28, r29
    5cda:	71 f0       	breq	.+28     	; 0x5cf8 <_ZN5Utils10int2binstrEii+0x4c>
	str[strlength] = u & 1 ? '1' : '0';
    5cdc:	20 ff       	sbrs	r18, 0
    5cde:	02 c0       	rjmp	.+4      	; 0x5ce4 <_ZN5Utils10int2binstrEii+0x38>
    5ce0:	41 e3       	ldi	r20, 0x31	; 49
    5ce2:	01 c0       	rjmp	.+2      	; 0x5ce6 <_ZN5Utils10int2binstrEii+0x3a>
    5ce4:	40 e3       	ldi	r20, 0x30	; 48
    5ce6:	42 93       	st	-Z, r20
	if(!str) return NULL;
	str[strlength] = 0;

	// type punning because signed shift is implementation-defined
	unsigned u = *(unsigned *)&num;
	for(; strlength--; u >>= 1)
    5ce8:	36 95       	lsr	r19
    5cea:	27 95       	ror	r18
    5cec:	61 50       	subi	r22, 0x01	; 1
    5cee:	71 09       	sbc	r23, r1
    5cf0:	a8 f7       	brcc	.-22     	; 0x5cdc <_ZN5Utils10int2binstrEii+0x30>
    5cf2:	02 c0       	rjmp	.+4      	; 0x5cf8 <_ZN5Utils10int2binstrEii+0x4c>
#include "utils.h"

char * Utils::int2binstr(int num,int strlength){
	char * str = (char*)malloc(strlength + 1);
	if(!str) return NULL;
    5cf4:	80 e0       	ldi	r24, 0x00	; 0
    5cf6:	90 e0       	ldi	r25, 0x00	; 0
	unsigned u = *(unsigned *)&num;
	for(; strlength--; u >>= 1)
	str[strlength] = u & 1 ? '1' : '0';

	return str;
}
    5cf8:	df 91       	pop	r29
    5cfa:	cf 91       	pop	r28
    5cfc:	1f 91       	pop	r17
    5cfe:	0f 91       	pop	r16
    5d00:	08 95       	ret

00005d02 <_ZN5Utils7int2strEi>:
		dec/=10;
		++counter;
	}
	return counter;
}
char* Utils::int2str(int dec){
    5d02:	0f 93       	push	r16
    5d04:	1f 93       	push	r17
    5d06:	cf 93       	push	r28
    5d08:	df 93       	push	r29
    5d0a:	cd b7       	in	r28, 0x3d	; 61
    5d0c:	de b7       	in	r29, 0x3e	; 62
    5d0e:	2a 97       	sbiw	r28, 0x0a	; 10
    5d10:	0f b6       	in	r0, 0x3f	; 63
    5d12:	f8 94       	cli
    5d14:	de bf       	out	0x3e, r29	; 62
    5d16:	0f be       	out	0x3f, r0	; 63
    5d18:	cd bf       	out	0x3d, r28	; 61
	char str[10];
	sprintf(str,"%d",dec);
    5d1a:	7f 93       	push	r23
    5d1c:	6f 93       	push	r22
    5d1e:	85 e2       	ldi	r24, 0x25	; 37
    5d20:	91 e0       	ldi	r25, 0x01	; 1
    5d22:	9f 93       	push	r25
    5d24:	8f 93       	push	r24
    5d26:	8e 01       	movw	r16, r28
    5d28:	0f 5f       	subi	r16, 0xFF	; 255
    5d2a:	1f 4f       	sbci	r17, 0xFF	; 255
    5d2c:	1f 93       	push	r17
    5d2e:	0f 93       	push	r16
    5d30:	0e 94 34 36 	call	0x6c68	; 0x6c68 <sprintf>
	return str;
    5d34:	0f 90       	pop	r0
    5d36:	0f 90       	pop	r0
    5d38:	0f 90       	pop	r0
    5d3a:	0f 90       	pop	r0
    5d3c:	0f 90       	pop	r0
    5d3e:	0f 90       	pop	r0
}
    5d40:	c8 01       	movw	r24, r16
    5d42:	2a 96       	adiw	r28, 0x0a	; 10
    5d44:	0f b6       	in	r0, 0x3f	; 63
    5d46:	f8 94       	cli
    5d48:	de bf       	out	0x3e, r29	; 62
    5d4a:	0f be       	out	0x3f, r0	; 63
    5d4c:	cd bf       	out	0x3d, r28	; 61
    5d4e:	df 91       	pop	r29
    5d50:	cf 91       	pop	r28
    5d52:	1f 91       	pop	r17
    5d54:	0f 91       	pop	r16
    5d56:	08 95       	ret

00005d58 <_ZN5Utils5delayEi>:
	sprintf(str2,"%d",n2);
	strcat(str1,str2);
	return atoi(str1);
}
int Utils::delay(int ms){
	while(ms--) _delay_ms(1);
    5d58:	61 15       	cp	r22, r1
    5d5a:	71 05       	cpc	r23, r1
    5d5c:	51 f0       	breq	.+20     	; 0x5d72 <_ZN5Utils5delayEi+0x1a>
	#else
		//round up by default
		__ticks_dc = (uint32_t)(ceil(fabs(__tmp)));
	#endif

	__builtin_avr_delay_cycles(__ticks_dc);
    5d5e:	86 e6       	ldi	r24, 0x66	; 102
    5d60:	9e e0       	ldi	r25, 0x0E	; 14
    5d62:	01 97       	sbiw	r24, 0x01	; 1
    5d64:	f1 f7       	brne	.-4      	; 0x5d62 <_ZN5Utils5delayEi+0xa>
    5d66:	00 00       	nop
    5d68:	61 50       	subi	r22, 0x01	; 1
    5d6a:	71 09       	sbc	r23, r1
    5d6c:	61 15       	cp	r22, r1
    5d6e:	71 05       	cpc	r23, r1
    5d70:	b1 f7       	brne	.-20     	; 0x5d5e <_ZN5Utils5delayEi+0x6>
}
    5d72:	08 95       	ret

00005d74 <_ZN5Utils10custom_powEfi>:
float Utils::custom_pow(float base,int exp){
    5d74:	cf 92       	push	r12
    5d76:	df 92       	push	r13
    5d78:	ef 92       	push	r14
    5d7a:	ff 92       	push	r15
    5d7c:	0f 93       	push	r16
    5d7e:	1f 93       	push	r17
    5d80:	cf 93       	push	r28
    5d82:	df 93       	push	r29
    5d84:	6a 01       	movw	r12, r20
    5d86:	7b 01       	movw	r14, r22
    5d88:	89 01       	movw	r16, r18
	float result=1; for(int i=0;i<exp;i++) result*=base;
    5d8a:	12 16       	cp	r1, r18
    5d8c:	13 06       	cpc	r1, r19
    5d8e:	7c f4       	brge	.+30     	; 0x5dae <_ZN5Utils10custom_powEfi+0x3a>
    5d90:	c0 e0       	ldi	r28, 0x00	; 0
    5d92:	d0 e0       	ldi	r29, 0x00	; 0
    5d94:	60 e0       	ldi	r22, 0x00	; 0
    5d96:	70 e0       	ldi	r23, 0x00	; 0
    5d98:	80 e8       	ldi	r24, 0x80	; 128
    5d9a:	9f e3       	ldi	r25, 0x3F	; 63
    5d9c:	a7 01       	movw	r20, r14
    5d9e:	96 01       	movw	r18, r12
    5da0:	0e 94 61 32 	call	0x64c2	; 0x64c2 <__mulsf3>
    5da4:	21 96       	adiw	r28, 0x01	; 1
    5da6:	c0 17       	cp	r28, r16
    5da8:	d1 07       	cpc	r29, r17
    5daa:	c1 f7       	brne	.-16     	; 0x5d9c <_ZN5Utils10custom_powEfi+0x28>
    5dac:	04 c0       	rjmp	.+8      	; 0x5db6 <_ZN5Utils10custom_powEfi+0x42>
    5dae:	60 e0       	ldi	r22, 0x00	; 0
    5db0:	70 e0       	ldi	r23, 0x00	; 0
    5db2:	80 e8       	ldi	r24, 0x80	; 128
    5db4:	9f e3       	ldi	r25, 0x3F	; 63
	return result;
}
    5db6:	df 91       	pop	r29
    5db8:	cf 91       	pop	r28
    5dba:	1f 91       	pop	r17
    5dbc:	0f 91       	pop	r16
    5dbe:	ff 90       	pop	r15
    5dc0:	ef 90       	pop	r14
    5dc2:	df 90       	pop	r13
    5dc4:	cf 90       	pop	r12
    5dc6:	08 95       	ret

00005dc8 <_ZN5Utils17arrint_shiftrightEPiii>:
int * Utils::arrint_shiftright(int * arr,int newelem,int array_length){
    5dc8:	cf 92       	push	r12
    5dca:	df 92       	push	r13
    5dcc:	ef 92       	push	r14
    5dce:	ff 92       	push	r15
    5dd0:	0f 93       	push	r16
    5dd2:	1f 93       	push	r17
    5dd4:	cf 93       	push	r28
    5dd6:	df 93       	push	r29
    5dd8:	7b 01       	movw	r14, r22
    5dda:	6a 01       	movw	r12, r20
    5ddc:	e9 01       	movw	r28, r18
	int * new_array=(int*)malloc(sizeof(int)*array_length);
    5dde:	89 01       	movw	r16, r18
    5de0:	00 0f       	add	r16, r16
    5de2:	11 1f       	adc	r17, r17
    5de4:	c8 01       	movw	r24, r16
    5de6:	0e 94 63 33 	call	0x66c6	; 0x66c6 <malloc>
	int new_array_index=0;
	new_array[0]=newelem;
    5dea:	fc 01       	movw	r30, r24
    5dec:	d1 82       	std	Z+1, r13	; 0x01
    5dee:	c0 82       	st	Z, r12
	for(int i=0;i<array_length;i++) new_array[++new_array_index]=arr[i];
    5df0:	1c 16       	cp	r1, r28
    5df2:	1d 06       	cpc	r1, r29
    5df4:	6c f4       	brge	.+26     	; 0x5e10 <_ZN5Utils17arrint_shiftrightEPiii+0x48>
    5df6:	f7 01       	movw	r30, r14
    5df8:	dc 01       	movw	r26, r24
    5dfa:	12 96       	adiw	r26, 0x02	; 2
    5dfc:	b7 01       	movw	r22, r14
    5dfe:	60 0f       	add	r22, r16
    5e00:	71 1f       	adc	r23, r17
    5e02:	21 91       	ld	r18, Z+
    5e04:	31 91       	ld	r19, Z+
    5e06:	2d 93       	st	X+, r18
    5e08:	3d 93       	st	X+, r19
    5e0a:	e6 17       	cp	r30, r22
    5e0c:	f7 07       	cpc	r31, r23
    5e0e:	c9 f7       	brne	.-14     	; 0x5e02 <_ZN5Utils17arrint_shiftrightEPiii+0x3a>
	return new_array;
    5e10:	df 91       	pop	r29
    5e12:	cf 91       	pop	r28
    5e14:	1f 91       	pop	r17
    5e16:	0f 91       	pop	r16
    5e18:	ff 90       	pop	r15
    5e1a:	ef 90       	pop	r14
    5e1c:	df 90       	pop	r13
    5e1e:	cf 90       	pop	r12
    5e20:	08 95       	ret

00005e22 <acos>:
    5e22:	9f 93       	push	r25
    5e24:	9f 77       	andi	r25, 0x7F	; 127
    5e26:	a6 d1       	rcall	.+844    	; 0x6174 <__fp_arccos>
    5e28:	0f 90       	pop	r0
    5e2a:	00 20       	and	r0, r0
    5e2c:	3a f4       	brpl	.+14     	; 0x5e3c <acos+0x1a>
    5e2e:	90 58       	subi	r25, 0x80	; 128
    5e30:	a2 ea       	ldi	r26, 0xA2	; 162
    5e32:	2a ed       	ldi	r18, 0xDA	; 218
    5e34:	3f e0       	ldi	r19, 0x0F	; 15
    5e36:	49 e4       	ldi	r20, 0x49	; 73
    5e38:	50 e4       	ldi	r21, 0x40	; 64
    5e3a:	13 d0       	rcall	.+38     	; 0x5e62 <__addsf3x>
    5e3c:	3e c2       	rjmp	.+1148   	; 0x62ba <__fp_round>

00005e3e <__subsf3>:
    5e3e:	50 58       	subi	r21, 0x80	; 128

00005e40 <__addsf3>:
    5e40:	bb 27       	eor	r27, r27
    5e42:	aa 27       	eor	r26, r26
    5e44:	0e d0       	rcall	.+28     	; 0x5e62 <__addsf3x>
    5e46:	39 c2       	rjmp	.+1138   	; 0x62ba <__fp_round>
    5e48:	02 d2       	rcall	.+1028   	; 0x624e <__fp_pscA>
    5e4a:	30 f0       	brcs	.+12     	; 0x5e58 <__addsf3+0x18>
    5e4c:	07 d2       	rcall	.+1038   	; 0x625c <__fp_pscB>
    5e4e:	20 f0       	brcs	.+8      	; 0x5e58 <__addsf3+0x18>
    5e50:	31 f4       	brne	.+12     	; 0x5e5e <__addsf3+0x1e>
    5e52:	9f 3f       	cpi	r25, 0xFF	; 255
    5e54:	11 f4       	brne	.+4      	; 0x5e5a <__addsf3+0x1a>
    5e56:	1e f4       	brtc	.+6      	; 0x5e5e <__addsf3+0x1e>
    5e58:	d2 c1       	rjmp	.+932    	; 0x61fe <__fp_nan>
    5e5a:	0e f4       	brtc	.+2      	; 0x5e5e <__addsf3+0x1e>
    5e5c:	e0 95       	com	r30
    5e5e:	e7 fb       	bst	r30, 7
    5e60:	c8 c1       	rjmp	.+912    	; 0x61f2 <__fp_inf>

00005e62 <__addsf3x>:
    5e62:	e9 2f       	mov	r30, r25
    5e64:	4c d2       	rcall	.+1176   	; 0x62fe <__fp_split3>
    5e66:	80 f3       	brcs	.-32     	; 0x5e48 <__addsf3+0x8>
    5e68:	ba 17       	cp	r27, r26
    5e6a:	62 07       	cpc	r22, r18
    5e6c:	73 07       	cpc	r23, r19
    5e6e:	84 07       	cpc	r24, r20
    5e70:	95 07       	cpc	r25, r21
    5e72:	18 f0       	brcs	.+6      	; 0x5e7a <__addsf3x+0x18>
    5e74:	71 f4       	brne	.+28     	; 0x5e92 <__addsf3x+0x30>
    5e76:	9e f5       	brtc	.+102    	; 0x5ede <__addsf3x+0x7c>
    5e78:	64 c2       	rjmp	.+1224   	; 0x6342 <__fp_zero>
    5e7a:	0e f4       	brtc	.+2      	; 0x5e7e <__addsf3x+0x1c>
    5e7c:	e0 95       	com	r30
    5e7e:	0b 2e       	mov	r0, r27
    5e80:	ba 2f       	mov	r27, r26
    5e82:	a0 2d       	mov	r26, r0
    5e84:	0b 01       	movw	r0, r22
    5e86:	b9 01       	movw	r22, r18
    5e88:	90 01       	movw	r18, r0
    5e8a:	0c 01       	movw	r0, r24
    5e8c:	ca 01       	movw	r24, r20
    5e8e:	a0 01       	movw	r20, r0
    5e90:	11 24       	eor	r1, r1
    5e92:	ff 27       	eor	r31, r31
    5e94:	59 1b       	sub	r21, r25
    5e96:	99 f0       	breq	.+38     	; 0x5ebe <__addsf3x+0x5c>
    5e98:	59 3f       	cpi	r21, 0xF9	; 249
    5e9a:	50 f4       	brcc	.+20     	; 0x5eb0 <__addsf3x+0x4e>
    5e9c:	50 3e       	cpi	r21, 0xE0	; 224
    5e9e:	68 f1       	brcs	.+90     	; 0x5efa <__addsf3x+0x98>
    5ea0:	1a 16       	cp	r1, r26
    5ea2:	f0 40       	sbci	r31, 0x00	; 0
    5ea4:	a2 2f       	mov	r26, r18
    5ea6:	23 2f       	mov	r18, r19
    5ea8:	34 2f       	mov	r19, r20
    5eaa:	44 27       	eor	r20, r20
    5eac:	58 5f       	subi	r21, 0xF8	; 248
    5eae:	f3 cf       	rjmp	.-26     	; 0x5e96 <__addsf3x+0x34>
    5eb0:	46 95       	lsr	r20
    5eb2:	37 95       	ror	r19
    5eb4:	27 95       	ror	r18
    5eb6:	a7 95       	ror	r26
    5eb8:	f0 40       	sbci	r31, 0x00	; 0
    5eba:	53 95       	inc	r21
    5ebc:	c9 f7       	brne	.-14     	; 0x5eb0 <__addsf3x+0x4e>
    5ebe:	7e f4       	brtc	.+30     	; 0x5ede <__addsf3x+0x7c>
    5ec0:	1f 16       	cp	r1, r31
    5ec2:	ba 0b       	sbc	r27, r26
    5ec4:	62 0b       	sbc	r22, r18
    5ec6:	73 0b       	sbc	r23, r19
    5ec8:	84 0b       	sbc	r24, r20
    5eca:	ba f0       	brmi	.+46     	; 0x5efa <__addsf3x+0x98>
    5ecc:	91 50       	subi	r25, 0x01	; 1
    5ece:	a1 f0       	breq	.+40     	; 0x5ef8 <__addsf3x+0x96>
    5ed0:	ff 0f       	add	r31, r31
    5ed2:	bb 1f       	adc	r27, r27
    5ed4:	66 1f       	adc	r22, r22
    5ed6:	77 1f       	adc	r23, r23
    5ed8:	88 1f       	adc	r24, r24
    5eda:	c2 f7       	brpl	.-16     	; 0x5ecc <__addsf3x+0x6a>
    5edc:	0e c0       	rjmp	.+28     	; 0x5efa <__addsf3x+0x98>
    5ede:	ba 0f       	add	r27, r26
    5ee0:	62 1f       	adc	r22, r18
    5ee2:	73 1f       	adc	r23, r19
    5ee4:	84 1f       	adc	r24, r20
    5ee6:	48 f4       	brcc	.+18     	; 0x5efa <__addsf3x+0x98>
    5ee8:	87 95       	ror	r24
    5eea:	77 95       	ror	r23
    5eec:	67 95       	ror	r22
    5eee:	b7 95       	ror	r27
    5ef0:	f7 95       	ror	r31
    5ef2:	9e 3f       	cpi	r25, 0xFE	; 254
    5ef4:	08 f0       	brcs	.+2      	; 0x5ef8 <__addsf3x+0x96>
    5ef6:	b3 cf       	rjmp	.-154    	; 0x5e5e <__addsf3+0x1e>
    5ef8:	93 95       	inc	r25
    5efa:	88 0f       	add	r24, r24
    5efc:	08 f0       	brcs	.+2      	; 0x5f00 <__addsf3x+0x9e>
    5efe:	99 27       	eor	r25, r25
    5f00:	ee 0f       	add	r30, r30
    5f02:	97 95       	ror	r25
    5f04:	87 95       	ror	r24
    5f06:	08 95       	ret

00005f08 <atan>:
    5f08:	df 93       	push	r29
    5f0a:	dd 27       	eor	r29, r29
    5f0c:	b9 2f       	mov	r27, r25
    5f0e:	bf 77       	andi	r27, 0x7F	; 127
    5f10:	40 e8       	ldi	r20, 0x80	; 128
    5f12:	5f e3       	ldi	r21, 0x3F	; 63
    5f14:	16 16       	cp	r1, r22
    5f16:	17 06       	cpc	r1, r23
    5f18:	48 07       	cpc	r20, r24
    5f1a:	5b 07       	cpc	r21, r27
    5f1c:	10 f4       	brcc	.+4      	; 0x5f22 <atan+0x1a>
    5f1e:	d9 2f       	mov	r29, r25
    5f20:	1b d2       	rcall	.+1078   	; 0x6358 <inverse>
    5f22:	9f 93       	push	r25
    5f24:	8f 93       	push	r24
    5f26:	7f 93       	push	r23
    5f28:	6f 93       	push	r22
    5f2a:	76 d3       	rcall	.+1772   	; 0x6618 <square>
    5f2c:	ee ec       	ldi	r30, 0xCE	; 206
    5f2e:	f0 e0       	ldi	r31, 0x00	; 0
    5f30:	69 d1       	rcall	.+722    	; 0x6204 <__fp_powser>
    5f32:	c3 d1       	rcall	.+902    	; 0x62ba <__fp_round>
    5f34:	2f 91       	pop	r18
    5f36:	3f 91       	pop	r19
    5f38:	4f 91       	pop	r20
    5f3a:	5f 91       	pop	r21
    5f3c:	ce d2       	rcall	.+1436   	; 0x64da <__mulsf3x>
    5f3e:	dd 23       	and	r29, r29
    5f40:	49 f0       	breq	.+18     	; 0x5f54 <atan+0x4c>
    5f42:	90 58       	subi	r25, 0x80	; 128
    5f44:	a2 ea       	ldi	r26, 0xA2	; 162
    5f46:	2a ed       	ldi	r18, 0xDA	; 218
    5f48:	3f e0       	ldi	r19, 0x0F	; 15
    5f4a:	49 ec       	ldi	r20, 0xC9	; 201
    5f4c:	5f e3       	ldi	r21, 0x3F	; 63
    5f4e:	d0 78       	andi	r29, 0x80	; 128
    5f50:	5d 27       	eor	r21, r29
    5f52:	87 df       	rcall	.-242    	; 0x5e62 <__addsf3x>
    5f54:	df 91       	pop	r29
    5f56:	b1 c1       	rjmp	.+866    	; 0x62ba <__fp_round>

00005f58 <__cmpsf2>:
    5f58:	28 d1       	rcall	.+592    	; 0x61aa <__fp_cmp>
    5f5a:	08 f4       	brcc	.+2      	; 0x5f5e <__cmpsf2+0x6>
    5f5c:	81 e0       	ldi	r24, 0x01	; 1
    5f5e:	08 95       	ret

00005f60 <cos>:
    5f60:	85 d1       	rcall	.+778    	; 0x626c <__fp_rempio2>
    5f62:	e3 95       	inc	r30
    5f64:	bb c1       	rjmp	.+886    	; 0x62dc <__fp_sinus>

00005f66 <__divsf3>:
    5f66:	0c d0       	rcall	.+24     	; 0x5f80 <__divsf3x>
    5f68:	a8 c1       	rjmp	.+848    	; 0x62ba <__fp_round>
    5f6a:	78 d1       	rcall	.+752    	; 0x625c <__fp_pscB>
    5f6c:	40 f0       	brcs	.+16     	; 0x5f7e <__divsf3+0x18>
    5f6e:	6f d1       	rcall	.+734    	; 0x624e <__fp_pscA>
    5f70:	30 f0       	brcs	.+12     	; 0x5f7e <__divsf3+0x18>
    5f72:	21 f4       	brne	.+8      	; 0x5f7c <__divsf3+0x16>
    5f74:	5f 3f       	cpi	r21, 0xFF	; 255
    5f76:	19 f0       	breq	.+6      	; 0x5f7e <__divsf3+0x18>
    5f78:	3c c1       	rjmp	.+632    	; 0x61f2 <__fp_inf>
    5f7a:	51 11       	cpse	r21, r1
    5f7c:	e3 c1       	rjmp	.+966    	; 0x6344 <__fp_szero>
    5f7e:	3f c1       	rjmp	.+638    	; 0x61fe <__fp_nan>

00005f80 <__divsf3x>:
    5f80:	be d1       	rcall	.+892    	; 0x62fe <__fp_split3>
    5f82:	98 f3       	brcs	.-26     	; 0x5f6a <__divsf3+0x4>

00005f84 <__divsf3_pse>:
    5f84:	99 23       	and	r25, r25
    5f86:	c9 f3       	breq	.-14     	; 0x5f7a <__divsf3+0x14>
    5f88:	55 23       	and	r21, r21
    5f8a:	b1 f3       	breq	.-20     	; 0x5f78 <__divsf3+0x12>
    5f8c:	95 1b       	sub	r25, r21
    5f8e:	55 0b       	sbc	r21, r21
    5f90:	bb 27       	eor	r27, r27
    5f92:	aa 27       	eor	r26, r26
    5f94:	62 17       	cp	r22, r18
    5f96:	73 07       	cpc	r23, r19
    5f98:	84 07       	cpc	r24, r20
    5f9a:	38 f0       	brcs	.+14     	; 0x5faa <__divsf3_pse+0x26>
    5f9c:	9f 5f       	subi	r25, 0xFF	; 255
    5f9e:	5f 4f       	sbci	r21, 0xFF	; 255
    5fa0:	22 0f       	add	r18, r18
    5fa2:	33 1f       	adc	r19, r19
    5fa4:	44 1f       	adc	r20, r20
    5fa6:	aa 1f       	adc	r26, r26
    5fa8:	a9 f3       	breq	.-22     	; 0x5f94 <__divsf3_pse+0x10>
    5faa:	33 d0       	rcall	.+102    	; 0x6012 <__divsf3_pse+0x8e>
    5fac:	0e 2e       	mov	r0, r30
    5fae:	3a f0       	brmi	.+14     	; 0x5fbe <__divsf3_pse+0x3a>
    5fb0:	e0 e8       	ldi	r30, 0x80	; 128
    5fb2:	30 d0       	rcall	.+96     	; 0x6014 <__divsf3_pse+0x90>
    5fb4:	91 50       	subi	r25, 0x01	; 1
    5fb6:	50 40       	sbci	r21, 0x00	; 0
    5fb8:	e6 95       	lsr	r30
    5fba:	00 1c       	adc	r0, r0
    5fbc:	ca f7       	brpl	.-14     	; 0x5fb0 <__divsf3_pse+0x2c>
    5fbe:	29 d0       	rcall	.+82     	; 0x6012 <__divsf3_pse+0x8e>
    5fc0:	fe 2f       	mov	r31, r30
    5fc2:	27 d0       	rcall	.+78     	; 0x6012 <__divsf3_pse+0x8e>
    5fc4:	66 0f       	add	r22, r22
    5fc6:	77 1f       	adc	r23, r23
    5fc8:	88 1f       	adc	r24, r24
    5fca:	bb 1f       	adc	r27, r27
    5fcc:	26 17       	cp	r18, r22
    5fce:	37 07       	cpc	r19, r23
    5fd0:	48 07       	cpc	r20, r24
    5fd2:	ab 07       	cpc	r26, r27
    5fd4:	b0 e8       	ldi	r27, 0x80	; 128
    5fd6:	09 f0       	breq	.+2      	; 0x5fda <__divsf3_pse+0x56>
    5fd8:	bb 0b       	sbc	r27, r27
    5fda:	80 2d       	mov	r24, r0
    5fdc:	bf 01       	movw	r22, r30
    5fde:	ff 27       	eor	r31, r31
    5fe0:	93 58       	subi	r25, 0x83	; 131
    5fe2:	5f 4f       	sbci	r21, 0xFF	; 255
    5fe4:	2a f0       	brmi	.+10     	; 0x5ff0 <__divsf3_pse+0x6c>
    5fe6:	9e 3f       	cpi	r25, 0xFE	; 254
    5fe8:	51 05       	cpc	r21, r1
    5fea:	68 f0       	brcs	.+26     	; 0x6006 <__divsf3_pse+0x82>
    5fec:	02 c1       	rjmp	.+516    	; 0x61f2 <__fp_inf>
    5fee:	aa c1       	rjmp	.+852    	; 0x6344 <__fp_szero>
    5ff0:	5f 3f       	cpi	r21, 0xFF	; 255
    5ff2:	ec f3       	brlt	.-6      	; 0x5fee <__divsf3_pse+0x6a>
    5ff4:	98 3e       	cpi	r25, 0xE8	; 232
    5ff6:	dc f3       	brlt	.-10     	; 0x5fee <__divsf3_pse+0x6a>
    5ff8:	86 95       	lsr	r24
    5ffa:	77 95       	ror	r23
    5ffc:	67 95       	ror	r22
    5ffe:	b7 95       	ror	r27
    6000:	f7 95       	ror	r31
    6002:	9f 5f       	subi	r25, 0xFF	; 255
    6004:	c9 f7       	brne	.-14     	; 0x5ff8 <__divsf3_pse+0x74>
    6006:	88 0f       	add	r24, r24
    6008:	91 1d       	adc	r25, r1
    600a:	96 95       	lsr	r25
    600c:	87 95       	ror	r24
    600e:	97 f9       	bld	r25, 7
    6010:	08 95       	ret
    6012:	e1 e0       	ldi	r30, 0x01	; 1
    6014:	66 0f       	add	r22, r22
    6016:	77 1f       	adc	r23, r23
    6018:	88 1f       	adc	r24, r24
    601a:	bb 1f       	adc	r27, r27
    601c:	62 17       	cp	r22, r18
    601e:	73 07       	cpc	r23, r19
    6020:	84 07       	cpc	r24, r20
    6022:	ba 07       	cpc	r27, r26
    6024:	20 f0       	brcs	.+8      	; 0x602e <__divsf3_pse+0xaa>
    6026:	62 1b       	sub	r22, r18
    6028:	73 0b       	sbc	r23, r19
    602a:	84 0b       	sbc	r24, r20
    602c:	ba 0b       	sbc	r27, r26
    602e:	ee 1f       	adc	r30, r30
    6030:	88 f7       	brcc	.-30     	; 0x6014 <__divsf3_pse+0x90>
    6032:	e0 95       	com	r30
    6034:	08 95       	ret
    6036:	19 f4       	brne	.+6      	; 0x603e <__divsf3_pse+0xba>
    6038:	0e f0       	brts	.+2      	; 0x603c <__divsf3_pse+0xb8>
    603a:	db c0       	rjmp	.+438    	; 0x61f2 <__fp_inf>
    603c:	82 c1       	rjmp	.+772    	; 0x6342 <__fp_zero>
    603e:	df c0       	rjmp	.+446    	; 0x61fe <__fp_nan>

00006040 <exp>:
    6040:	66 d1       	rcall	.+716    	; 0x630e <__fp_splitA>
    6042:	c8 f3       	brcs	.-14     	; 0x6036 <__divsf3_pse+0xb2>
    6044:	96 38       	cpi	r25, 0x86	; 134
    6046:	c0 f7       	brcc	.-16     	; 0x6038 <__divsf3_pse+0xb4>
    6048:	07 f8       	bld	r0, 7
    604a:	0f 92       	push	r0
    604c:	e8 94       	clt
    604e:	2b e3       	ldi	r18, 0x3B	; 59
    6050:	3a ea       	ldi	r19, 0xAA	; 170
    6052:	48 eb       	ldi	r20, 0xB8	; 184
    6054:	5f e7       	ldi	r21, 0x7F	; 127
    6056:	43 d2       	rcall	.+1158   	; 0x64de <__mulsf3_pse>
    6058:	0f 92       	push	r0
    605a:	0f 92       	push	r0
    605c:	0f 92       	push	r0
    605e:	4d b7       	in	r20, 0x3d	; 61
    6060:	5e b7       	in	r21, 0x3e	; 62
    6062:	0f 92       	push	r0
    6064:	fb d1       	rcall	.+1014   	; 0x645c <modf>
    6066:	eb ef       	ldi	r30, 0xFB	; 251
    6068:	f0 e0       	ldi	r31, 0x00	; 0
    606a:	cc d0       	rcall	.+408    	; 0x6204 <__fp_powser>
    606c:	4f 91       	pop	r20
    606e:	5f 91       	pop	r21
    6070:	ef 91       	pop	r30
    6072:	ff 91       	pop	r31
    6074:	e5 95       	asr	r30
    6076:	ee 1f       	adc	r30, r30
    6078:	ff 1f       	adc	r31, r31
    607a:	49 f0       	breq	.+18     	; 0x608e <exp+0x4e>
    607c:	fe 57       	subi	r31, 0x7E	; 126
    607e:	e0 68       	ori	r30, 0x80	; 128
    6080:	44 27       	eor	r20, r20
    6082:	ee 0f       	add	r30, r30
    6084:	44 1f       	adc	r20, r20
    6086:	fa 95       	dec	r31
    6088:	e1 f7       	brne	.-8      	; 0x6082 <exp+0x42>
    608a:	41 95       	neg	r20
    608c:	55 0b       	sbc	r21, r21
    608e:	6d d1       	rcall	.+730    	; 0x636a <ldexp>
    6090:	0f 90       	pop	r0
    6092:	07 fe       	sbrs	r0, 7
    6094:	61 c1       	rjmp	.+706    	; 0x6358 <inverse>
    6096:	08 95       	ret

00006098 <__fixsfsi>:
    6098:	04 d0       	rcall	.+8      	; 0x60a2 <__fixunssfsi>
    609a:	68 94       	set
    609c:	b1 11       	cpse	r27, r1
    609e:	52 c1       	rjmp	.+676    	; 0x6344 <__fp_szero>
    60a0:	08 95       	ret

000060a2 <__fixunssfsi>:
    60a2:	35 d1       	rcall	.+618    	; 0x630e <__fp_splitA>
    60a4:	88 f0       	brcs	.+34     	; 0x60c8 <__fixunssfsi+0x26>
    60a6:	9f 57       	subi	r25, 0x7F	; 127
    60a8:	90 f0       	brcs	.+36     	; 0x60ce <__fixunssfsi+0x2c>
    60aa:	b9 2f       	mov	r27, r25
    60ac:	99 27       	eor	r25, r25
    60ae:	b7 51       	subi	r27, 0x17	; 23
    60b0:	a0 f0       	brcs	.+40     	; 0x60da <__fixunssfsi+0x38>
    60b2:	d1 f0       	breq	.+52     	; 0x60e8 <__fixunssfsi+0x46>
    60b4:	66 0f       	add	r22, r22
    60b6:	77 1f       	adc	r23, r23
    60b8:	88 1f       	adc	r24, r24
    60ba:	99 1f       	adc	r25, r25
    60bc:	1a f0       	brmi	.+6      	; 0x60c4 <__fixunssfsi+0x22>
    60be:	ba 95       	dec	r27
    60c0:	c9 f7       	brne	.-14     	; 0x60b4 <__fixunssfsi+0x12>
    60c2:	12 c0       	rjmp	.+36     	; 0x60e8 <__fixunssfsi+0x46>
    60c4:	b1 30       	cpi	r27, 0x01	; 1
    60c6:	81 f0       	breq	.+32     	; 0x60e8 <__fixunssfsi+0x46>
    60c8:	3c d1       	rcall	.+632    	; 0x6342 <__fp_zero>
    60ca:	b1 e0       	ldi	r27, 0x01	; 1
    60cc:	08 95       	ret
    60ce:	39 c1       	rjmp	.+626    	; 0x6342 <__fp_zero>
    60d0:	67 2f       	mov	r22, r23
    60d2:	78 2f       	mov	r23, r24
    60d4:	88 27       	eor	r24, r24
    60d6:	b8 5f       	subi	r27, 0xF8	; 248
    60d8:	39 f0       	breq	.+14     	; 0x60e8 <__fixunssfsi+0x46>
    60da:	b9 3f       	cpi	r27, 0xF9	; 249
    60dc:	cc f3       	brlt	.-14     	; 0x60d0 <__fixunssfsi+0x2e>
    60de:	86 95       	lsr	r24
    60e0:	77 95       	ror	r23
    60e2:	67 95       	ror	r22
    60e4:	b3 95       	inc	r27
    60e6:	d9 f7       	brne	.-10     	; 0x60de <__fixunssfsi+0x3c>
    60e8:	3e f4       	brtc	.+14     	; 0x60f8 <__fixunssfsi+0x56>
    60ea:	90 95       	com	r25
    60ec:	80 95       	com	r24
    60ee:	70 95       	com	r23
    60f0:	61 95       	neg	r22
    60f2:	7f 4f       	sbci	r23, 0xFF	; 255
    60f4:	8f 4f       	sbci	r24, 0xFF	; 255
    60f6:	9f 4f       	sbci	r25, 0xFF	; 255
    60f8:	08 95       	ret

000060fa <__floatunsisf>:
    60fa:	e8 94       	clt
    60fc:	09 c0       	rjmp	.+18     	; 0x6110 <__floatsisf+0x12>

000060fe <__floatsisf>:
    60fe:	97 fb       	bst	r25, 7
    6100:	3e f4       	brtc	.+14     	; 0x6110 <__floatsisf+0x12>
    6102:	90 95       	com	r25
    6104:	80 95       	com	r24
    6106:	70 95       	com	r23
    6108:	61 95       	neg	r22
    610a:	7f 4f       	sbci	r23, 0xFF	; 255
    610c:	8f 4f       	sbci	r24, 0xFF	; 255
    610e:	9f 4f       	sbci	r25, 0xFF	; 255
    6110:	99 23       	and	r25, r25
    6112:	a9 f0       	breq	.+42     	; 0x613e <__floatsisf+0x40>
    6114:	f9 2f       	mov	r31, r25
    6116:	96 e9       	ldi	r25, 0x96	; 150
    6118:	bb 27       	eor	r27, r27
    611a:	93 95       	inc	r25
    611c:	f6 95       	lsr	r31
    611e:	87 95       	ror	r24
    6120:	77 95       	ror	r23
    6122:	67 95       	ror	r22
    6124:	b7 95       	ror	r27
    6126:	f1 11       	cpse	r31, r1
    6128:	f8 cf       	rjmp	.-16     	; 0x611a <__floatsisf+0x1c>
    612a:	fa f4       	brpl	.+62     	; 0x616a <__floatsisf+0x6c>
    612c:	bb 0f       	add	r27, r27
    612e:	11 f4       	brne	.+4      	; 0x6134 <__floatsisf+0x36>
    6130:	60 ff       	sbrs	r22, 0
    6132:	1b c0       	rjmp	.+54     	; 0x616a <__floatsisf+0x6c>
    6134:	6f 5f       	subi	r22, 0xFF	; 255
    6136:	7f 4f       	sbci	r23, 0xFF	; 255
    6138:	8f 4f       	sbci	r24, 0xFF	; 255
    613a:	9f 4f       	sbci	r25, 0xFF	; 255
    613c:	16 c0       	rjmp	.+44     	; 0x616a <__floatsisf+0x6c>
    613e:	88 23       	and	r24, r24
    6140:	11 f0       	breq	.+4      	; 0x6146 <__floatsisf+0x48>
    6142:	96 e9       	ldi	r25, 0x96	; 150
    6144:	11 c0       	rjmp	.+34     	; 0x6168 <__floatsisf+0x6a>
    6146:	77 23       	and	r23, r23
    6148:	21 f0       	breq	.+8      	; 0x6152 <__floatsisf+0x54>
    614a:	9e e8       	ldi	r25, 0x8E	; 142
    614c:	87 2f       	mov	r24, r23
    614e:	76 2f       	mov	r23, r22
    6150:	05 c0       	rjmp	.+10     	; 0x615c <__floatsisf+0x5e>
    6152:	66 23       	and	r22, r22
    6154:	71 f0       	breq	.+28     	; 0x6172 <__floatsisf+0x74>
    6156:	96 e8       	ldi	r25, 0x86	; 134
    6158:	86 2f       	mov	r24, r22
    615a:	70 e0       	ldi	r23, 0x00	; 0
    615c:	60 e0       	ldi	r22, 0x00	; 0
    615e:	2a f0       	brmi	.+10     	; 0x616a <__floatsisf+0x6c>
    6160:	9a 95       	dec	r25
    6162:	66 0f       	add	r22, r22
    6164:	77 1f       	adc	r23, r23
    6166:	88 1f       	adc	r24, r24
    6168:	da f7       	brpl	.-10     	; 0x6160 <__floatsisf+0x62>
    616a:	88 0f       	add	r24, r24
    616c:	96 95       	lsr	r25
    616e:	87 95       	ror	r24
    6170:	97 f9       	bld	r25, 7
    6172:	08 95       	ret

00006174 <__fp_arccos>:
    6174:	df 93       	push	r29
    6176:	cf 93       	push	r28
    6178:	1f 93       	push	r17
    617a:	0f 93       	push	r16
    617c:	8b 01       	movw	r16, r22
    617e:	ec 01       	movw	r28, r24
    6180:	e3 e2       	ldi	r30, 0x23	; 35
    6182:	f1 e0       	ldi	r31, 0x01	; 1
    6184:	3f d0       	rcall	.+126    	; 0x6204 <__fp_powser>
    6186:	99 d0       	rcall	.+306    	; 0x62ba <__fp_round>
    6188:	98 01       	movw	r18, r16
    618a:	ae 01       	movw	r20, r28
    618c:	8b 01       	movw	r16, r22
    618e:	ec 01       	movw	r28, r24
    6190:	60 e0       	ldi	r22, 0x00	; 0
    6192:	70 e0       	ldi	r23, 0x00	; 0
    6194:	80 e8       	ldi	r24, 0x80	; 128
    6196:	9f e3       	ldi	r25, 0x3F	; 63
    6198:	52 de       	rcall	.-860    	; 0x5e3e <__subsf3>
    619a:	00 d2       	rcall	.+1024   	; 0x659c <sqrt>
    619c:	98 01       	movw	r18, r16
    619e:	ae 01       	movw	r20, r28
    61a0:	0f 91       	pop	r16
    61a2:	1f 91       	pop	r17
    61a4:	cf 91       	pop	r28
    61a6:	df 91       	pop	r29
    61a8:	98 c1       	rjmp	.+816    	; 0x64da <__mulsf3x>

000061aa <__fp_cmp>:
    61aa:	99 0f       	add	r25, r25
    61ac:	00 08       	sbc	r0, r0
    61ae:	55 0f       	add	r21, r21
    61b0:	aa 0b       	sbc	r26, r26
    61b2:	e0 e8       	ldi	r30, 0x80	; 128
    61b4:	fe ef       	ldi	r31, 0xFE	; 254
    61b6:	16 16       	cp	r1, r22
    61b8:	17 06       	cpc	r1, r23
    61ba:	e8 07       	cpc	r30, r24
    61bc:	f9 07       	cpc	r31, r25
    61be:	c0 f0       	brcs	.+48     	; 0x61f0 <__fp_cmp+0x46>
    61c0:	12 16       	cp	r1, r18
    61c2:	13 06       	cpc	r1, r19
    61c4:	e4 07       	cpc	r30, r20
    61c6:	f5 07       	cpc	r31, r21
    61c8:	98 f0       	brcs	.+38     	; 0x61f0 <__fp_cmp+0x46>
    61ca:	62 1b       	sub	r22, r18
    61cc:	73 0b       	sbc	r23, r19
    61ce:	84 0b       	sbc	r24, r20
    61d0:	95 0b       	sbc	r25, r21
    61d2:	39 f4       	brne	.+14     	; 0x61e2 <__fp_cmp+0x38>
    61d4:	0a 26       	eor	r0, r26
    61d6:	61 f0       	breq	.+24     	; 0x61f0 <__fp_cmp+0x46>
    61d8:	23 2b       	or	r18, r19
    61da:	24 2b       	or	r18, r20
    61dc:	25 2b       	or	r18, r21
    61de:	21 f4       	brne	.+8      	; 0x61e8 <__fp_cmp+0x3e>
    61e0:	08 95       	ret
    61e2:	0a 26       	eor	r0, r26
    61e4:	09 f4       	brne	.+2      	; 0x61e8 <__fp_cmp+0x3e>
    61e6:	a1 40       	sbci	r26, 0x01	; 1
    61e8:	a6 95       	lsr	r26
    61ea:	8f ef       	ldi	r24, 0xFF	; 255
    61ec:	81 1d       	adc	r24, r1
    61ee:	81 1d       	adc	r24, r1
    61f0:	08 95       	ret

000061f2 <__fp_inf>:
    61f2:	97 f9       	bld	r25, 7
    61f4:	9f 67       	ori	r25, 0x7F	; 127
    61f6:	80 e8       	ldi	r24, 0x80	; 128
    61f8:	70 e0       	ldi	r23, 0x00	; 0
    61fa:	60 e0       	ldi	r22, 0x00	; 0
    61fc:	08 95       	ret

000061fe <__fp_nan>:
    61fe:	9f ef       	ldi	r25, 0xFF	; 255
    6200:	80 ec       	ldi	r24, 0xC0	; 192
    6202:	08 95       	ret

00006204 <__fp_powser>:
    6204:	df 93       	push	r29
    6206:	cf 93       	push	r28
    6208:	1f 93       	push	r17
    620a:	0f 93       	push	r16
    620c:	ff 92       	push	r15
    620e:	ef 92       	push	r14
    6210:	df 92       	push	r13
    6212:	7b 01       	movw	r14, r22
    6214:	8c 01       	movw	r16, r24
    6216:	68 94       	set
    6218:	05 c0       	rjmp	.+10     	; 0x6224 <__fp_powser+0x20>
    621a:	da 2e       	mov	r13, r26
    621c:	ef 01       	movw	r28, r30
    621e:	5d d1       	rcall	.+698    	; 0x64da <__mulsf3x>
    6220:	fe 01       	movw	r30, r28
    6222:	e8 94       	clt
    6224:	a5 91       	lpm	r26, Z+
    6226:	25 91       	lpm	r18, Z+
    6228:	35 91       	lpm	r19, Z+
    622a:	45 91       	lpm	r20, Z+
    622c:	55 91       	lpm	r21, Z+
    622e:	ae f3       	brts	.-22     	; 0x621a <__fp_powser+0x16>
    6230:	ef 01       	movw	r28, r30
    6232:	17 de       	rcall	.-978    	; 0x5e62 <__addsf3x>
    6234:	fe 01       	movw	r30, r28
    6236:	97 01       	movw	r18, r14
    6238:	a8 01       	movw	r20, r16
    623a:	da 94       	dec	r13
    623c:	79 f7       	brne	.-34     	; 0x621c <__fp_powser+0x18>
    623e:	df 90       	pop	r13
    6240:	ef 90       	pop	r14
    6242:	ff 90       	pop	r15
    6244:	0f 91       	pop	r16
    6246:	1f 91       	pop	r17
    6248:	cf 91       	pop	r28
    624a:	df 91       	pop	r29
    624c:	08 95       	ret

0000624e <__fp_pscA>:
    624e:	00 24       	eor	r0, r0
    6250:	0a 94       	dec	r0
    6252:	16 16       	cp	r1, r22
    6254:	17 06       	cpc	r1, r23
    6256:	18 06       	cpc	r1, r24
    6258:	09 06       	cpc	r0, r25
    625a:	08 95       	ret

0000625c <__fp_pscB>:
    625c:	00 24       	eor	r0, r0
    625e:	0a 94       	dec	r0
    6260:	12 16       	cp	r1, r18
    6262:	13 06       	cpc	r1, r19
    6264:	14 06       	cpc	r1, r20
    6266:	05 06       	cpc	r0, r21
    6268:	08 95       	ret
    626a:	c9 cf       	rjmp	.-110    	; 0x61fe <__fp_nan>

0000626c <__fp_rempio2>:
    626c:	50 d0       	rcall	.+160    	; 0x630e <__fp_splitA>
    626e:	e8 f3       	brcs	.-6      	; 0x626a <__fp_pscB+0xe>
    6270:	e8 94       	clt
    6272:	e0 e0       	ldi	r30, 0x00	; 0
    6274:	bb 27       	eor	r27, r27
    6276:	9f 57       	subi	r25, 0x7F	; 127
    6278:	f0 f0       	brcs	.+60     	; 0x62b6 <__fp_rempio2+0x4a>
    627a:	2a ed       	ldi	r18, 0xDA	; 218
    627c:	3f e0       	ldi	r19, 0x0F	; 15
    627e:	49 ec       	ldi	r20, 0xC9	; 201
    6280:	06 c0       	rjmp	.+12     	; 0x628e <__fp_rempio2+0x22>
    6282:	ee 0f       	add	r30, r30
    6284:	bb 0f       	add	r27, r27
    6286:	66 1f       	adc	r22, r22
    6288:	77 1f       	adc	r23, r23
    628a:	88 1f       	adc	r24, r24
    628c:	28 f0       	brcs	.+10     	; 0x6298 <__fp_rempio2+0x2c>
    628e:	b2 3a       	cpi	r27, 0xA2	; 162
    6290:	62 07       	cpc	r22, r18
    6292:	73 07       	cpc	r23, r19
    6294:	84 07       	cpc	r24, r20
    6296:	28 f0       	brcs	.+10     	; 0x62a2 <__fp_rempio2+0x36>
    6298:	b2 5a       	subi	r27, 0xA2	; 162
    629a:	62 0b       	sbc	r22, r18
    629c:	73 0b       	sbc	r23, r19
    629e:	84 0b       	sbc	r24, r20
    62a0:	e3 95       	inc	r30
    62a2:	9a 95       	dec	r25
    62a4:	72 f7       	brpl	.-36     	; 0x6282 <__fp_rempio2+0x16>
    62a6:	80 38       	cpi	r24, 0x80	; 128
    62a8:	30 f4       	brcc	.+12     	; 0x62b6 <__fp_rempio2+0x4a>
    62aa:	9a 95       	dec	r25
    62ac:	bb 0f       	add	r27, r27
    62ae:	66 1f       	adc	r22, r22
    62b0:	77 1f       	adc	r23, r23
    62b2:	88 1f       	adc	r24, r24
    62b4:	d2 f7       	brpl	.-12     	; 0x62aa <__fp_rempio2+0x3e>
    62b6:	90 48       	sbci	r25, 0x80	; 128
    62b8:	b4 c1       	rjmp	.+872    	; 0x6622 <__fp_mpack_finite>

000062ba <__fp_round>:
    62ba:	09 2e       	mov	r0, r25
    62bc:	03 94       	inc	r0
    62be:	00 0c       	add	r0, r0
    62c0:	11 f4       	brne	.+4      	; 0x62c6 <__fp_round+0xc>
    62c2:	88 23       	and	r24, r24
    62c4:	52 f0       	brmi	.+20     	; 0x62da <__fp_round+0x20>
    62c6:	bb 0f       	add	r27, r27
    62c8:	40 f4       	brcc	.+16     	; 0x62da <__fp_round+0x20>
    62ca:	bf 2b       	or	r27, r31
    62cc:	11 f4       	brne	.+4      	; 0x62d2 <__fp_round+0x18>
    62ce:	60 ff       	sbrs	r22, 0
    62d0:	04 c0       	rjmp	.+8      	; 0x62da <__fp_round+0x20>
    62d2:	6f 5f       	subi	r22, 0xFF	; 255
    62d4:	7f 4f       	sbci	r23, 0xFF	; 255
    62d6:	8f 4f       	sbci	r24, 0xFF	; 255
    62d8:	9f 4f       	sbci	r25, 0xFF	; 255
    62da:	08 95       	ret

000062dc <__fp_sinus>:
    62dc:	ef 93       	push	r30
    62de:	e0 ff       	sbrs	r30, 0
    62e0:	06 c0       	rjmp	.+12     	; 0x62ee <__fp_sinus+0x12>
    62e2:	a2 ea       	ldi	r26, 0xA2	; 162
    62e4:	2a ed       	ldi	r18, 0xDA	; 218
    62e6:	3f e0       	ldi	r19, 0x0F	; 15
    62e8:	49 ec       	ldi	r20, 0xC9	; 201
    62ea:	5f eb       	ldi	r21, 0xBF	; 191
    62ec:	ba dd       	rcall	.-1164   	; 0x5e62 <__addsf3x>
    62ee:	e5 df       	rcall	.-54     	; 0x62ba <__fp_round>
    62f0:	0f 90       	pop	r0
    62f2:	03 94       	inc	r0
    62f4:	01 fc       	sbrc	r0, 1
    62f6:	90 58       	subi	r25, 0x80	; 128
    62f8:	eb e4       	ldi	r30, 0x4B	; 75
    62fa:	f1 e0       	ldi	r31, 0x01	; 1
    62fc:	a5 c1       	rjmp	.+842    	; 0x6648 <__fp_powsodd>

000062fe <__fp_split3>:
    62fe:	57 fd       	sbrc	r21, 7
    6300:	90 58       	subi	r25, 0x80	; 128
    6302:	44 0f       	add	r20, r20
    6304:	55 1f       	adc	r21, r21
    6306:	59 f0       	breq	.+22     	; 0x631e <__fp_splitA+0x10>
    6308:	5f 3f       	cpi	r21, 0xFF	; 255
    630a:	71 f0       	breq	.+28     	; 0x6328 <__fp_splitA+0x1a>
    630c:	47 95       	ror	r20

0000630e <__fp_splitA>:
    630e:	88 0f       	add	r24, r24
    6310:	97 fb       	bst	r25, 7
    6312:	99 1f       	adc	r25, r25
    6314:	61 f0       	breq	.+24     	; 0x632e <__fp_splitA+0x20>
    6316:	9f 3f       	cpi	r25, 0xFF	; 255
    6318:	79 f0       	breq	.+30     	; 0x6338 <__fp_splitA+0x2a>
    631a:	87 95       	ror	r24
    631c:	08 95       	ret
    631e:	12 16       	cp	r1, r18
    6320:	13 06       	cpc	r1, r19
    6322:	14 06       	cpc	r1, r20
    6324:	55 1f       	adc	r21, r21
    6326:	f2 cf       	rjmp	.-28     	; 0x630c <__fp_split3+0xe>
    6328:	46 95       	lsr	r20
    632a:	f1 df       	rcall	.-30     	; 0x630e <__fp_splitA>
    632c:	08 c0       	rjmp	.+16     	; 0x633e <__fp_splitA+0x30>
    632e:	16 16       	cp	r1, r22
    6330:	17 06       	cpc	r1, r23
    6332:	18 06       	cpc	r1, r24
    6334:	99 1f       	adc	r25, r25
    6336:	f1 cf       	rjmp	.-30     	; 0x631a <__fp_splitA+0xc>
    6338:	86 95       	lsr	r24
    633a:	71 05       	cpc	r23, r1
    633c:	61 05       	cpc	r22, r1
    633e:	08 94       	sec
    6340:	08 95       	ret

00006342 <__fp_zero>:
    6342:	e8 94       	clt

00006344 <__fp_szero>:
    6344:	bb 27       	eor	r27, r27
    6346:	66 27       	eor	r22, r22
    6348:	77 27       	eor	r23, r23
    634a:	cb 01       	movw	r24, r22
    634c:	97 f9       	bld	r25, 7
    634e:	08 95       	ret

00006350 <__gesf2>:
    6350:	2c df       	rcall	.-424    	; 0x61aa <__fp_cmp>
    6352:	08 f4       	brcc	.+2      	; 0x6356 <__gesf2+0x6>
    6354:	8f ef       	ldi	r24, 0xFF	; 255
    6356:	08 95       	ret

00006358 <inverse>:
    6358:	9b 01       	movw	r18, r22
    635a:	ac 01       	movw	r20, r24
    635c:	60 e0       	ldi	r22, 0x00	; 0
    635e:	70 e0       	ldi	r23, 0x00	; 0
    6360:	80 e8       	ldi	r24, 0x80	; 128
    6362:	9f e3       	ldi	r25, 0x3F	; 63
    6364:	00 ce       	rjmp	.-1024   	; 0x5f66 <__divsf3>
    6366:	45 cf       	rjmp	.-374    	; 0x61f2 <__fp_inf>
    6368:	5a c1       	rjmp	.+692    	; 0x661e <__fp_mpack>

0000636a <ldexp>:
    636a:	d1 df       	rcall	.-94     	; 0x630e <__fp_splitA>
    636c:	e8 f3       	brcs	.-6      	; 0x6368 <inverse+0x10>
    636e:	99 23       	and	r25, r25
    6370:	d9 f3       	breq	.-10     	; 0x6368 <inverse+0x10>
    6372:	94 0f       	add	r25, r20
    6374:	51 1d       	adc	r21, r1
    6376:	bb f3       	brvs	.-18     	; 0x6366 <inverse+0xe>
    6378:	91 50       	subi	r25, 0x01	; 1
    637a:	50 40       	sbci	r21, 0x00	; 0
    637c:	94 f0       	brlt	.+36     	; 0x63a2 <ldexp+0x38>
    637e:	59 f0       	breq	.+22     	; 0x6396 <ldexp+0x2c>
    6380:	88 23       	and	r24, r24
    6382:	32 f0       	brmi	.+12     	; 0x6390 <ldexp+0x26>
    6384:	66 0f       	add	r22, r22
    6386:	77 1f       	adc	r23, r23
    6388:	88 1f       	adc	r24, r24
    638a:	91 50       	subi	r25, 0x01	; 1
    638c:	50 40       	sbci	r21, 0x00	; 0
    638e:	c1 f7       	brne	.-16     	; 0x6380 <ldexp+0x16>
    6390:	9e 3f       	cpi	r25, 0xFE	; 254
    6392:	51 05       	cpc	r21, r1
    6394:	44 f7       	brge	.-48     	; 0x6366 <inverse+0xe>
    6396:	88 0f       	add	r24, r24
    6398:	91 1d       	adc	r25, r1
    639a:	96 95       	lsr	r25
    639c:	87 95       	ror	r24
    639e:	97 f9       	bld	r25, 7
    63a0:	08 95       	ret
    63a2:	5f 3f       	cpi	r21, 0xFF	; 255
    63a4:	ac f0       	brlt	.+42     	; 0x63d0 <ldexp+0x66>
    63a6:	98 3e       	cpi	r25, 0xE8	; 232
    63a8:	9c f0       	brlt	.+38     	; 0x63d0 <ldexp+0x66>
    63aa:	bb 27       	eor	r27, r27
    63ac:	86 95       	lsr	r24
    63ae:	77 95       	ror	r23
    63b0:	67 95       	ror	r22
    63b2:	b7 95       	ror	r27
    63b4:	08 f4       	brcc	.+2      	; 0x63b8 <ldexp+0x4e>
    63b6:	b1 60       	ori	r27, 0x01	; 1
    63b8:	93 95       	inc	r25
    63ba:	c1 f7       	brne	.-16     	; 0x63ac <ldexp+0x42>
    63bc:	bb 0f       	add	r27, r27
    63be:	58 f7       	brcc	.-42     	; 0x6396 <ldexp+0x2c>
    63c0:	11 f4       	brne	.+4      	; 0x63c6 <ldexp+0x5c>
    63c2:	60 ff       	sbrs	r22, 0
    63c4:	e8 cf       	rjmp	.-48     	; 0x6396 <ldexp+0x2c>
    63c6:	6f 5f       	subi	r22, 0xFF	; 255
    63c8:	7f 4f       	sbci	r23, 0xFF	; 255
    63ca:	8f 4f       	sbci	r24, 0xFF	; 255
    63cc:	9f 4f       	sbci	r25, 0xFF	; 255
    63ce:	e3 cf       	rjmp	.-58     	; 0x6396 <ldexp+0x2c>
    63d0:	b9 cf       	rjmp	.-142    	; 0x6344 <__fp_szero>
    63d2:	0e f0       	brts	.+2      	; 0x63d6 <ldexp+0x6c>
    63d4:	24 c1       	rjmp	.+584    	; 0x661e <__fp_mpack>
    63d6:	13 cf       	rjmp	.-474    	; 0x61fe <__fp_nan>
    63d8:	68 94       	set
    63da:	0b cf       	rjmp	.-490    	; 0x61f2 <__fp_inf>

000063dc <log>:
    63dc:	98 df       	rcall	.-208    	; 0x630e <__fp_splitA>
    63de:	c8 f3       	brcs	.-14     	; 0x63d2 <ldexp+0x68>
    63e0:	99 23       	and	r25, r25
    63e2:	d1 f3       	breq	.-12     	; 0x63d8 <ldexp+0x6e>
    63e4:	c6 f3       	brts	.-16     	; 0x63d6 <ldexp+0x6c>
    63e6:	df 93       	push	r29
    63e8:	cf 93       	push	r28
    63ea:	1f 93       	push	r17
    63ec:	0f 93       	push	r16
    63ee:	ff 92       	push	r15
    63f0:	c9 2f       	mov	r28, r25
    63f2:	dd 27       	eor	r29, r29
    63f4:	88 23       	and	r24, r24
    63f6:	2a f0       	brmi	.+10     	; 0x6402 <log+0x26>
    63f8:	21 97       	sbiw	r28, 0x01	; 1
    63fa:	66 0f       	add	r22, r22
    63fc:	77 1f       	adc	r23, r23
    63fe:	88 1f       	adc	r24, r24
    6400:	da f7       	brpl	.-10     	; 0x63f8 <log+0x1c>
    6402:	20 e0       	ldi	r18, 0x00	; 0
    6404:	30 e0       	ldi	r19, 0x00	; 0
    6406:	40 e8       	ldi	r20, 0x80	; 128
    6408:	5f eb       	ldi	r21, 0xBF	; 191
    640a:	9f e3       	ldi	r25, 0x3F	; 63
    640c:	88 39       	cpi	r24, 0x98	; 152
    640e:	20 f0       	brcs	.+8      	; 0x6418 <log+0x3c>
    6410:	80 3e       	cpi	r24, 0xE0	; 224
    6412:	30 f0       	brcs	.+12     	; 0x6420 <log+0x44>
    6414:	21 96       	adiw	r28, 0x01	; 1
    6416:	8f 77       	andi	r24, 0x7F	; 127
    6418:	13 dd       	rcall	.-1498   	; 0x5e40 <__addsf3>
    641a:	e9 e6       	ldi	r30, 0x69	; 105
    641c:	f1 e0       	ldi	r31, 0x01	; 1
    641e:	03 c0       	rjmp	.+6      	; 0x6426 <log+0x4a>
    6420:	0f dd       	rcall	.-1506   	; 0x5e40 <__addsf3>
    6422:	e6 e9       	ldi	r30, 0x96	; 150
    6424:	f1 e0       	ldi	r31, 0x01	; 1
    6426:	ee de       	rcall	.-548    	; 0x6204 <__fp_powser>
    6428:	8b 01       	movw	r16, r22
    642a:	be 01       	movw	r22, r28
    642c:	ec 01       	movw	r28, r24
    642e:	fb 2e       	mov	r15, r27
    6430:	6f 57       	subi	r22, 0x7F	; 127
    6432:	71 09       	sbc	r23, r1
    6434:	75 95       	asr	r23
    6436:	77 1f       	adc	r23, r23
    6438:	88 0b       	sbc	r24, r24
    643a:	99 0b       	sbc	r25, r25
    643c:	60 de       	rcall	.-832    	; 0x60fe <__floatsisf>
    643e:	28 e1       	ldi	r18, 0x18	; 24
    6440:	32 e7       	ldi	r19, 0x72	; 114
    6442:	41 e3       	ldi	r20, 0x31	; 49
    6444:	5f e3       	ldi	r21, 0x3F	; 63
    6446:	49 d0       	rcall	.+146    	; 0x64da <__mulsf3x>
    6448:	af 2d       	mov	r26, r15
    644a:	98 01       	movw	r18, r16
    644c:	ae 01       	movw	r20, r28
    644e:	ff 90       	pop	r15
    6450:	0f 91       	pop	r16
    6452:	1f 91       	pop	r17
    6454:	cf 91       	pop	r28
    6456:	df 91       	pop	r29
    6458:	04 dd       	rcall	.-1528   	; 0x5e62 <__addsf3x>
    645a:	2f cf       	rjmp	.-418    	; 0x62ba <__fp_round>

0000645c <modf>:
    645c:	fa 01       	movw	r30, r20
    645e:	dc 01       	movw	r26, r24
    6460:	aa 0f       	add	r26, r26
    6462:	bb 1f       	adc	r27, r27
    6464:	9b 01       	movw	r18, r22
    6466:	ac 01       	movw	r20, r24
    6468:	bf 57       	subi	r27, 0x7F	; 127
    646a:	28 f4       	brcc	.+10     	; 0x6476 <modf+0x1a>
    646c:	22 27       	eor	r18, r18
    646e:	33 27       	eor	r19, r19
    6470:	44 27       	eor	r20, r20
    6472:	50 78       	andi	r21, 0x80	; 128
    6474:	1f c0       	rjmp	.+62     	; 0x64b4 <modf+0x58>
    6476:	b7 51       	subi	r27, 0x17	; 23
    6478:	88 f4       	brcc	.+34     	; 0x649c <modf+0x40>
    647a:	ab 2f       	mov	r26, r27
    647c:	00 24       	eor	r0, r0
    647e:	46 95       	lsr	r20
    6480:	37 95       	ror	r19
    6482:	27 95       	ror	r18
    6484:	01 1c       	adc	r0, r1
    6486:	a3 95       	inc	r26
    6488:	d2 f3       	brmi	.-12     	; 0x647e <modf+0x22>
    648a:	00 20       	and	r0, r0
    648c:	69 f0       	breq	.+26     	; 0x64a8 <modf+0x4c>
    648e:	22 0f       	add	r18, r18
    6490:	33 1f       	adc	r19, r19
    6492:	44 1f       	adc	r20, r20
    6494:	b3 95       	inc	r27
    6496:	da f3       	brmi	.-10     	; 0x648e <modf+0x32>
    6498:	0d d0       	rcall	.+26     	; 0x64b4 <modf+0x58>
    649a:	d1 cc       	rjmp	.-1630   	; 0x5e3e <__subsf3>
    649c:	61 30       	cpi	r22, 0x01	; 1
    649e:	71 05       	cpc	r23, r1
    64a0:	a0 e8       	ldi	r26, 0x80	; 128
    64a2:	8a 07       	cpc	r24, r26
    64a4:	b9 46       	sbci	r27, 0x69	; 105
    64a6:	30 f4       	brcc	.+12     	; 0x64b4 <modf+0x58>
    64a8:	9b 01       	movw	r18, r22
    64aa:	ac 01       	movw	r20, r24
    64ac:	66 27       	eor	r22, r22
    64ae:	77 27       	eor	r23, r23
    64b0:	88 27       	eor	r24, r24
    64b2:	90 78       	andi	r25, 0x80	; 128
    64b4:	30 96       	adiw	r30, 0x00	; 0
    64b6:	21 f0       	breq	.+8      	; 0x64c0 <modf+0x64>
    64b8:	20 83       	st	Z, r18
    64ba:	31 83       	std	Z+1, r19	; 0x01
    64bc:	42 83       	std	Z+2, r20	; 0x02
    64be:	53 83       	std	Z+3, r21	; 0x03
    64c0:	08 95       	ret

000064c2 <__mulsf3>:
    64c2:	0b d0       	rcall	.+22     	; 0x64da <__mulsf3x>
    64c4:	fa ce       	rjmp	.-524    	; 0x62ba <__fp_round>
    64c6:	c3 de       	rcall	.-634    	; 0x624e <__fp_pscA>
    64c8:	28 f0       	brcs	.+10     	; 0x64d4 <__mulsf3+0x12>
    64ca:	c8 de       	rcall	.-624    	; 0x625c <__fp_pscB>
    64cc:	18 f0       	brcs	.+6      	; 0x64d4 <__mulsf3+0x12>
    64ce:	95 23       	and	r25, r21
    64d0:	09 f0       	breq	.+2      	; 0x64d4 <__mulsf3+0x12>
    64d2:	8f ce       	rjmp	.-738    	; 0x61f2 <__fp_inf>
    64d4:	94 ce       	rjmp	.-728    	; 0x61fe <__fp_nan>
    64d6:	11 24       	eor	r1, r1
    64d8:	35 cf       	rjmp	.-406    	; 0x6344 <__fp_szero>

000064da <__mulsf3x>:
    64da:	11 df       	rcall	.-478    	; 0x62fe <__fp_split3>
    64dc:	a0 f3       	brcs	.-24     	; 0x64c6 <__mulsf3+0x4>

000064de <__mulsf3_pse>:
    64de:	95 9f       	mul	r25, r21
    64e0:	d1 f3       	breq	.-12     	; 0x64d6 <__mulsf3+0x14>
    64e2:	95 0f       	add	r25, r21
    64e4:	50 e0       	ldi	r21, 0x00	; 0
    64e6:	55 1f       	adc	r21, r21
    64e8:	62 9f       	mul	r22, r18
    64ea:	f0 01       	movw	r30, r0
    64ec:	72 9f       	mul	r23, r18
    64ee:	bb 27       	eor	r27, r27
    64f0:	f0 0d       	add	r31, r0
    64f2:	b1 1d       	adc	r27, r1
    64f4:	63 9f       	mul	r22, r19
    64f6:	aa 27       	eor	r26, r26
    64f8:	f0 0d       	add	r31, r0
    64fa:	b1 1d       	adc	r27, r1
    64fc:	aa 1f       	adc	r26, r26
    64fe:	64 9f       	mul	r22, r20
    6500:	66 27       	eor	r22, r22
    6502:	b0 0d       	add	r27, r0
    6504:	a1 1d       	adc	r26, r1
    6506:	66 1f       	adc	r22, r22
    6508:	82 9f       	mul	r24, r18
    650a:	22 27       	eor	r18, r18
    650c:	b0 0d       	add	r27, r0
    650e:	a1 1d       	adc	r26, r1
    6510:	62 1f       	adc	r22, r18
    6512:	73 9f       	mul	r23, r19
    6514:	b0 0d       	add	r27, r0
    6516:	a1 1d       	adc	r26, r1
    6518:	62 1f       	adc	r22, r18
    651a:	83 9f       	mul	r24, r19
    651c:	a0 0d       	add	r26, r0
    651e:	61 1d       	adc	r22, r1
    6520:	22 1f       	adc	r18, r18
    6522:	74 9f       	mul	r23, r20
    6524:	33 27       	eor	r19, r19
    6526:	a0 0d       	add	r26, r0
    6528:	61 1d       	adc	r22, r1
    652a:	23 1f       	adc	r18, r19
    652c:	84 9f       	mul	r24, r20
    652e:	60 0d       	add	r22, r0
    6530:	21 1d       	adc	r18, r1
    6532:	82 2f       	mov	r24, r18
    6534:	76 2f       	mov	r23, r22
    6536:	6a 2f       	mov	r22, r26
    6538:	11 24       	eor	r1, r1
    653a:	9f 57       	subi	r25, 0x7F	; 127
    653c:	50 40       	sbci	r21, 0x00	; 0
    653e:	8a f0       	brmi	.+34     	; 0x6562 <__mulsf3_pse+0x84>
    6540:	e1 f0       	breq	.+56     	; 0x657a <__mulsf3_pse+0x9c>
    6542:	88 23       	and	r24, r24
    6544:	4a f0       	brmi	.+18     	; 0x6558 <__mulsf3_pse+0x7a>
    6546:	ee 0f       	add	r30, r30
    6548:	ff 1f       	adc	r31, r31
    654a:	bb 1f       	adc	r27, r27
    654c:	66 1f       	adc	r22, r22
    654e:	77 1f       	adc	r23, r23
    6550:	88 1f       	adc	r24, r24
    6552:	91 50       	subi	r25, 0x01	; 1
    6554:	50 40       	sbci	r21, 0x00	; 0
    6556:	a9 f7       	brne	.-22     	; 0x6542 <__mulsf3_pse+0x64>
    6558:	9e 3f       	cpi	r25, 0xFE	; 254
    655a:	51 05       	cpc	r21, r1
    655c:	70 f0       	brcs	.+28     	; 0x657a <__mulsf3_pse+0x9c>
    655e:	49 ce       	rjmp	.-878    	; 0x61f2 <__fp_inf>
    6560:	f1 ce       	rjmp	.-542    	; 0x6344 <__fp_szero>
    6562:	5f 3f       	cpi	r21, 0xFF	; 255
    6564:	ec f3       	brlt	.-6      	; 0x6560 <__mulsf3_pse+0x82>
    6566:	98 3e       	cpi	r25, 0xE8	; 232
    6568:	dc f3       	brlt	.-10     	; 0x6560 <__mulsf3_pse+0x82>
    656a:	86 95       	lsr	r24
    656c:	77 95       	ror	r23
    656e:	67 95       	ror	r22
    6570:	b7 95       	ror	r27
    6572:	f7 95       	ror	r31
    6574:	e7 95       	ror	r30
    6576:	9f 5f       	subi	r25, 0xFF	; 255
    6578:	c1 f7       	brne	.-16     	; 0x656a <__mulsf3_pse+0x8c>
    657a:	fe 2b       	or	r31, r30
    657c:	88 0f       	add	r24, r24
    657e:	91 1d       	adc	r25, r1
    6580:	96 95       	lsr	r25
    6582:	87 95       	ror	r24
    6584:	97 f9       	bld	r25, 7
    6586:	08 95       	ret

00006588 <sin>:
    6588:	9f 93       	push	r25
    658a:	70 de       	rcall	.-800    	; 0x626c <__fp_rempio2>
    658c:	0f 90       	pop	r0
    658e:	07 fc       	sbrc	r0, 7
    6590:	ee 5f       	subi	r30, 0xFE	; 254
    6592:	a4 ce       	rjmp	.-696    	; 0x62dc <__fp_sinus>
    6594:	11 f4       	brne	.+4      	; 0x659a <sin+0x12>
    6596:	0e f4       	brtc	.+2      	; 0x659a <sin+0x12>
    6598:	32 ce       	rjmp	.-924    	; 0x61fe <__fp_nan>
    659a:	41 c0       	rjmp	.+130    	; 0x661e <__fp_mpack>

0000659c <sqrt>:
    659c:	b8 de       	rcall	.-656    	; 0x630e <__fp_splitA>
    659e:	d0 f3       	brcs	.-12     	; 0x6594 <sin+0xc>
    65a0:	99 23       	and	r25, r25
    65a2:	d9 f3       	breq	.-10     	; 0x659a <sin+0x12>
    65a4:	ce f3       	brts	.-14     	; 0x6598 <sin+0x10>
    65a6:	9f 57       	subi	r25, 0x7F	; 127
    65a8:	55 0b       	sbc	r21, r21
    65aa:	87 ff       	sbrs	r24, 7
    65ac:	46 d0       	rcall	.+140    	; 0x663a <__fp_norm2>
    65ae:	00 24       	eor	r0, r0
    65b0:	a0 e6       	ldi	r26, 0x60	; 96
    65b2:	40 ea       	ldi	r20, 0xA0	; 160
    65b4:	90 01       	movw	r18, r0
    65b6:	80 58       	subi	r24, 0x80	; 128
    65b8:	56 95       	lsr	r21
    65ba:	97 95       	ror	r25
    65bc:	28 f4       	brcc	.+10     	; 0x65c8 <sqrt+0x2c>
    65be:	80 5c       	subi	r24, 0xC0	; 192
    65c0:	66 0f       	add	r22, r22
    65c2:	77 1f       	adc	r23, r23
    65c4:	88 1f       	adc	r24, r24
    65c6:	20 f0       	brcs	.+8      	; 0x65d0 <sqrt+0x34>
    65c8:	26 17       	cp	r18, r22
    65ca:	37 07       	cpc	r19, r23
    65cc:	48 07       	cpc	r20, r24
    65ce:	30 f4       	brcc	.+12     	; 0x65dc <sqrt+0x40>
    65d0:	62 1b       	sub	r22, r18
    65d2:	73 0b       	sbc	r23, r19
    65d4:	84 0b       	sbc	r24, r20
    65d6:	20 29       	or	r18, r0
    65d8:	31 29       	or	r19, r1
    65da:	4a 2b       	or	r20, r26
    65dc:	a6 95       	lsr	r26
    65de:	17 94       	ror	r1
    65e0:	07 94       	ror	r0
    65e2:	20 25       	eor	r18, r0
    65e4:	31 25       	eor	r19, r1
    65e6:	4a 27       	eor	r20, r26
    65e8:	58 f7       	brcc	.-42     	; 0x65c0 <sqrt+0x24>
    65ea:	66 0f       	add	r22, r22
    65ec:	77 1f       	adc	r23, r23
    65ee:	88 1f       	adc	r24, r24
    65f0:	20 f0       	brcs	.+8      	; 0x65fa <sqrt+0x5e>
    65f2:	26 17       	cp	r18, r22
    65f4:	37 07       	cpc	r19, r23
    65f6:	48 07       	cpc	r20, r24
    65f8:	30 f4       	brcc	.+12     	; 0x6606 <sqrt+0x6a>
    65fa:	62 0b       	sbc	r22, r18
    65fc:	73 0b       	sbc	r23, r19
    65fe:	84 0b       	sbc	r24, r20
    6600:	20 0d       	add	r18, r0
    6602:	31 1d       	adc	r19, r1
    6604:	41 1d       	adc	r20, r1
    6606:	a0 95       	com	r26
    6608:	81 f7       	brne	.-32     	; 0x65ea <sqrt+0x4e>
    660a:	b9 01       	movw	r22, r18
    660c:	84 2f       	mov	r24, r20
    660e:	91 58       	subi	r25, 0x81	; 129
    6610:	88 0f       	add	r24, r24
    6612:	96 95       	lsr	r25
    6614:	87 95       	ror	r24
    6616:	08 95       	ret

00006618 <square>:
    6618:	9b 01       	movw	r18, r22
    661a:	ac 01       	movw	r20, r24
    661c:	52 cf       	rjmp	.-348    	; 0x64c2 <__mulsf3>

0000661e <__fp_mpack>:
    661e:	9f 3f       	cpi	r25, 0xFF	; 255
    6620:	31 f0       	breq	.+12     	; 0x662e <__fp_mpack_finite+0xc>

00006622 <__fp_mpack_finite>:
    6622:	91 50       	subi	r25, 0x01	; 1
    6624:	20 f4       	brcc	.+8      	; 0x662e <__fp_mpack_finite+0xc>
    6626:	87 95       	ror	r24
    6628:	77 95       	ror	r23
    662a:	67 95       	ror	r22
    662c:	b7 95       	ror	r27
    662e:	88 0f       	add	r24, r24
    6630:	91 1d       	adc	r25, r1
    6632:	96 95       	lsr	r25
    6634:	87 95       	ror	r24
    6636:	97 f9       	bld	r25, 7
    6638:	08 95       	ret

0000663a <__fp_norm2>:
    663a:	91 50       	subi	r25, 0x01	; 1
    663c:	50 40       	sbci	r21, 0x00	; 0
    663e:	66 0f       	add	r22, r22
    6640:	77 1f       	adc	r23, r23
    6642:	88 1f       	adc	r24, r24
    6644:	d2 f7       	brpl	.-12     	; 0x663a <__fp_norm2>
    6646:	08 95       	ret

00006648 <__fp_powsodd>:
    6648:	9f 93       	push	r25
    664a:	8f 93       	push	r24
    664c:	7f 93       	push	r23
    664e:	6f 93       	push	r22
    6650:	ff 93       	push	r31
    6652:	ef 93       	push	r30
    6654:	9b 01       	movw	r18, r22
    6656:	ac 01       	movw	r20, r24
    6658:	34 df       	rcall	.-408    	; 0x64c2 <__mulsf3>
    665a:	ef 91       	pop	r30
    665c:	ff 91       	pop	r31
    665e:	d2 dd       	rcall	.-1116   	; 0x6204 <__fp_powser>
    6660:	2f 91       	pop	r18
    6662:	3f 91       	pop	r19
    6664:	4f 91       	pop	r20
    6666:	5f 91       	pop	r21
    6668:	2c cf       	rjmp	.-424    	; 0x64c2 <__mulsf3>

0000666a <__divmodhi4>:
    666a:	97 fb       	bst	r25, 7
    666c:	07 2e       	mov	r0, r23
    666e:	16 f4       	brtc	.+4      	; 0x6674 <__divmodhi4+0xa>
    6670:	00 94       	com	r0
    6672:	07 d0       	rcall	.+14     	; 0x6682 <__divmodhi4_neg1>
    6674:	77 fd       	sbrc	r23, 7
    6676:	09 d0       	rcall	.+18     	; 0x668a <__divmodhi4_neg2>
    6678:	0e 94 4f 33 	call	0x669e	; 0x669e <__udivmodhi4>
    667c:	07 fc       	sbrc	r0, 7
    667e:	05 d0       	rcall	.+10     	; 0x668a <__divmodhi4_neg2>
    6680:	3e f4       	brtc	.+14     	; 0x6690 <__divmodhi4_exit>

00006682 <__divmodhi4_neg1>:
    6682:	90 95       	com	r25
    6684:	81 95       	neg	r24
    6686:	9f 4f       	sbci	r25, 0xFF	; 255
    6688:	08 95       	ret

0000668a <__divmodhi4_neg2>:
    668a:	70 95       	com	r23
    668c:	61 95       	neg	r22
    668e:	7f 4f       	sbci	r23, 0xFF	; 255

00006690 <__divmodhi4_exit>:
    6690:	08 95       	ret

00006692 <__tablejump2__>:
    6692:	ee 0f       	add	r30, r30
    6694:	ff 1f       	adc	r31, r31

00006696 <__tablejump__>:
    6696:	05 90       	lpm	r0, Z+
    6698:	f4 91       	lpm	r31, Z
    669a:	e0 2d       	mov	r30, r0
    669c:	09 94       	ijmp

0000669e <__udivmodhi4>:
    669e:	aa 1b       	sub	r26, r26
    66a0:	bb 1b       	sub	r27, r27
    66a2:	51 e1       	ldi	r21, 0x11	; 17
    66a4:	07 c0       	rjmp	.+14     	; 0x66b4 <__udivmodhi4_ep>

000066a6 <__udivmodhi4_loop>:
    66a6:	aa 1f       	adc	r26, r26
    66a8:	bb 1f       	adc	r27, r27
    66aa:	a6 17       	cp	r26, r22
    66ac:	b7 07       	cpc	r27, r23
    66ae:	10 f0       	brcs	.+4      	; 0x66b4 <__udivmodhi4_ep>
    66b0:	a6 1b       	sub	r26, r22
    66b2:	b7 0b       	sbc	r27, r23

000066b4 <__udivmodhi4_ep>:
    66b4:	88 1f       	adc	r24, r24
    66b6:	99 1f       	adc	r25, r25
    66b8:	5a 95       	dec	r21
    66ba:	a9 f7       	brne	.-22     	; 0x66a6 <__udivmodhi4_loop>
    66bc:	80 95       	com	r24
    66be:	90 95       	com	r25
    66c0:	bc 01       	movw	r22, r24
    66c2:	cd 01       	movw	r24, r26
    66c4:	08 95       	ret

000066c6 <malloc>:
    66c6:	cf 93       	push	r28
    66c8:	df 93       	push	r29
    66ca:	82 30       	cpi	r24, 0x02	; 2
    66cc:	91 05       	cpc	r25, r1
    66ce:	10 f4       	brcc	.+4      	; 0x66d4 <malloc+0xe>
    66d0:	82 e0       	ldi	r24, 0x02	; 2
    66d2:	90 e0       	ldi	r25, 0x00	; 0
    66d4:	e0 91 34 01 	lds	r30, 0x0134
    66d8:	f0 91 35 01 	lds	r31, 0x0135
    66dc:	20 e0       	ldi	r18, 0x00	; 0
    66de:	30 e0       	ldi	r19, 0x00	; 0
    66e0:	a0 e0       	ldi	r26, 0x00	; 0
    66e2:	b0 e0       	ldi	r27, 0x00	; 0
    66e4:	30 97       	sbiw	r30, 0x00	; 0
    66e6:	39 f1       	breq	.+78     	; 0x6736 <malloc+0x70>
    66e8:	40 81       	ld	r20, Z
    66ea:	51 81       	ldd	r21, Z+1	; 0x01
    66ec:	48 17       	cp	r20, r24
    66ee:	59 07       	cpc	r21, r25
    66f0:	b8 f0       	brcs	.+46     	; 0x6720 <malloc+0x5a>
    66f2:	48 17       	cp	r20, r24
    66f4:	59 07       	cpc	r21, r25
    66f6:	71 f4       	brne	.+28     	; 0x6714 <malloc+0x4e>
    66f8:	82 81       	ldd	r24, Z+2	; 0x02
    66fa:	93 81       	ldd	r25, Z+3	; 0x03
    66fc:	10 97       	sbiw	r26, 0x00	; 0
    66fe:	29 f0       	breq	.+10     	; 0x670a <malloc+0x44>
    6700:	13 96       	adiw	r26, 0x03	; 3
    6702:	9c 93       	st	X, r25
    6704:	8e 93       	st	-X, r24
    6706:	12 97       	sbiw	r26, 0x02	; 2
    6708:	2c c0       	rjmp	.+88     	; 0x6762 <malloc+0x9c>
    670a:	90 93 35 01 	sts	0x0135, r25
    670e:	80 93 34 01 	sts	0x0134, r24
    6712:	27 c0       	rjmp	.+78     	; 0x6762 <malloc+0x9c>
    6714:	21 15       	cp	r18, r1
    6716:	31 05       	cpc	r19, r1
    6718:	31 f0       	breq	.+12     	; 0x6726 <malloc+0x60>
    671a:	42 17       	cp	r20, r18
    671c:	53 07       	cpc	r21, r19
    671e:	18 f0       	brcs	.+6      	; 0x6726 <malloc+0x60>
    6720:	a9 01       	movw	r20, r18
    6722:	db 01       	movw	r26, r22
    6724:	01 c0       	rjmp	.+2      	; 0x6728 <malloc+0x62>
    6726:	ef 01       	movw	r28, r30
    6728:	9a 01       	movw	r18, r20
    672a:	bd 01       	movw	r22, r26
    672c:	df 01       	movw	r26, r30
    672e:	02 80       	ldd	r0, Z+2	; 0x02
    6730:	f3 81       	ldd	r31, Z+3	; 0x03
    6732:	e0 2d       	mov	r30, r0
    6734:	d7 cf       	rjmp	.-82     	; 0x66e4 <malloc+0x1e>
    6736:	21 15       	cp	r18, r1
    6738:	31 05       	cpc	r19, r1
    673a:	f9 f0       	breq	.+62     	; 0x677a <malloc+0xb4>
    673c:	28 1b       	sub	r18, r24
    673e:	39 0b       	sbc	r19, r25
    6740:	24 30       	cpi	r18, 0x04	; 4
    6742:	31 05       	cpc	r19, r1
    6744:	80 f4       	brcc	.+32     	; 0x6766 <malloc+0xa0>
    6746:	8a 81       	ldd	r24, Y+2	; 0x02
    6748:	9b 81       	ldd	r25, Y+3	; 0x03
    674a:	61 15       	cp	r22, r1
    674c:	71 05       	cpc	r23, r1
    674e:	21 f0       	breq	.+8      	; 0x6758 <malloc+0x92>
    6750:	fb 01       	movw	r30, r22
    6752:	93 83       	std	Z+3, r25	; 0x03
    6754:	82 83       	std	Z+2, r24	; 0x02
    6756:	04 c0       	rjmp	.+8      	; 0x6760 <malloc+0x9a>
    6758:	90 93 35 01 	sts	0x0135, r25
    675c:	80 93 34 01 	sts	0x0134, r24
    6760:	fe 01       	movw	r30, r28
    6762:	32 96       	adiw	r30, 0x02	; 2
    6764:	44 c0       	rjmp	.+136    	; 0x67ee <malloc+0x128>
    6766:	fe 01       	movw	r30, r28
    6768:	e2 0f       	add	r30, r18
    676a:	f3 1f       	adc	r31, r19
    676c:	81 93       	st	Z+, r24
    676e:	91 93       	st	Z+, r25
    6770:	22 50       	subi	r18, 0x02	; 2
    6772:	31 09       	sbc	r19, r1
    6774:	39 83       	std	Y+1, r19	; 0x01
    6776:	28 83       	st	Y, r18
    6778:	3a c0       	rjmp	.+116    	; 0x67ee <malloc+0x128>
    677a:	20 91 32 01 	lds	r18, 0x0132
    677e:	30 91 33 01 	lds	r19, 0x0133
    6782:	23 2b       	or	r18, r19
    6784:	41 f4       	brne	.+16     	; 0x6796 <malloc+0xd0>
    6786:	20 91 62 00 	lds	r18, 0x0062
    678a:	30 91 63 00 	lds	r19, 0x0063
    678e:	30 93 33 01 	sts	0x0133, r19
    6792:	20 93 32 01 	sts	0x0132, r18
    6796:	20 91 60 00 	lds	r18, 0x0060
    679a:	30 91 61 00 	lds	r19, 0x0061
    679e:	21 15       	cp	r18, r1
    67a0:	31 05       	cpc	r19, r1
    67a2:	41 f4       	brne	.+16     	; 0x67b4 <malloc+0xee>
    67a4:	2d b7       	in	r18, 0x3d	; 61
    67a6:	3e b7       	in	r19, 0x3e	; 62
    67a8:	40 91 64 00 	lds	r20, 0x0064
    67ac:	50 91 65 00 	lds	r21, 0x0065
    67b0:	24 1b       	sub	r18, r20
    67b2:	35 0b       	sbc	r19, r21
    67b4:	e0 91 32 01 	lds	r30, 0x0132
    67b8:	f0 91 33 01 	lds	r31, 0x0133
    67bc:	e2 17       	cp	r30, r18
    67be:	f3 07       	cpc	r31, r19
    67c0:	a0 f4       	brcc	.+40     	; 0x67ea <malloc+0x124>
    67c2:	2e 1b       	sub	r18, r30
    67c4:	3f 0b       	sbc	r19, r31
    67c6:	28 17       	cp	r18, r24
    67c8:	39 07       	cpc	r19, r25
    67ca:	78 f0       	brcs	.+30     	; 0x67ea <malloc+0x124>
    67cc:	ac 01       	movw	r20, r24
    67ce:	4e 5f       	subi	r20, 0xFE	; 254
    67d0:	5f 4f       	sbci	r21, 0xFF	; 255
    67d2:	24 17       	cp	r18, r20
    67d4:	35 07       	cpc	r19, r21
    67d6:	48 f0       	brcs	.+18     	; 0x67ea <malloc+0x124>
    67d8:	4e 0f       	add	r20, r30
    67da:	5f 1f       	adc	r21, r31
    67dc:	50 93 33 01 	sts	0x0133, r21
    67e0:	40 93 32 01 	sts	0x0132, r20
    67e4:	81 93       	st	Z+, r24
    67e6:	91 93       	st	Z+, r25
    67e8:	02 c0       	rjmp	.+4      	; 0x67ee <malloc+0x128>
    67ea:	e0 e0       	ldi	r30, 0x00	; 0
    67ec:	f0 e0       	ldi	r31, 0x00	; 0
    67ee:	cf 01       	movw	r24, r30
    67f0:	df 91       	pop	r29
    67f2:	cf 91       	pop	r28
    67f4:	08 95       	ret

000067f6 <free>:
    67f6:	cf 93       	push	r28
    67f8:	df 93       	push	r29
    67fa:	00 97       	sbiw	r24, 0x00	; 0
    67fc:	09 f4       	brne	.+2      	; 0x6800 <free+0xa>
    67fe:	87 c0       	rjmp	.+270    	; 0x690e <free+0x118>
    6800:	fc 01       	movw	r30, r24
    6802:	32 97       	sbiw	r30, 0x02	; 2
    6804:	13 82       	std	Z+3, r1	; 0x03
    6806:	12 82       	std	Z+2, r1	; 0x02
    6808:	c0 91 34 01 	lds	r28, 0x0134
    680c:	d0 91 35 01 	lds	r29, 0x0135
    6810:	20 97       	sbiw	r28, 0x00	; 0
    6812:	81 f4       	brne	.+32     	; 0x6834 <free+0x3e>
    6814:	20 81       	ld	r18, Z
    6816:	31 81       	ldd	r19, Z+1	; 0x01
    6818:	28 0f       	add	r18, r24
    681a:	39 1f       	adc	r19, r25
    681c:	80 91 32 01 	lds	r24, 0x0132
    6820:	90 91 33 01 	lds	r25, 0x0133
    6824:	82 17       	cp	r24, r18
    6826:	93 07       	cpc	r25, r19
    6828:	79 f5       	brne	.+94     	; 0x6888 <free+0x92>
    682a:	f0 93 33 01 	sts	0x0133, r31
    682e:	e0 93 32 01 	sts	0x0132, r30
    6832:	6d c0       	rjmp	.+218    	; 0x690e <free+0x118>
    6834:	de 01       	movw	r26, r28
    6836:	20 e0       	ldi	r18, 0x00	; 0
    6838:	30 e0       	ldi	r19, 0x00	; 0
    683a:	ae 17       	cp	r26, r30
    683c:	bf 07       	cpc	r27, r31
    683e:	50 f4       	brcc	.+20     	; 0x6854 <free+0x5e>
    6840:	12 96       	adiw	r26, 0x02	; 2
    6842:	4d 91       	ld	r20, X+
    6844:	5c 91       	ld	r21, X
    6846:	13 97       	sbiw	r26, 0x03	; 3
    6848:	9d 01       	movw	r18, r26
    684a:	41 15       	cp	r20, r1
    684c:	51 05       	cpc	r21, r1
    684e:	09 f1       	breq	.+66     	; 0x6892 <free+0x9c>
    6850:	da 01       	movw	r26, r20
    6852:	f3 cf       	rjmp	.-26     	; 0x683a <free+0x44>
    6854:	b3 83       	std	Z+3, r27	; 0x03
    6856:	a2 83       	std	Z+2, r26	; 0x02
    6858:	40 81       	ld	r20, Z
    685a:	51 81       	ldd	r21, Z+1	; 0x01
    685c:	84 0f       	add	r24, r20
    685e:	95 1f       	adc	r25, r21
    6860:	8a 17       	cp	r24, r26
    6862:	9b 07       	cpc	r25, r27
    6864:	71 f4       	brne	.+28     	; 0x6882 <free+0x8c>
    6866:	8d 91       	ld	r24, X+
    6868:	9c 91       	ld	r25, X
    686a:	11 97       	sbiw	r26, 0x01	; 1
    686c:	84 0f       	add	r24, r20
    686e:	95 1f       	adc	r25, r21
    6870:	02 96       	adiw	r24, 0x02	; 2
    6872:	91 83       	std	Z+1, r25	; 0x01
    6874:	80 83       	st	Z, r24
    6876:	12 96       	adiw	r26, 0x02	; 2
    6878:	8d 91       	ld	r24, X+
    687a:	9c 91       	ld	r25, X
    687c:	13 97       	sbiw	r26, 0x03	; 3
    687e:	93 83       	std	Z+3, r25	; 0x03
    6880:	82 83       	std	Z+2, r24	; 0x02
    6882:	21 15       	cp	r18, r1
    6884:	31 05       	cpc	r19, r1
    6886:	29 f4       	brne	.+10     	; 0x6892 <free+0x9c>
    6888:	f0 93 35 01 	sts	0x0135, r31
    688c:	e0 93 34 01 	sts	0x0134, r30
    6890:	3e c0       	rjmp	.+124    	; 0x690e <free+0x118>
    6892:	d9 01       	movw	r26, r18
    6894:	13 96       	adiw	r26, 0x03	; 3
    6896:	fc 93       	st	X, r31
    6898:	ee 93       	st	-X, r30
    689a:	12 97       	sbiw	r26, 0x02	; 2
    689c:	4d 91       	ld	r20, X+
    689e:	5d 91       	ld	r21, X+
    68a0:	a4 0f       	add	r26, r20
    68a2:	b5 1f       	adc	r27, r21
    68a4:	ea 17       	cp	r30, r26
    68a6:	fb 07       	cpc	r31, r27
    68a8:	79 f4       	brne	.+30     	; 0x68c8 <free+0xd2>
    68aa:	80 81       	ld	r24, Z
    68ac:	91 81       	ldd	r25, Z+1	; 0x01
    68ae:	84 0f       	add	r24, r20
    68b0:	95 1f       	adc	r25, r21
    68b2:	02 96       	adiw	r24, 0x02	; 2
    68b4:	d9 01       	movw	r26, r18
    68b6:	11 96       	adiw	r26, 0x01	; 1
    68b8:	9c 93       	st	X, r25
    68ba:	8e 93       	st	-X, r24
    68bc:	82 81       	ldd	r24, Z+2	; 0x02
    68be:	93 81       	ldd	r25, Z+3	; 0x03
    68c0:	13 96       	adiw	r26, 0x03	; 3
    68c2:	9c 93       	st	X, r25
    68c4:	8e 93       	st	-X, r24
    68c6:	12 97       	sbiw	r26, 0x02	; 2
    68c8:	e0 e0       	ldi	r30, 0x00	; 0
    68ca:	f0 e0       	ldi	r31, 0x00	; 0
    68cc:	8a 81       	ldd	r24, Y+2	; 0x02
    68ce:	9b 81       	ldd	r25, Y+3	; 0x03
    68d0:	00 97       	sbiw	r24, 0x00	; 0
    68d2:	19 f0       	breq	.+6      	; 0x68da <free+0xe4>
    68d4:	fe 01       	movw	r30, r28
    68d6:	ec 01       	movw	r28, r24
    68d8:	f9 cf       	rjmp	.-14     	; 0x68cc <free+0xd6>
    68da:	ce 01       	movw	r24, r28
    68dc:	02 96       	adiw	r24, 0x02	; 2
    68de:	28 81       	ld	r18, Y
    68e0:	39 81       	ldd	r19, Y+1	; 0x01
    68e2:	82 0f       	add	r24, r18
    68e4:	93 1f       	adc	r25, r19
    68e6:	20 91 32 01 	lds	r18, 0x0132
    68ea:	30 91 33 01 	lds	r19, 0x0133
    68ee:	28 17       	cp	r18, r24
    68f0:	39 07       	cpc	r19, r25
    68f2:	69 f4       	brne	.+26     	; 0x690e <free+0x118>
    68f4:	30 97       	sbiw	r30, 0x00	; 0
    68f6:	29 f4       	brne	.+10     	; 0x6902 <free+0x10c>
    68f8:	10 92 35 01 	sts	0x0135, r1
    68fc:	10 92 34 01 	sts	0x0134, r1
    6900:	02 c0       	rjmp	.+4      	; 0x6906 <free+0x110>
    6902:	13 82       	std	Z+3, r1	; 0x03
    6904:	12 82       	std	Z+2, r1	; 0x02
    6906:	d0 93 33 01 	sts	0x0133, r29
    690a:	c0 93 32 01 	sts	0x0132, r28
    690e:	df 91       	pop	r29
    6910:	cf 91       	pop	r28
    6912:	08 95       	ret

00006914 <do_rand>:
    6914:	8f 92       	push	r8
    6916:	9f 92       	push	r9
    6918:	af 92       	push	r10
    691a:	bf 92       	push	r11
    691c:	cf 92       	push	r12
    691e:	df 92       	push	r13
    6920:	ef 92       	push	r14
    6922:	ff 92       	push	r15
    6924:	cf 93       	push	r28
    6926:	df 93       	push	r29
    6928:	ec 01       	movw	r28, r24
    692a:	68 81       	ld	r22, Y
    692c:	79 81       	ldd	r23, Y+1	; 0x01
    692e:	8a 81       	ldd	r24, Y+2	; 0x02
    6930:	9b 81       	ldd	r25, Y+3	; 0x03
    6932:	61 15       	cp	r22, r1
    6934:	71 05       	cpc	r23, r1
    6936:	81 05       	cpc	r24, r1
    6938:	91 05       	cpc	r25, r1
    693a:	21 f4       	brne	.+8      	; 0x6944 <do_rand+0x30>
    693c:	64 e2       	ldi	r22, 0x24	; 36
    693e:	79 ed       	ldi	r23, 0xD9	; 217
    6940:	8b e5       	ldi	r24, 0x5B	; 91
    6942:	97 e0       	ldi	r25, 0x07	; 7
    6944:	2d e1       	ldi	r18, 0x1D	; 29
    6946:	33 ef       	ldi	r19, 0xF3	; 243
    6948:	41 e0       	ldi	r20, 0x01	; 1
    694a:	50 e0       	ldi	r21, 0x00	; 0
    694c:	0e 94 2b 39 	call	0x7256	; 0x7256 <__divmodsi4>
    6950:	49 01       	movw	r8, r18
    6952:	5a 01       	movw	r10, r20
    6954:	9b 01       	movw	r18, r22
    6956:	ac 01       	movw	r20, r24
    6958:	a7 ea       	ldi	r26, 0xA7	; 167
    695a:	b1 e4       	ldi	r27, 0x41	; 65
    695c:	0e 94 4a 39 	call	0x7294	; 0x7294 <__muluhisi3>
    6960:	6b 01       	movw	r12, r22
    6962:	7c 01       	movw	r14, r24
    6964:	ac ee       	ldi	r26, 0xEC	; 236
    6966:	b4 ef       	ldi	r27, 0xF4	; 244
    6968:	a5 01       	movw	r20, r10
    696a:	94 01       	movw	r18, r8
    696c:	0e 94 58 39 	call	0x72b0	; 0x72b0 <__mulohisi3>
    6970:	c6 0e       	add	r12, r22
    6972:	d7 1e       	adc	r13, r23
    6974:	e8 1e       	adc	r14, r24
    6976:	f9 1e       	adc	r15, r25
    6978:	f7 fe       	sbrs	r15, 7
    697a:	06 c0       	rjmp	.+12     	; 0x6988 <do_rand+0x74>
    697c:	81 e0       	ldi	r24, 0x01	; 1
    697e:	c8 1a       	sub	r12, r24
    6980:	d1 08       	sbc	r13, r1
    6982:	e1 08       	sbc	r14, r1
    6984:	80 e8       	ldi	r24, 0x80	; 128
    6986:	f8 0a       	sbc	r15, r24
    6988:	c8 82       	st	Y, r12
    698a:	d9 82       	std	Y+1, r13	; 0x01
    698c:	ea 82       	std	Y+2, r14	; 0x02
    698e:	fb 82       	std	Y+3, r15	; 0x03
    6990:	c6 01       	movw	r24, r12
    6992:	9f 77       	andi	r25, 0x7F	; 127
    6994:	df 91       	pop	r29
    6996:	cf 91       	pop	r28
    6998:	ff 90       	pop	r15
    699a:	ef 90       	pop	r14
    699c:	df 90       	pop	r13
    699e:	cf 90       	pop	r12
    69a0:	bf 90       	pop	r11
    69a2:	af 90       	pop	r10
    69a4:	9f 90       	pop	r9
    69a6:	8f 90       	pop	r8
    69a8:	08 95       	ret

000069aa <rand_r>:
    69aa:	0e 94 8a 34 	call	0x6914	; 0x6914 <do_rand>
    69ae:	08 95       	ret

000069b0 <rand>:
    69b0:	86 e6       	ldi	r24, 0x66	; 102
    69b2:	90 e0       	ldi	r25, 0x00	; 0
    69b4:	0e 94 8a 34 	call	0x6914	; 0x6914 <do_rand>
    69b8:	08 95       	ret

000069ba <srand>:
    69ba:	a0 e0       	ldi	r26, 0x00	; 0
    69bc:	b0 e0       	ldi	r27, 0x00	; 0
    69be:	80 93 66 00 	sts	0x0066, r24
    69c2:	90 93 67 00 	sts	0x0067, r25
    69c6:	a0 93 68 00 	sts	0x0068, r26
    69ca:	b0 93 69 00 	sts	0x0069, r27
    69ce:	08 95       	ret

000069d0 <strtol>:
    69d0:	2f 92       	push	r2
    69d2:	3f 92       	push	r3
    69d4:	5f 92       	push	r5
    69d6:	6f 92       	push	r6
    69d8:	7f 92       	push	r7
    69da:	8f 92       	push	r8
    69dc:	9f 92       	push	r9
    69de:	af 92       	push	r10
    69e0:	bf 92       	push	r11
    69e2:	cf 92       	push	r12
    69e4:	df 92       	push	r13
    69e6:	ef 92       	push	r14
    69e8:	ff 92       	push	r15
    69ea:	0f 93       	push	r16
    69ec:	1f 93       	push	r17
    69ee:	cf 93       	push	r28
    69f0:	df 93       	push	r29
    69f2:	8b 01       	movw	r16, r22
    69f4:	ea 01       	movw	r28, r20
    69f6:	61 15       	cp	r22, r1
    69f8:	71 05       	cpc	r23, r1
    69fa:	21 f0       	breq	.+8      	; 0x6a04 <strtol+0x34>
    69fc:	db 01       	movw	r26, r22
    69fe:	8c 93       	st	X, r24
    6a00:	11 96       	adiw	r26, 0x01	; 1
    6a02:	9c 93       	st	X, r25
    6a04:	20 97       	sbiw	r28, 0x00	; 0
    6a06:	39 f0       	breq	.+14     	; 0x6a16 <strtol+0x46>
    6a08:	9e 01       	movw	r18, r28
    6a0a:	22 50       	subi	r18, 0x02	; 2
    6a0c:	31 09       	sbc	r19, r1
    6a0e:	23 32       	cpi	r18, 0x23	; 35
    6a10:	31 05       	cpc	r19, r1
    6a12:	08 f0       	brcs	.+2      	; 0x6a16 <strtol+0x46>
    6a14:	fb c0       	rjmp	.+502    	; 0x6c0c <strtol+0x23c>
    6a16:	7c 01       	movw	r14, r24
    6a18:	67 01       	movw	r12, r14
    6a1a:	bf ef       	ldi	r27, 0xFF	; 255
    6a1c:	cb 1a       	sub	r12, r27
    6a1e:	db 0a       	sbc	r13, r27
    6a20:	56 01       	movw	r10, r12
    6a22:	f7 01       	movw	r30, r14
    6a24:	60 80       	ld	r6, Z
    6a26:	86 2d       	mov	r24, r6
    6a28:	90 e0       	ldi	r25, 0x00	; 0
    6a2a:	0e 94 1c 36 	call	0x6c38	; 0x6c38 <isspace>
    6a2e:	89 2b       	or	r24, r25
    6a30:	11 f0       	breq	.+4      	; 0x6a36 <strtol+0x66>
    6a32:	76 01       	movw	r14, r12
    6a34:	f1 cf       	rjmp	.-30     	; 0x6a18 <strtol+0x48>
    6a36:	fd e2       	ldi	r31, 0x2D	; 45
    6a38:	6f 12       	cpse	r6, r31
    6a3a:	0a c0       	rjmp	.+20     	; 0x6a50 <strtol+0x80>
    6a3c:	57 01       	movw	r10, r14
    6a3e:	82 e0       	ldi	r24, 0x02	; 2
    6a40:	a8 0e       	add	r10, r24
    6a42:	b1 1c       	adc	r11, r1
    6a44:	d7 01       	movw	r26, r14
    6a46:	11 96       	adiw	r26, 0x01	; 1
    6a48:	6c 90       	ld	r6, X
    6a4a:	77 24       	eor	r7, r7
    6a4c:	73 94       	inc	r7
    6a4e:	0b c0       	rjmp	.+22     	; 0x6a66 <strtol+0x96>
    6a50:	bb e2       	ldi	r27, 0x2B	; 43
    6a52:	6b 12       	cpse	r6, r27
    6a54:	07 c0       	rjmp	.+14     	; 0x6a64 <strtol+0x94>
    6a56:	57 01       	movw	r10, r14
    6a58:	e2 e0       	ldi	r30, 0x02	; 2
    6a5a:	ae 0e       	add	r10, r30
    6a5c:	b1 1c       	adc	r11, r1
    6a5e:	d7 01       	movw	r26, r14
    6a60:	11 96       	adiw	r26, 0x01	; 1
    6a62:	6c 90       	ld	r6, X
    6a64:	71 2c       	mov	r7, r1
    6a66:	ce 01       	movw	r24, r28
    6a68:	8f 7e       	andi	r24, 0xEF	; 239
    6a6a:	89 2b       	or	r24, r25
    6a6c:	89 f4       	brne	.+34     	; 0x6a90 <strtol+0xc0>
    6a6e:	b0 e3       	ldi	r27, 0x30	; 48
    6a70:	6b 12       	cpse	r6, r27
    6a72:	22 c0       	rjmp	.+68     	; 0x6ab8 <strtol+0xe8>
    6a74:	f5 01       	movw	r30, r10
    6a76:	80 81       	ld	r24, Z
    6a78:	8f 7d       	andi	r24, 0xDF	; 223
    6a7a:	88 35       	cpi	r24, 0x58	; 88
    6a7c:	41 f5       	brne	.+80     	; 0x6ace <strtol+0xfe>
    6a7e:	61 80       	ldd	r6, Z+1	; 0x01
    6a80:	f2 e0       	ldi	r31, 0x02	; 2
    6a82:	af 0e       	add	r10, r31
    6a84:	b1 1c       	adc	r11, r1
    6a86:	87 2d       	mov	r24, r7
    6a88:	82 60       	ori	r24, 0x02	; 2
    6a8a:	78 2e       	mov	r7, r24
    6a8c:	c0 e1       	ldi	r28, 0x10	; 16
    6a8e:	d0 e0       	ldi	r29, 0x00	; 0
    6a90:	c8 30       	cpi	r28, 0x08	; 8
    6a92:	d1 05       	cpc	r29, r1
    6a94:	f1 f0       	breq	.+60     	; 0x6ad2 <strtol+0x102>
    6a96:	4c f4       	brge	.+18     	; 0x6aaa <strtol+0xda>
    6a98:	c2 30       	cpi	r28, 0x02	; 2
    6a9a:	d1 05       	cpc	r29, r1
    6a9c:	11 f5       	brne	.+68     	; 0x6ae2 <strtol+0x112>
    6a9e:	c1 2c       	mov	r12, r1
    6aa0:	d1 2c       	mov	r13, r1
    6aa2:	e1 2c       	mov	r14, r1
    6aa4:	b0 e4       	ldi	r27, 0x40	; 64
    6aa6:	fb 2e       	mov	r15, r27
    6aa8:	2f c0       	rjmp	.+94     	; 0x6b08 <strtol+0x138>
    6aaa:	ca 30       	cpi	r28, 0x0A	; 10
    6aac:	d1 05       	cpc	r29, r1
    6aae:	31 f0       	breq	.+12     	; 0x6abc <strtol+0xec>
    6ab0:	c0 31       	cpi	r28, 0x10	; 16
    6ab2:	d1 05       	cpc	r29, r1
    6ab4:	21 f1       	breq	.+72     	; 0x6afe <strtol+0x12e>
    6ab6:	15 c0       	rjmp	.+42     	; 0x6ae2 <strtol+0x112>
    6ab8:	20 97       	sbiw	r28, 0x00	; 0
    6aba:	51 f7       	brne	.-44     	; 0x6a90 <strtol+0xc0>
    6abc:	ca e0       	ldi	r28, 0x0A	; 10
    6abe:	d0 e0       	ldi	r29, 0x00	; 0
    6ac0:	ac ec       	ldi	r26, 0xCC	; 204
    6ac2:	ca 2e       	mov	r12, r26
    6ac4:	dc 2c       	mov	r13, r12
    6ac6:	ec 2c       	mov	r14, r12
    6ac8:	ac e0       	ldi	r26, 0x0C	; 12
    6aca:	fa 2e       	mov	r15, r26
    6acc:	1d c0       	rjmp	.+58     	; 0x6b08 <strtol+0x138>
    6ace:	20 97       	sbiw	r28, 0x00	; 0
    6ad0:	f9 f6       	brne	.-66     	; 0x6a90 <strtol+0xc0>
    6ad2:	c8 e0       	ldi	r28, 0x08	; 8
    6ad4:	d0 e0       	ldi	r29, 0x00	; 0
    6ad6:	c1 2c       	mov	r12, r1
    6ad8:	d1 2c       	mov	r13, r1
    6ada:	e1 2c       	mov	r14, r1
    6adc:	f0 e1       	ldi	r31, 0x10	; 16
    6ade:	ff 2e       	mov	r15, r31
    6ae0:	13 c0       	rjmp	.+38     	; 0x6b08 <strtol+0x138>
    6ae2:	60 e0       	ldi	r22, 0x00	; 0
    6ae4:	70 e0       	ldi	r23, 0x00	; 0
    6ae6:	80 e0       	ldi	r24, 0x00	; 0
    6ae8:	90 e8       	ldi	r25, 0x80	; 128
    6aea:	9e 01       	movw	r18, r28
    6aec:	44 27       	eor	r20, r20
    6aee:	37 fd       	sbrc	r19, 7
    6af0:	40 95       	com	r20
    6af2:	54 2f       	mov	r21, r20
    6af4:	0e 94 09 39 	call	0x7212	; 0x7212 <__udivmodsi4>
    6af8:	69 01       	movw	r12, r18
    6afa:	7a 01       	movw	r14, r20
    6afc:	05 c0       	rjmp	.+10     	; 0x6b08 <strtol+0x138>
    6afe:	c1 2c       	mov	r12, r1
    6b00:	d1 2c       	mov	r13, r1
    6b02:	e1 2c       	mov	r14, r1
    6b04:	e8 e0       	ldi	r30, 0x08	; 8
    6b06:	fe 2e       	mov	r15, r30
    6b08:	f5 01       	movw	r30, r10
    6b0a:	60 e0       	ldi	r22, 0x00	; 0
    6b0c:	20 e0       	ldi	r18, 0x00	; 0
    6b0e:	30 e0       	ldi	r19, 0x00	; 0
    6b10:	a9 01       	movw	r20, r18
    6b12:	4e 01       	movw	r8, r28
    6b14:	aa 24       	eor	r10, r10
    6b16:	97 fc       	sbrc	r9, 7
    6b18:	a0 94       	com	r10
    6b1a:	ba 2c       	mov	r11, r10
    6b1c:	1f 01       	movw	r2, r30
    6b1e:	70 ed       	ldi	r23, 0xD0	; 208
    6b20:	57 2e       	mov	r5, r23
    6b22:	56 0c       	add	r5, r6
    6b24:	a9 e0       	ldi	r26, 0x09	; 9
    6b26:	a5 15       	cp	r26, r5
    6b28:	70 f4       	brcc	.+28     	; 0x6b46 <strtol+0x176>
    6b2a:	8f eb       	ldi	r24, 0xBF	; 191
    6b2c:	86 0d       	add	r24, r6
    6b2e:	8a 31       	cpi	r24, 0x1A	; 26
    6b30:	18 f4       	brcc	.+6      	; 0x6b38 <strtol+0x168>
    6b32:	99 ec       	ldi	r25, 0xC9	; 201
    6b34:	59 2e       	mov	r5, r25
    6b36:	06 c0       	rjmp	.+12     	; 0x6b44 <strtol+0x174>
    6b38:	8f e9       	ldi	r24, 0x9F	; 159
    6b3a:	86 0d       	add	r24, r6
    6b3c:	8a 31       	cpi	r24, 0x1A	; 26
    6b3e:	30 f5       	brcc	.+76     	; 0x6b8c <strtol+0x1bc>
    6b40:	89 ea       	ldi	r24, 0xA9	; 169
    6b42:	58 2e       	mov	r5, r24
    6b44:	56 0c       	add	r5, r6
    6b46:	85 2d       	mov	r24, r5
    6b48:	90 e0       	ldi	r25, 0x00	; 0
    6b4a:	8c 17       	cp	r24, r28
    6b4c:	9d 07       	cpc	r25, r29
    6b4e:	f4 f4       	brge	.+60     	; 0x6b8c <strtol+0x1bc>
    6b50:	67 fd       	sbrc	r22, 7
    6b52:	18 c0       	rjmp	.+48     	; 0x6b84 <strtol+0x1b4>
    6b54:	c2 16       	cp	r12, r18
    6b56:	d3 06       	cpc	r13, r19
    6b58:	e4 06       	cpc	r14, r20
    6b5a:	f5 06       	cpc	r15, r21
    6b5c:	80 f0       	brcs	.+32     	; 0x6b7e <strtol+0x1ae>
    6b5e:	c5 01       	movw	r24, r10
    6b60:	b4 01       	movw	r22, r8
    6b62:	0e 94 f9 38 	call	0x71f2	; 0x71f2 <__mulsi3>
    6b66:	9b 01       	movw	r18, r22
    6b68:	ac 01       	movw	r20, r24
    6b6a:	25 0d       	add	r18, r5
    6b6c:	31 1d       	adc	r19, r1
    6b6e:	41 1d       	adc	r20, r1
    6b70:	51 1d       	adc	r21, r1
    6b72:	21 30       	cpi	r18, 0x01	; 1
    6b74:	31 05       	cpc	r19, r1
    6b76:	41 05       	cpc	r20, r1
    6b78:	b0 e8       	ldi	r27, 0x80	; 128
    6b7a:	5b 07       	cpc	r21, r27
    6b7c:	10 f0       	brcs	.+4      	; 0x6b82 <strtol+0x1b2>
    6b7e:	6f ef       	ldi	r22, 0xFF	; 255
    6b80:	01 c0       	rjmp	.+2      	; 0x6b84 <strtol+0x1b4>
    6b82:	61 e0       	ldi	r22, 0x01	; 1
    6b84:	31 96       	adiw	r30, 0x01	; 1
    6b86:	d1 01       	movw	r26, r2
    6b88:	6c 90       	ld	r6, X
    6b8a:	c8 cf       	rjmp	.-112    	; 0x6b1c <strtol+0x14c>
    6b8c:	87 2d       	mov	r24, r7
    6b8e:	81 70       	andi	r24, 0x01	; 1
    6b90:	01 15       	cp	r16, r1
    6b92:	11 05       	cpc	r17, r1
    6b94:	71 f0       	breq	.+28     	; 0x6bb2 <strtol+0x1e2>
    6b96:	66 23       	and	r22, r22
    6b98:	29 f0       	breq	.+10     	; 0x6ba4 <strtol+0x1d4>
    6b9a:	31 97       	sbiw	r30, 0x01	; 1
    6b9c:	d8 01       	movw	r26, r16
    6b9e:	ed 93       	st	X+, r30
    6ba0:	fc 93       	st	X, r31
    6ba2:	07 c0       	rjmp	.+14     	; 0x6bb2 <strtol+0x1e2>
    6ba4:	71 fe       	sbrs	r7, 1
    6ba6:	19 c0       	rjmp	.+50     	; 0x6bda <strtol+0x20a>
    6ba8:	32 97       	sbiw	r30, 0x02	; 2
    6baa:	d8 01       	movw	r26, r16
    6bac:	ed 93       	st	X+, r30
    6bae:	fc 93       	st	X, r31
    6bb0:	14 c0       	rjmp	.+40     	; 0x6bda <strtol+0x20a>
    6bb2:	67 ff       	sbrs	r22, 7
    6bb4:	12 c0       	rjmp	.+36     	; 0x6bda <strtol+0x20a>
    6bb6:	88 23       	and	r24, r24
    6bb8:	29 f0       	breq	.+10     	; 0x6bc4 <strtol+0x1f4>
    6bba:	20 e0       	ldi	r18, 0x00	; 0
    6bbc:	30 e0       	ldi	r19, 0x00	; 0
    6bbe:	40 e0       	ldi	r20, 0x00	; 0
    6bc0:	50 e8       	ldi	r21, 0x80	; 128
    6bc2:	04 c0       	rjmp	.+8      	; 0x6bcc <strtol+0x1fc>
    6bc4:	2f ef       	ldi	r18, 0xFF	; 255
    6bc6:	3f ef       	ldi	r19, 0xFF	; 255
    6bc8:	4f ef       	ldi	r20, 0xFF	; 255
    6bca:	5f e7       	ldi	r21, 0x7F	; 127
    6bcc:	82 e2       	ldi	r24, 0x22	; 34
    6bce:	90 e0       	ldi	r25, 0x00	; 0
    6bd0:	90 93 37 01 	sts	0x0137, r25
    6bd4:	80 93 36 01 	sts	0x0136, r24
    6bd8:	16 c0       	rjmp	.+44     	; 0x6c06 <strtol+0x236>
    6bda:	88 23       	and	r24, r24
    6bdc:	41 f0       	breq	.+16     	; 0x6bee <strtol+0x21e>
    6bde:	50 95       	com	r21
    6be0:	40 95       	com	r20
    6be2:	30 95       	com	r19
    6be4:	21 95       	neg	r18
    6be6:	3f 4f       	sbci	r19, 0xFF	; 255
    6be8:	4f 4f       	sbci	r20, 0xFF	; 255
    6bea:	5f 4f       	sbci	r21, 0xFF	; 255
    6bec:	0c c0       	rjmp	.+24     	; 0x6c06 <strtol+0x236>
    6bee:	57 ff       	sbrs	r21, 7
    6bf0:	0a c0       	rjmp	.+20     	; 0x6c06 <strtol+0x236>
    6bf2:	82 e2       	ldi	r24, 0x22	; 34
    6bf4:	90 e0       	ldi	r25, 0x00	; 0
    6bf6:	90 93 37 01 	sts	0x0137, r25
    6bfa:	80 93 36 01 	sts	0x0136, r24
    6bfe:	2f ef       	ldi	r18, 0xFF	; 255
    6c00:	3f ef       	ldi	r19, 0xFF	; 255
    6c02:	4f ef       	ldi	r20, 0xFF	; 255
    6c04:	5f e7       	ldi	r21, 0x7F	; 127
    6c06:	b9 01       	movw	r22, r18
    6c08:	ca 01       	movw	r24, r20
    6c0a:	04 c0       	rjmp	.+8      	; 0x6c14 <strtol+0x244>
    6c0c:	60 e0       	ldi	r22, 0x00	; 0
    6c0e:	70 e0       	ldi	r23, 0x00	; 0
    6c10:	80 e0       	ldi	r24, 0x00	; 0
    6c12:	90 e0       	ldi	r25, 0x00	; 0
    6c14:	df 91       	pop	r29
    6c16:	cf 91       	pop	r28
    6c18:	1f 91       	pop	r17
    6c1a:	0f 91       	pop	r16
    6c1c:	ff 90       	pop	r15
    6c1e:	ef 90       	pop	r14
    6c20:	df 90       	pop	r13
    6c22:	cf 90       	pop	r12
    6c24:	bf 90       	pop	r11
    6c26:	af 90       	pop	r10
    6c28:	9f 90       	pop	r9
    6c2a:	8f 90       	pop	r8
    6c2c:	7f 90       	pop	r7
    6c2e:	6f 90       	pop	r6
    6c30:	5f 90       	pop	r5
    6c32:	3f 90       	pop	r3
    6c34:	2f 90       	pop	r2
    6c36:	08 95       	ret

00006c38 <isspace>:
    6c38:	91 11       	cpse	r25, r1
    6c3a:	15 c2       	rjmp	.+1066   	; 0x7066 <__ctype_isfalse>
    6c3c:	80 32       	cpi	r24, 0x20	; 32
    6c3e:	19 f0       	breq	.+6      	; 0x6c46 <isspace+0xe>
    6c40:	89 50       	subi	r24, 0x09	; 9
    6c42:	85 50       	subi	r24, 0x05	; 5
    6c44:	d0 f7       	brcc	.-12     	; 0x6c3a <isspace+0x2>
    6c46:	08 95       	ret

00006c48 <strrev>:
    6c48:	dc 01       	movw	r26, r24
    6c4a:	fc 01       	movw	r30, r24
    6c4c:	67 2f       	mov	r22, r23
    6c4e:	71 91       	ld	r23, Z+
    6c50:	77 23       	and	r23, r23
    6c52:	e1 f7       	brne	.-8      	; 0x6c4c <strrev+0x4>
    6c54:	32 97       	sbiw	r30, 0x02	; 2
    6c56:	04 c0       	rjmp	.+8      	; 0x6c60 <strrev+0x18>
    6c58:	7c 91       	ld	r23, X
    6c5a:	6d 93       	st	X+, r22
    6c5c:	70 83       	st	Z, r23
    6c5e:	62 91       	ld	r22, -Z
    6c60:	ae 17       	cp	r26, r30
    6c62:	bf 07       	cpc	r27, r31
    6c64:	c8 f3       	brcs	.-14     	; 0x6c58 <strrev+0x10>
    6c66:	08 95       	ret

00006c68 <sprintf>:
    6c68:	ae e0       	ldi	r26, 0x0E	; 14
    6c6a:	b0 e0       	ldi	r27, 0x00	; 0
    6c6c:	ea e3       	ldi	r30, 0x3A	; 58
    6c6e:	f6 e3       	ldi	r31, 0x36	; 54
    6c70:	0c 94 6b 39 	jmp	0x72d6	; 0x72d6 <__prologue_saves__+0x1c>
    6c74:	0d 89       	ldd	r16, Y+21	; 0x15
    6c76:	1e 89       	ldd	r17, Y+22	; 0x16
    6c78:	86 e0       	ldi	r24, 0x06	; 6
    6c7a:	8c 83       	std	Y+4, r24	; 0x04
    6c7c:	1a 83       	std	Y+2, r17	; 0x02
    6c7e:	09 83       	std	Y+1, r16	; 0x01
    6c80:	8f ef       	ldi	r24, 0xFF	; 255
    6c82:	9f e7       	ldi	r25, 0x7F	; 127
    6c84:	9e 83       	std	Y+6, r25	; 0x06
    6c86:	8d 83       	std	Y+5, r24	; 0x05
    6c88:	ae 01       	movw	r20, r28
    6c8a:	47 5e       	subi	r20, 0xE7	; 231
    6c8c:	5f 4f       	sbci	r21, 0xFF	; 255
    6c8e:	6f 89       	ldd	r22, Y+23	; 0x17
    6c90:	78 8d       	ldd	r23, Y+24	; 0x18
    6c92:	ce 01       	movw	r24, r28
    6c94:	01 96       	adiw	r24, 0x01	; 1
    6c96:	0e 94 56 36 	call	0x6cac	; 0x6cac <vfprintf>
    6c9a:	ef 81       	ldd	r30, Y+7	; 0x07
    6c9c:	f8 85       	ldd	r31, Y+8	; 0x08
    6c9e:	e0 0f       	add	r30, r16
    6ca0:	f1 1f       	adc	r31, r17
    6ca2:	10 82       	st	Z, r1
    6ca4:	2e 96       	adiw	r28, 0x0e	; 14
    6ca6:	e4 e0       	ldi	r30, 0x04	; 4
    6ca8:	0c 94 87 39 	jmp	0x730e	; 0x730e <__epilogue_restores__+0x1c>

00006cac <vfprintf>:
    6cac:	ac e0       	ldi	r26, 0x0C	; 12
    6cae:	b0 e0       	ldi	r27, 0x00	; 0
    6cb0:	ec e5       	ldi	r30, 0x5C	; 92
    6cb2:	f6 e3       	ldi	r31, 0x36	; 54
    6cb4:	0c 94 5d 39 	jmp	0x72ba	; 0x72ba <__prologue_saves__>
    6cb8:	7c 01       	movw	r14, r24
    6cba:	6b 01       	movw	r12, r22
    6cbc:	8a 01       	movw	r16, r20
    6cbe:	fc 01       	movw	r30, r24
    6cc0:	17 82       	std	Z+7, r1	; 0x07
    6cc2:	16 82       	std	Z+6, r1	; 0x06
    6cc4:	83 81       	ldd	r24, Z+3	; 0x03
    6cc6:	81 ff       	sbrs	r24, 1
    6cc8:	bd c1       	rjmp	.+890    	; 0x7044 <vfprintf+0x398>
    6cca:	ce 01       	movw	r24, r28
    6ccc:	01 96       	adiw	r24, 0x01	; 1
    6cce:	4c 01       	movw	r8, r24
    6cd0:	f7 01       	movw	r30, r14
    6cd2:	93 81       	ldd	r25, Z+3	; 0x03
    6cd4:	f6 01       	movw	r30, r12
    6cd6:	93 fd       	sbrc	r25, 3
    6cd8:	85 91       	lpm	r24, Z+
    6cda:	93 ff       	sbrs	r25, 3
    6cdc:	81 91       	ld	r24, Z+
    6cde:	6f 01       	movw	r12, r30
    6ce0:	88 23       	and	r24, r24
    6ce2:	09 f4       	brne	.+2      	; 0x6ce6 <vfprintf+0x3a>
    6ce4:	ab c1       	rjmp	.+854    	; 0x703c <vfprintf+0x390>
    6ce6:	85 32       	cpi	r24, 0x25	; 37
    6ce8:	39 f4       	brne	.+14     	; 0x6cf8 <vfprintf+0x4c>
    6cea:	93 fd       	sbrc	r25, 3
    6cec:	85 91       	lpm	r24, Z+
    6cee:	93 ff       	sbrs	r25, 3
    6cf0:	81 91       	ld	r24, Z+
    6cf2:	6f 01       	movw	r12, r30
    6cf4:	85 32       	cpi	r24, 0x25	; 37
    6cf6:	29 f4       	brne	.+10     	; 0x6d02 <vfprintf+0x56>
    6cf8:	b7 01       	movw	r22, r14
    6cfa:	90 e0       	ldi	r25, 0x00	; 0
    6cfc:	0e 94 4c 38 	call	0x7098	; 0x7098 <fputc>
    6d00:	e7 cf       	rjmp	.-50     	; 0x6cd0 <vfprintf+0x24>
    6d02:	51 2c       	mov	r5, r1
    6d04:	31 2c       	mov	r3, r1
    6d06:	20 e0       	ldi	r18, 0x00	; 0
    6d08:	20 32       	cpi	r18, 0x20	; 32
    6d0a:	a0 f4       	brcc	.+40     	; 0x6d34 <vfprintf+0x88>
    6d0c:	8b 32       	cpi	r24, 0x2B	; 43
    6d0e:	69 f0       	breq	.+26     	; 0x6d2a <vfprintf+0x7e>
    6d10:	30 f4       	brcc	.+12     	; 0x6d1e <vfprintf+0x72>
    6d12:	80 32       	cpi	r24, 0x20	; 32
    6d14:	59 f0       	breq	.+22     	; 0x6d2c <vfprintf+0x80>
    6d16:	83 32       	cpi	r24, 0x23	; 35
    6d18:	69 f4       	brne	.+26     	; 0x6d34 <vfprintf+0x88>
    6d1a:	20 61       	ori	r18, 0x10	; 16
    6d1c:	2c c0       	rjmp	.+88     	; 0x6d76 <vfprintf+0xca>
    6d1e:	8d 32       	cpi	r24, 0x2D	; 45
    6d20:	39 f0       	breq	.+14     	; 0x6d30 <vfprintf+0x84>
    6d22:	80 33       	cpi	r24, 0x30	; 48
    6d24:	39 f4       	brne	.+14     	; 0x6d34 <vfprintf+0x88>
    6d26:	21 60       	ori	r18, 0x01	; 1
    6d28:	26 c0       	rjmp	.+76     	; 0x6d76 <vfprintf+0xca>
    6d2a:	22 60       	ori	r18, 0x02	; 2
    6d2c:	24 60       	ori	r18, 0x04	; 4
    6d2e:	23 c0       	rjmp	.+70     	; 0x6d76 <vfprintf+0xca>
    6d30:	28 60       	ori	r18, 0x08	; 8
    6d32:	21 c0       	rjmp	.+66     	; 0x6d76 <vfprintf+0xca>
    6d34:	27 fd       	sbrc	r18, 7
    6d36:	27 c0       	rjmp	.+78     	; 0x6d86 <vfprintf+0xda>
    6d38:	30 ed       	ldi	r19, 0xD0	; 208
    6d3a:	38 0f       	add	r19, r24
    6d3c:	3a 30       	cpi	r19, 0x0A	; 10
    6d3e:	78 f4       	brcc	.+30     	; 0x6d5e <vfprintf+0xb2>
    6d40:	26 ff       	sbrs	r18, 6
    6d42:	06 c0       	rjmp	.+12     	; 0x6d50 <vfprintf+0xa4>
    6d44:	fa e0       	ldi	r31, 0x0A	; 10
    6d46:	5f 9e       	mul	r5, r31
    6d48:	30 0d       	add	r19, r0
    6d4a:	11 24       	eor	r1, r1
    6d4c:	53 2e       	mov	r5, r19
    6d4e:	13 c0       	rjmp	.+38     	; 0x6d76 <vfprintf+0xca>
    6d50:	8a e0       	ldi	r24, 0x0A	; 10
    6d52:	38 9e       	mul	r3, r24
    6d54:	30 0d       	add	r19, r0
    6d56:	11 24       	eor	r1, r1
    6d58:	33 2e       	mov	r3, r19
    6d5a:	20 62       	ori	r18, 0x20	; 32
    6d5c:	0c c0       	rjmp	.+24     	; 0x6d76 <vfprintf+0xca>
    6d5e:	8e 32       	cpi	r24, 0x2E	; 46
    6d60:	21 f4       	brne	.+8      	; 0x6d6a <vfprintf+0xbe>
    6d62:	26 fd       	sbrc	r18, 6
    6d64:	6b c1       	rjmp	.+726    	; 0x703c <vfprintf+0x390>
    6d66:	20 64       	ori	r18, 0x40	; 64
    6d68:	06 c0       	rjmp	.+12     	; 0x6d76 <vfprintf+0xca>
    6d6a:	8c 36       	cpi	r24, 0x6C	; 108
    6d6c:	11 f4       	brne	.+4      	; 0x6d72 <vfprintf+0xc6>
    6d6e:	20 68       	ori	r18, 0x80	; 128
    6d70:	02 c0       	rjmp	.+4      	; 0x6d76 <vfprintf+0xca>
    6d72:	88 36       	cpi	r24, 0x68	; 104
    6d74:	41 f4       	brne	.+16     	; 0x6d86 <vfprintf+0xda>
    6d76:	f6 01       	movw	r30, r12
    6d78:	93 fd       	sbrc	r25, 3
    6d7a:	85 91       	lpm	r24, Z+
    6d7c:	93 ff       	sbrs	r25, 3
    6d7e:	81 91       	ld	r24, Z+
    6d80:	6f 01       	movw	r12, r30
    6d82:	81 11       	cpse	r24, r1
    6d84:	c1 cf       	rjmp	.-126    	; 0x6d08 <vfprintf+0x5c>
    6d86:	98 2f       	mov	r25, r24
    6d88:	9f 7d       	andi	r25, 0xDF	; 223
    6d8a:	95 54       	subi	r25, 0x45	; 69
    6d8c:	93 30       	cpi	r25, 0x03	; 3
    6d8e:	28 f4       	brcc	.+10     	; 0x6d9a <vfprintf+0xee>
    6d90:	0c 5f       	subi	r16, 0xFC	; 252
    6d92:	1f 4f       	sbci	r17, 0xFF	; 255
    6d94:	ff e3       	ldi	r31, 0x3F	; 63
    6d96:	f9 83       	std	Y+1, r31	; 0x01
    6d98:	0d c0       	rjmp	.+26     	; 0x6db4 <vfprintf+0x108>
    6d9a:	83 36       	cpi	r24, 0x63	; 99
    6d9c:	31 f0       	breq	.+12     	; 0x6daa <vfprintf+0xfe>
    6d9e:	83 37       	cpi	r24, 0x73	; 115
    6da0:	71 f0       	breq	.+28     	; 0x6dbe <vfprintf+0x112>
    6da2:	83 35       	cpi	r24, 0x53	; 83
    6da4:	09 f0       	breq	.+2      	; 0x6da8 <vfprintf+0xfc>
    6da6:	5b c0       	rjmp	.+182    	; 0x6e5e <vfprintf+0x1b2>
    6da8:	22 c0       	rjmp	.+68     	; 0x6dee <vfprintf+0x142>
    6daa:	f8 01       	movw	r30, r16
    6dac:	80 81       	ld	r24, Z
    6dae:	89 83       	std	Y+1, r24	; 0x01
    6db0:	0e 5f       	subi	r16, 0xFE	; 254
    6db2:	1f 4f       	sbci	r17, 0xFF	; 255
    6db4:	44 24       	eor	r4, r4
    6db6:	43 94       	inc	r4
    6db8:	51 2c       	mov	r5, r1
    6dba:	54 01       	movw	r10, r8
    6dbc:	15 c0       	rjmp	.+42     	; 0x6de8 <vfprintf+0x13c>
    6dbe:	38 01       	movw	r6, r16
    6dc0:	f2 e0       	ldi	r31, 0x02	; 2
    6dc2:	6f 0e       	add	r6, r31
    6dc4:	71 1c       	adc	r7, r1
    6dc6:	f8 01       	movw	r30, r16
    6dc8:	a0 80       	ld	r10, Z
    6dca:	b1 80       	ldd	r11, Z+1	; 0x01
    6dcc:	26 ff       	sbrs	r18, 6
    6dce:	03 c0       	rjmp	.+6      	; 0x6dd6 <vfprintf+0x12a>
    6dd0:	65 2d       	mov	r22, r5
    6dd2:	70 e0       	ldi	r23, 0x00	; 0
    6dd4:	02 c0       	rjmp	.+4      	; 0x6dda <vfprintf+0x12e>
    6dd6:	6f ef       	ldi	r22, 0xFF	; 255
    6dd8:	7f ef       	ldi	r23, 0xFF	; 255
    6dda:	c5 01       	movw	r24, r10
    6ddc:	2c 87       	std	Y+12, r18	; 0x0c
    6dde:	0e 94 41 38 	call	0x7082	; 0x7082 <strnlen>
    6de2:	2c 01       	movw	r4, r24
    6de4:	83 01       	movw	r16, r6
    6de6:	2c 85       	ldd	r18, Y+12	; 0x0c
    6de8:	2f 77       	andi	r18, 0x7F	; 127
    6dea:	22 2e       	mov	r2, r18
    6dec:	17 c0       	rjmp	.+46     	; 0x6e1c <vfprintf+0x170>
    6dee:	38 01       	movw	r6, r16
    6df0:	f2 e0       	ldi	r31, 0x02	; 2
    6df2:	6f 0e       	add	r6, r31
    6df4:	71 1c       	adc	r7, r1
    6df6:	f8 01       	movw	r30, r16
    6df8:	a0 80       	ld	r10, Z
    6dfa:	b1 80       	ldd	r11, Z+1	; 0x01
    6dfc:	26 ff       	sbrs	r18, 6
    6dfe:	03 c0       	rjmp	.+6      	; 0x6e06 <vfprintf+0x15a>
    6e00:	65 2d       	mov	r22, r5
    6e02:	70 e0       	ldi	r23, 0x00	; 0
    6e04:	02 c0       	rjmp	.+4      	; 0x6e0a <vfprintf+0x15e>
    6e06:	6f ef       	ldi	r22, 0xFF	; 255
    6e08:	7f ef       	ldi	r23, 0xFF	; 255
    6e0a:	c5 01       	movw	r24, r10
    6e0c:	2c 87       	std	Y+12, r18	; 0x0c
    6e0e:	0e 94 36 38 	call	0x706c	; 0x706c <strnlen_P>
    6e12:	2c 01       	movw	r4, r24
    6e14:	2c 85       	ldd	r18, Y+12	; 0x0c
    6e16:	20 68       	ori	r18, 0x80	; 128
    6e18:	22 2e       	mov	r2, r18
    6e1a:	83 01       	movw	r16, r6
    6e1c:	23 fc       	sbrc	r2, 3
    6e1e:	1b c0       	rjmp	.+54     	; 0x6e56 <vfprintf+0x1aa>
    6e20:	83 2d       	mov	r24, r3
    6e22:	90 e0       	ldi	r25, 0x00	; 0
    6e24:	48 16       	cp	r4, r24
    6e26:	59 06       	cpc	r5, r25
    6e28:	b0 f4       	brcc	.+44     	; 0x6e56 <vfprintf+0x1aa>
    6e2a:	b7 01       	movw	r22, r14
    6e2c:	80 e2       	ldi	r24, 0x20	; 32
    6e2e:	90 e0       	ldi	r25, 0x00	; 0
    6e30:	0e 94 4c 38 	call	0x7098	; 0x7098 <fputc>
    6e34:	3a 94       	dec	r3
    6e36:	f4 cf       	rjmp	.-24     	; 0x6e20 <vfprintf+0x174>
    6e38:	f5 01       	movw	r30, r10
    6e3a:	27 fc       	sbrc	r2, 7
    6e3c:	85 91       	lpm	r24, Z+
    6e3e:	27 fe       	sbrs	r2, 7
    6e40:	81 91       	ld	r24, Z+
    6e42:	5f 01       	movw	r10, r30
    6e44:	b7 01       	movw	r22, r14
    6e46:	90 e0       	ldi	r25, 0x00	; 0
    6e48:	0e 94 4c 38 	call	0x7098	; 0x7098 <fputc>
    6e4c:	31 10       	cpse	r3, r1
    6e4e:	3a 94       	dec	r3
    6e50:	f1 e0       	ldi	r31, 0x01	; 1
    6e52:	4f 1a       	sub	r4, r31
    6e54:	51 08       	sbc	r5, r1
    6e56:	41 14       	cp	r4, r1
    6e58:	51 04       	cpc	r5, r1
    6e5a:	71 f7       	brne	.-36     	; 0x6e38 <vfprintf+0x18c>
    6e5c:	e5 c0       	rjmp	.+458    	; 0x7028 <vfprintf+0x37c>
    6e5e:	84 36       	cpi	r24, 0x64	; 100
    6e60:	11 f0       	breq	.+4      	; 0x6e66 <vfprintf+0x1ba>
    6e62:	89 36       	cpi	r24, 0x69	; 105
    6e64:	39 f5       	brne	.+78     	; 0x6eb4 <vfprintf+0x208>
    6e66:	f8 01       	movw	r30, r16
    6e68:	27 ff       	sbrs	r18, 7
    6e6a:	07 c0       	rjmp	.+14     	; 0x6e7a <vfprintf+0x1ce>
    6e6c:	60 81       	ld	r22, Z
    6e6e:	71 81       	ldd	r23, Z+1	; 0x01
    6e70:	82 81       	ldd	r24, Z+2	; 0x02
    6e72:	93 81       	ldd	r25, Z+3	; 0x03
    6e74:	0c 5f       	subi	r16, 0xFC	; 252
    6e76:	1f 4f       	sbci	r17, 0xFF	; 255
    6e78:	08 c0       	rjmp	.+16     	; 0x6e8a <vfprintf+0x1de>
    6e7a:	60 81       	ld	r22, Z
    6e7c:	71 81       	ldd	r23, Z+1	; 0x01
    6e7e:	88 27       	eor	r24, r24
    6e80:	77 fd       	sbrc	r23, 7
    6e82:	80 95       	com	r24
    6e84:	98 2f       	mov	r25, r24
    6e86:	0e 5f       	subi	r16, 0xFE	; 254
    6e88:	1f 4f       	sbci	r17, 0xFF	; 255
    6e8a:	2f 76       	andi	r18, 0x6F	; 111
    6e8c:	b2 2e       	mov	r11, r18
    6e8e:	97 ff       	sbrs	r25, 7
    6e90:	09 c0       	rjmp	.+18     	; 0x6ea4 <vfprintf+0x1f8>
    6e92:	90 95       	com	r25
    6e94:	80 95       	com	r24
    6e96:	70 95       	com	r23
    6e98:	61 95       	neg	r22
    6e9a:	7f 4f       	sbci	r23, 0xFF	; 255
    6e9c:	8f 4f       	sbci	r24, 0xFF	; 255
    6e9e:	9f 4f       	sbci	r25, 0xFF	; 255
    6ea0:	20 68       	ori	r18, 0x80	; 128
    6ea2:	b2 2e       	mov	r11, r18
    6ea4:	2a e0       	ldi	r18, 0x0A	; 10
    6ea6:	30 e0       	ldi	r19, 0x00	; 0
    6ea8:	a4 01       	movw	r20, r8
    6eaa:	0e 94 7e 38 	call	0x70fc	; 0x70fc <__ultoa_invert>
    6eae:	a8 2e       	mov	r10, r24
    6eb0:	a8 18       	sub	r10, r8
    6eb2:	44 c0       	rjmp	.+136    	; 0x6f3c <vfprintf+0x290>
    6eb4:	85 37       	cpi	r24, 0x75	; 117
    6eb6:	29 f4       	brne	.+10     	; 0x6ec2 <vfprintf+0x216>
    6eb8:	2f 7e       	andi	r18, 0xEF	; 239
    6eba:	b2 2e       	mov	r11, r18
    6ebc:	2a e0       	ldi	r18, 0x0A	; 10
    6ebe:	30 e0       	ldi	r19, 0x00	; 0
    6ec0:	25 c0       	rjmp	.+74     	; 0x6f0c <vfprintf+0x260>
    6ec2:	f2 2f       	mov	r31, r18
    6ec4:	f9 7f       	andi	r31, 0xF9	; 249
    6ec6:	bf 2e       	mov	r11, r31
    6ec8:	8f 36       	cpi	r24, 0x6F	; 111
    6eca:	c1 f0       	breq	.+48     	; 0x6efc <vfprintf+0x250>
    6ecc:	18 f4       	brcc	.+6      	; 0x6ed4 <vfprintf+0x228>
    6ece:	88 35       	cpi	r24, 0x58	; 88
    6ed0:	79 f0       	breq	.+30     	; 0x6ef0 <vfprintf+0x244>
    6ed2:	b4 c0       	rjmp	.+360    	; 0x703c <vfprintf+0x390>
    6ed4:	80 37       	cpi	r24, 0x70	; 112
    6ed6:	19 f0       	breq	.+6      	; 0x6ede <vfprintf+0x232>
    6ed8:	88 37       	cpi	r24, 0x78	; 120
    6eda:	21 f0       	breq	.+8      	; 0x6ee4 <vfprintf+0x238>
    6edc:	af c0       	rjmp	.+350    	; 0x703c <vfprintf+0x390>
    6ede:	2f 2f       	mov	r18, r31
    6ee0:	20 61       	ori	r18, 0x10	; 16
    6ee2:	b2 2e       	mov	r11, r18
    6ee4:	b4 fe       	sbrs	r11, 4
    6ee6:	0d c0       	rjmp	.+26     	; 0x6f02 <vfprintf+0x256>
    6ee8:	8b 2d       	mov	r24, r11
    6eea:	84 60       	ori	r24, 0x04	; 4
    6eec:	b8 2e       	mov	r11, r24
    6eee:	09 c0       	rjmp	.+18     	; 0x6f02 <vfprintf+0x256>
    6ef0:	24 ff       	sbrs	r18, 4
    6ef2:	0a c0       	rjmp	.+20     	; 0x6f08 <vfprintf+0x25c>
    6ef4:	9f 2f       	mov	r25, r31
    6ef6:	96 60       	ori	r25, 0x06	; 6
    6ef8:	b9 2e       	mov	r11, r25
    6efa:	06 c0       	rjmp	.+12     	; 0x6f08 <vfprintf+0x25c>
    6efc:	28 e0       	ldi	r18, 0x08	; 8
    6efe:	30 e0       	ldi	r19, 0x00	; 0
    6f00:	05 c0       	rjmp	.+10     	; 0x6f0c <vfprintf+0x260>
    6f02:	20 e1       	ldi	r18, 0x10	; 16
    6f04:	30 e0       	ldi	r19, 0x00	; 0
    6f06:	02 c0       	rjmp	.+4      	; 0x6f0c <vfprintf+0x260>
    6f08:	20 e1       	ldi	r18, 0x10	; 16
    6f0a:	32 e0       	ldi	r19, 0x02	; 2
    6f0c:	f8 01       	movw	r30, r16
    6f0e:	b7 fe       	sbrs	r11, 7
    6f10:	07 c0       	rjmp	.+14     	; 0x6f20 <vfprintf+0x274>
    6f12:	60 81       	ld	r22, Z
    6f14:	71 81       	ldd	r23, Z+1	; 0x01
    6f16:	82 81       	ldd	r24, Z+2	; 0x02
    6f18:	93 81       	ldd	r25, Z+3	; 0x03
    6f1a:	0c 5f       	subi	r16, 0xFC	; 252
    6f1c:	1f 4f       	sbci	r17, 0xFF	; 255
    6f1e:	06 c0       	rjmp	.+12     	; 0x6f2c <vfprintf+0x280>
    6f20:	60 81       	ld	r22, Z
    6f22:	71 81       	ldd	r23, Z+1	; 0x01
    6f24:	80 e0       	ldi	r24, 0x00	; 0
    6f26:	90 e0       	ldi	r25, 0x00	; 0
    6f28:	0e 5f       	subi	r16, 0xFE	; 254
    6f2a:	1f 4f       	sbci	r17, 0xFF	; 255
    6f2c:	a4 01       	movw	r20, r8
    6f2e:	0e 94 7e 38 	call	0x70fc	; 0x70fc <__ultoa_invert>
    6f32:	a8 2e       	mov	r10, r24
    6f34:	a8 18       	sub	r10, r8
    6f36:	fb 2d       	mov	r31, r11
    6f38:	ff 77       	andi	r31, 0x7F	; 127
    6f3a:	bf 2e       	mov	r11, r31
    6f3c:	b6 fe       	sbrs	r11, 6
    6f3e:	0b c0       	rjmp	.+22     	; 0x6f56 <vfprintf+0x2aa>
    6f40:	2b 2d       	mov	r18, r11
    6f42:	2e 7f       	andi	r18, 0xFE	; 254
    6f44:	a5 14       	cp	r10, r5
    6f46:	50 f4       	brcc	.+20     	; 0x6f5c <vfprintf+0x2b0>
    6f48:	b4 fe       	sbrs	r11, 4
    6f4a:	0a c0       	rjmp	.+20     	; 0x6f60 <vfprintf+0x2b4>
    6f4c:	b2 fc       	sbrc	r11, 2
    6f4e:	08 c0       	rjmp	.+16     	; 0x6f60 <vfprintf+0x2b4>
    6f50:	2b 2d       	mov	r18, r11
    6f52:	2e 7e       	andi	r18, 0xEE	; 238
    6f54:	05 c0       	rjmp	.+10     	; 0x6f60 <vfprintf+0x2b4>
    6f56:	7a 2c       	mov	r7, r10
    6f58:	2b 2d       	mov	r18, r11
    6f5a:	03 c0       	rjmp	.+6      	; 0x6f62 <vfprintf+0x2b6>
    6f5c:	7a 2c       	mov	r7, r10
    6f5e:	01 c0       	rjmp	.+2      	; 0x6f62 <vfprintf+0x2b6>
    6f60:	75 2c       	mov	r7, r5
    6f62:	24 ff       	sbrs	r18, 4
    6f64:	0d c0       	rjmp	.+26     	; 0x6f80 <vfprintf+0x2d4>
    6f66:	fe 01       	movw	r30, r28
    6f68:	ea 0d       	add	r30, r10
    6f6a:	f1 1d       	adc	r31, r1
    6f6c:	80 81       	ld	r24, Z
    6f6e:	80 33       	cpi	r24, 0x30	; 48
    6f70:	11 f4       	brne	.+4      	; 0x6f76 <vfprintf+0x2ca>
    6f72:	29 7e       	andi	r18, 0xE9	; 233
    6f74:	09 c0       	rjmp	.+18     	; 0x6f88 <vfprintf+0x2dc>
    6f76:	22 ff       	sbrs	r18, 2
    6f78:	06 c0       	rjmp	.+12     	; 0x6f86 <vfprintf+0x2da>
    6f7a:	73 94       	inc	r7
    6f7c:	73 94       	inc	r7
    6f7e:	04 c0       	rjmp	.+8      	; 0x6f88 <vfprintf+0x2dc>
    6f80:	82 2f       	mov	r24, r18
    6f82:	86 78       	andi	r24, 0x86	; 134
    6f84:	09 f0       	breq	.+2      	; 0x6f88 <vfprintf+0x2dc>
    6f86:	73 94       	inc	r7
    6f88:	23 fd       	sbrc	r18, 3
    6f8a:	13 c0       	rjmp	.+38     	; 0x6fb2 <vfprintf+0x306>
    6f8c:	20 ff       	sbrs	r18, 0
    6f8e:	06 c0       	rjmp	.+12     	; 0x6f9c <vfprintf+0x2f0>
    6f90:	5a 2c       	mov	r5, r10
    6f92:	73 14       	cp	r7, r3
    6f94:	18 f4       	brcc	.+6      	; 0x6f9c <vfprintf+0x2f0>
    6f96:	53 0c       	add	r5, r3
    6f98:	57 18       	sub	r5, r7
    6f9a:	73 2c       	mov	r7, r3
    6f9c:	73 14       	cp	r7, r3
    6f9e:	68 f4       	brcc	.+26     	; 0x6fba <vfprintf+0x30e>
    6fa0:	b7 01       	movw	r22, r14
    6fa2:	80 e2       	ldi	r24, 0x20	; 32
    6fa4:	90 e0       	ldi	r25, 0x00	; 0
    6fa6:	2c 87       	std	Y+12, r18	; 0x0c
    6fa8:	0e 94 4c 38 	call	0x7098	; 0x7098 <fputc>
    6fac:	73 94       	inc	r7
    6fae:	2c 85       	ldd	r18, Y+12	; 0x0c
    6fb0:	f5 cf       	rjmp	.-22     	; 0x6f9c <vfprintf+0x2f0>
    6fb2:	73 14       	cp	r7, r3
    6fb4:	10 f4       	brcc	.+4      	; 0x6fba <vfprintf+0x30e>
    6fb6:	37 18       	sub	r3, r7
    6fb8:	01 c0       	rjmp	.+2      	; 0x6fbc <vfprintf+0x310>
    6fba:	31 2c       	mov	r3, r1
    6fbc:	24 ff       	sbrs	r18, 4
    6fbe:	12 c0       	rjmp	.+36     	; 0x6fe4 <vfprintf+0x338>
    6fc0:	b7 01       	movw	r22, r14
    6fc2:	80 e3       	ldi	r24, 0x30	; 48
    6fc4:	90 e0       	ldi	r25, 0x00	; 0
    6fc6:	2c 87       	std	Y+12, r18	; 0x0c
    6fc8:	0e 94 4c 38 	call	0x7098	; 0x7098 <fputc>
    6fcc:	2c 85       	ldd	r18, Y+12	; 0x0c
    6fce:	22 ff       	sbrs	r18, 2
    6fd0:	17 c0       	rjmp	.+46     	; 0x7000 <vfprintf+0x354>
    6fd2:	21 ff       	sbrs	r18, 1
    6fd4:	03 c0       	rjmp	.+6      	; 0x6fdc <vfprintf+0x330>
    6fd6:	88 e5       	ldi	r24, 0x58	; 88
    6fd8:	90 e0       	ldi	r25, 0x00	; 0
    6fda:	02 c0       	rjmp	.+4      	; 0x6fe0 <vfprintf+0x334>
    6fdc:	88 e7       	ldi	r24, 0x78	; 120
    6fde:	90 e0       	ldi	r25, 0x00	; 0
    6fe0:	b7 01       	movw	r22, r14
    6fe2:	0c c0       	rjmp	.+24     	; 0x6ffc <vfprintf+0x350>
    6fe4:	82 2f       	mov	r24, r18
    6fe6:	86 78       	andi	r24, 0x86	; 134
    6fe8:	59 f0       	breq	.+22     	; 0x7000 <vfprintf+0x354>
    6fea:	21 fd       	sbrc	r18, 1
    6fec:	02 c0       	rjmp	.+4      	; 0x6ff2 <vfprintf+0x346>
    6fee:	80 e2       	ldi	r24, 0x20	; 32
    6ff0:	01 c0       	rjmp	.+2      	; 0x6ff4 <vfprintf+0x348>
    6ff2:	8b e2       	ldi	r24, 0x2B	; 43
    6ff4:	27 fd       	sbrc	r18, 7
    6ff6:	8d e2       	ldi	r24, 0x2D	; 45
    6ff8:	b7 01       	movw	r22, r14
    6ffa:	90 e0       	ldi	r25, 0x00	; 0
    6ffc:	0e 94 4c 38 	call	0x7098	; 0x7098 <fputc>
    7000:	a5 14       	cp	r10, r5
    7002:	38 f4       	brcc	.+14     	; 0x7012 <vfprintf+0x366>
    7004:	b7 01       	movw	r22, r14
    7006:	80 e3       	ldi	r24, 0x30	; 48
    7008:	90 e0       	ldi	r25, 0x00	; 0
    700a:	0e 94 4c 38 	call	0x7098	; 0x7098 <fputc>
    700e:	5a 94       	dec	r5
    7010:	f7 cf       	rjmp	.-18     	; 0x7000 <vfprintf+0x354>
    7012:	aa 94       	dec	r10
    7014:	f4 01       	movw	r30, r8
    7016:	ea 0d       	add	r30, r10
    7018:	f1 1d       	adc	r31, r1
    701a:	80 81       	ld	r24, Z
    701c:	b7 01       	movw	r22, r14
    701e:	90 e0       	ldi	r25, 0x00	; 0
    7020:	0e 94 4c 38 	call	0x7098	; 0x7098 <fputc>
    7024:	a1 10       	cpse	r10, r1
    7026:	f5 cf       	rjmp	.-22     	; 0x7012 <vfprintf+0x366>
    7028:	33 20       	and	r3, r3
    702a:	09 f4       	brne	.+2      	; 0x702e <vfprintf+0x382>
    702c:	51 ce       	rjmp	.-862    	; 0x6cd0 <vfprintf+0x24>
    702e:	b7 01       	movw	r22, r14
    7030:	80 e2       	ldi	r24, 0x20	; 32
    7032:	90 e0       	ldi	r25, 0x00	; 0
    7034:	0e 94 4c 38 	call	0x7098	; 0x7098 <fputc>
    7038:	3a 94       	dec	r3
    703a:	f6 cf       	rjmp	.-20     	; 0x7028 <vfprintf+0x37c>
    703c:	f7 01       	movw	r30, r14
    703e:	86 81       	ldd	r24, Z+6	; 0x06
    7040:	97 81       	ldd	r25, Z+7	; 0x07
    7042:	02 c0       	rjmp	.+4      	; 0x7048 <vfprintf+0x39c>
    7044:	8f ef       	ldi	r24, 0xFF	; 255
    7046:	9f ef       	ldi	r25, 0xFF	; 255
    7048:	2c 96       	adiw	r28, 0x0c	; 12
    704a:	e2 e1       	ldi	r30, 0x12	; 18
    704c:	0c 94 79 39 	jmp	0x72f2	; 0x72f2 <__epilogue_restores__>

00007050 <__eerd_word_m32>:
    7050:	a8 e1       	ldi	r26, 0x18	; 24
    7052:	b0 e0       	ldi	r27, 0x00	; 0
    7054:	42 e0       	ldi	r20, 0x02	; 2
    7056:	50 e0       	ldi	r21, 0x00	; 0
    7058:	0c 94 de 38 	jmp	0x71bc	; 0x71bc <__eerd_blraw_m32>

0000705c <__eewr_word_m32>:
    705c:	0e 94 ec 38 	call	0x71d8	; 0x71d8 <__eewr_byte_m32>
    7060:	27 2f       	mov	r18, r23
    7062:	0c 94 ed 38 	jmp	0x71da	; 0x71da <__eewr_r18_m32>

00007066 <__ctype_isfalse>:
    7066:	99 27       	eor	r25, r25
    7068:	88 27       	eor	r24, r24

0000706a <__ctype_istrue>:
    706a:	08 95       	ret

0000706c <strnlen_P>:
    706c:	fc 01       	movw	r30, r24
    706e:	05 90       	lpm	r0, Z+
    7070:	61 50       	subi	r22, 0x01	; 1
    7072:	70 40       	sbci	r23, 0x00	; 0
    7074:	01 10       	cpse	r0, r1
    7076:	d8 f7       	brcc	.-10     	; 0x706e <strnlen_P+0x2>
    7078:	80 95       	com	r24
    707a:	90 95       	com	r25
    707c:	8e 0f       	add	r24, r30
    707e:	9f 1f       	adc	r25, r31
    7080:	08 95       	ret

00007082 <strnlen>:
    7082:	fc 01       	movw	r30, r24
    7084:	61 50       	subi	r22, 0x01	; 1
    7086:	70 40       	sbci	r23, 0x00	; 0
    7088:	01 90       	ld	r0, Z+
    708a:	01 10       	cpse	r0, r1
    708c:	d8 f7       	brcc	.-10     	; 0x7084 <strnlen+0x2>
    708e:	80 95       	com	r24
    7090:	90 95       	com	r25
    7092:	8e 0f       	add	r24, r30
    7094:	9f 1f       	adc	r25, r31
    7096:	08 95       	ret

00007098 <fputc>:
    7098:	0f 93       	push	r16
    709a:	1f 93       	push	r17
    709c:	cf 93       	push	r28
    709e:	df 93       	push	r29
    70a0:	18 2f       	mov	r17, r24
    70a2:	09 2f       	mov	r16, r25
    70a4:	eb 01       	movw	r28, r22
    70a6:	8b 81       	ldd	r24, Y+3	; 0x03
    70a8:	81 fd       	sbrc	r24, 1
    70aa:	03 c0       	rjmp	.+6      	; 0x70b2 <fputc+0x1a>
    70ac:	8f ef       	ldi	r24, 0xFF	; 255
    70ae:	9f ef       	ldi	r25, 0xFF	; 255
    70b0:	20 c0       	rjmp	.+64     	; 0x70f2 <fputc+0x5a>
    70b2:	82 ff       	sbrs	r24, 2
    70b4:	10 c0       	rjmp	.+32     	; 0x70d6 <fputc+0x3e>
    70b6:	4e 81       	ldd	r20, Y+6	; 0x06
    70b8:	5f 81       	ldd	r21, Y+7	; 0x07
    70ba:	2c 81       	ldd	r18, Y+4	; 0x04
    70bc:	3d 81       	ldd	r19, Y+5	; 0x05
    70be:	42 17       	cp	r20, r18
    70c0:	53 07       	cpc	r21, r19
    70c2:	7c f4       	brge	.+30     	; 0x70e2 <fputc+0x4a>
    70c4:	e8 81       	ld	r30, Y
    70c6:	f9 81       	ldd	r31, Y+1	; 0x01
    70c8:	9f 01       	movw	r18, r30
    70ca:	2f 5f       	subi	r18, 0xFF	; 255
    70cc:	3f 4f       	sbci	r19, 0xFF	; 255
    70ce:	39 83       	std	Y+1, r19	; 0x01
    70d0:	28 83       	st	Y, r18
    70d2:	10 83       	st	Z, r17
    70d4:	06 c0       	rjmp	.+12     	; 0x70e2 <fputc+0x4a>
    70d6:	e8 85       	ldd	r30, Y+8	; 0x08
    70d8:	f9 85       	ldd	r31, Y+9	; 0x09
    70da:	81 2f       	mov	r24, r17
    70dc:	09 95       	icall
    70de:	89 2b       	or	r24, r25
    70e0:	29 f7       	brne	.-54     	; 0x70ac <fputc+0x14>
    70e2:	2e 81       	ldd	r18, Y+6	; 0x06
    70e4:	3f 81       	ldd	r19, Y+7	; 0x07
    70e6:	2f 5f       	subi	r18, 0xFF	; 255
    70e8:	3f 4f       	sbci	r19, 0xFF	; 255
    70ea:	3f 83       	std	Y+7, r19	; 0x07
    70ec:	2e 83       	std	Y+6, r18	; 0x06
    70ee:	81 2f       	mov	r24, r17
    70f0:	90 2f       	mov	r25, r16
    70f2:	df 91       	pop	r29
    70f4:	cf 91       	pop	r28
    70f6:	1f 91       	pop	r17
    70f8:	0f 91       	pop	r16
    70fa:	08 95       	ret

000070fc <__ultoa_invert>:
    70fc:	fa 01       	movw	r30, r20
    70fe:	aa 27       	eor	r26, r26
    7100:	28 30       	cpi	r18, 0x08	; 8
    7102:	51 f1       	breq	.+84     	; 0x7158 <__ultoa_invert+0x5c>
    7104:	20 31       	cpi	r18, 0x10	; 16
    7106:	81 f1       	breq	.+96     	; 0x7168 <__ultoa_invert+0x6c>
    7108:	e8 94       	clt
    710a:	6f 93       	push	r22
    710c:	6e 7f       	andi	r22, 0xFE	; 254
    710e:	6e 5f       	subi	r22, 0xFE	; 254
    7110:	7f 4f       	sbci	r23, 0xFF	; 255
    7112:	8f 4f       	sbci	r24, 0xFF	; 255
    7114:	9f 4f       	sbci	r25, 0xFF	; 255
    7116:	af 4f       	sbci	r26, 0xFF	; 255
    7118:	b1 e0       	ldi	r27, 0x01	; 1
    711a:	3e d0       	rcall	.+124    	; 0x7198 <__ultoa_invert+0x9c>
    711c:	b4 e0       	ldi	r27, 0x04	; 4
    711e:	3c d0       	rcall	.+120    	; 0x7198 <__ultoa_invert+0x9c>
    7120:	67 0f       	add	r22, r23
    7122:	78 1f       	adc	r23, r24
    7124:	89 1f       	adc	r24, r25
    7126:	9a 1f       	adc	r25, r26
    7128:	a1 1d       	adc	r26, r1
    712a:	68 0f       	add	r22, r24
    712c:	79 1f       	adc	r23, r25
    712e:	8a 1f       	adc	r24, r26
    7130:	91 1d       	adc	r25, r1
    7132:	a1 1d       	adc	r26, r1
    7134:	6a 0f       	add	r22, r26
    7136:	71 1d       	adc	r23, r1
    7138:	81 1d       	adc	r24, r1
    713a:	91 1d       	adc	r25, r1
    713c:	a1 1d       	adc	r26, r1
    713e:	20 d0       	rcall	.+64     	; 0x7180 <__ultoa_invert+0x84>
    7140:	09 f4       	brne	.+2      	; 0x7144 <__ultoa_invert+0x48>
    7142:	68 94       	set
    7144:	3f 91       	pop	r19
    7146:	2a e0       	ldi	r18, 0x0A	; 10
    7148:	26 9f       	mul	r18, r22
    714a:	11 24       	eor	r1, r1
    714c:	30 19       	sub	r19, r0
    714e:	30 5d       	subi	r19, 0xD0	; 208
    7150:	31 93       	st	Z+, r19
    7152:	de f6       	brtc	.-74     	; 0x710a <__ultoa_invert+0xe>
    7154:	cf 01       	movw	r24, r30
    7156:	08 95       	ret
    7158:	46 2f       	mov	r20, r22
    715a:	47 70       	andi	r20, 0x07	; 7
    715c:	40 5d       	subi	r20, 0xD0	; 208
    715e:	41 93       	st	Z+, r20
    7160:	b3 e0       	ldi	r27, 0x03	; 3
    7162:	0f d0       	rcall	.+30     	; 0x7182 <__ultoa_invert+0x86>
    7164:	c9 f7       	brne	.-14     	; 0x7158 <__ultoa_invert+0x5c>
    7166:	f6 cf       	rjmp	.-20     	; 0x7154 <__ultoa_invert+0x58>
    7168:	46 2f       	mov	r20, r22
    716a:	4f 70       	andi	r20, 0x0F	; 15
    716c:	40 5d       	subi	r20, 0xD0	; 208
    716e:	4a 33       	cpi	r20, 0x3A	; 58
    7170:	18 f0       	brcs	.+6      	; 0x7178 <__ultoa_invert+0x7c>
    7172:	49 5d       	subi	r20, 0xD9	; 217
    7174:	31 fd       	sbrc	r19, 1
    7176:	40 52       	subi	r20, 0x20	; 32
    7178:	41 93       	st	Z+, r20
    717a:	02 d0       	rcall	.+4      	; 0x7180 <__ultoa_invert+0x84>
    717c:	a9 f7       	brne	.-22     	; 0x7168 <__ultoa_invert+0x6c>
    717e:	ea cf       	rjmp	.-44     	; 0x7154 <__ultoa_invert+0x58>
    7180:	b4 e0       	ldi	r27, 0x04	; 4
    7182:	a6 95       	lsr	r26
    7184:	97 95       	ror	r25
    7186:	87 95       	ror	r24
    7188:	77 95       	ror	r23
    718a:	67 95       	ror	r22
    718c:	ba 95       	dec	r27
    718e:	c9 f7       	brne	.-14     	; 0x7182 <__ultoa_invert+0x86>
    7190:	00 97       	sbiw	r24, 0x00	; 0
    7192:	61 05       	cpc	r22, r1
    7194:	71 05       	cpc	r23, r1
    7196:	08 95       	ret
    7198:	9b 01       	movw	r18, r22
    719a:	ac 01       	movw	r20, r24
    719c:	0a 2e       	mov	r0, r26
    719e:	06 94       	lsr	r0
    71a0:	57 95       	ror	r21
    71a2:	47 95       	ror	r20
    71a4:	37 95       	ror	r19
    71a6:	27 95       	ror	r18
    71a8:	ba 95       	dec	r27
    71aa:	c9 f7       	brne	.-14     	; 0x719e <__ultoa_invert+0xa2>
    71ac:	62 0f       	add	r22, r18
    71ae:	73 1f       	adc	r23, r19
    71b0:	84 1f       	adc	r24, r20
    71b2:	95 1f       	adc	r25, r21
    71b4:	a0 1d       	adc	r26, r0
    71b6:	08 95       	ret

000071b8 <__eerd_block_m32>:
    71b8:	dc 01       	movw	r26, r24
    71ba:	cb 01       	movw	r24, r22

000071bc <__eerd_blraw_m32>:
    71bc:	fc 01       	movw	r30, r24
    71be:	e1 99       	sbic	0x1c, 1	; 28
    71c0:	fe cf       	rjmp	.-4      	; 0x71be <__eerd_blraw_m32+0x2>
    71c2:	06 c0       	rjmp	.+12     	; 0x71d0 <__eerd_blraw_m32+0x14>
    71c4:	ff bb       	out	0x1f, r31	; 31
    71c6:	ee bb       	out	0x1e, r30	; 30
    71c8:	e0 9a       	sbi	0x1c, 0	; 28
    71ca:	31 96       	adiw	r30, 0x01	; 1
    71cc:	0d b2       	in	r0, 0x1d	; 29
    71ce:	0d 92       	st	X+, r0
    71d0:	41 50       	subi	r20, 0x01	; 1
    71d2:	50 40       	sbci	r21, 0x00	; 0
    71d4:	b8 f7       	brcc	.-18     	; 0x71c4 <__eerd_blraw_m32+0x8>
    71d6:	08 95       	ret

000071d8 <__eewr_byte_m32>:
    71d8:	26 2f       	mov	r18, r22

000071da <__eewr_r18_m32>:
    71da:	e1 99       	sbic	0x1c, 1	; 28
    71dc:	fe cf       	rjmp	.-4      	; 0x71da <__eewr_r18_m32>
    71de:	9f bb       	out	0x1f, r25	; 31
    71e0:	8e bb       	out	0x1e, r24	; 30
    71e2:	2d bb       	out	0x1d, r18	; 29
    71e4:	0f b6       	in	r0, 0x3f	; 63
    71e6:	f8 94       	cli
    71e8:	e2 9a       	sbi	0x1c, 2	; 28
    71ea:	e1 9a       	sbi	0x1c, 1	; 28
    71ec:	0f be       	out	0x3f, r0	; 63
    71ee:	01 96       	adiw	r24, 0x01	; 1
    71f0:	08 95       	ret

000071f2 <__mulsi3>:
    71f2:	db 01       	movw	r26, r22
    71f4:	8f 93       	push	r24
    71f6:	9f 93       	push	r25
    71f8:	0e 94 4a 39 	call	0x7294	; 0x7294 <__muluhisi3>
    71fc:	bf 91       	pop	r27
    71fe:	af 91       	pop	r26
    7200:	a2 9f       	mul	r26, r18
    7202:	80 0d       	add	r24, r0
    7204:	91 1d       	adc	r25, r1
    7206:	a3 9f       	mul	r26, r19
    7208:	90 0d       	add	r25, r0
    720a:	b2 9f       	mul	r27, r18
    720c:	90 0d       	add	r25, r0
    720e:	11 24       	eor	r1, r1
    7210:	08 95       	ret

00007212 <__udivmodsi4>:
    7212:	a1 e2       	ldi	r26, 0x21	; 33
    7214:	1a 2e       	mov	r1, r26
    7216:	aa 1b       	sub	r26, r26
    7218:	bb 1b       	sub	r27, r27
    721a:	fd 01       	movw	r30, r26
    721c:	0d c0       	rjmp	.+26     	; 0x7238 <__udivmodsi4_ep>

0000721e <__udivmodsi4_loop>:
    721e:	aa 1f       	adc	r26, r26
    7220:	bb 1f       	adc	r27, r27
    7222:	ee 1f       	adc	r30, r30
    7224:	ff 1f       	adc	r31, r31
    7226:	a2 17       	cp	r26, r18
    7228:	b3 07       	cpc	r27, r19
    722a:	e4 07       	cpc	r30, r20
    722c:	f5 07       	cpc	r31, r21
    722e:	20 f0       	brcs	.+8      	; 0x7238 <__udivmodsi4_ep>
    7230:	a2 1b       	sub	r26, r18
    7232:	b3 0b       	sbc	r27, r19
    7234:	e4 0b       	sbc	r30, r20
    7236:	f5 0b       	sbc	r31, r21

00007238 <__udivmodsi4_ep>:
    7238:	66 1f       	adc	r22, r22
    723a:	77 1f       	adc	r23, r23
    723c:	88 1f       	adc	r24, r24
    723e:	99 1f       	adc	r25, r25
    7240:	1a 94       	dec	r1
    7242:	69 f7       	brne	.-38     	; 0x721e <__udivmodsi4_loop>
    7244:	60 95       	com	r22
    7246:	70 95       	com	r23
    7248:	80 95       	com	r24
    724a:	90 95       	com	r25
    724c:	9b 01       	movw	r18, r22
    724e:	ac 01       	movw	r20, r24
    7250:	bd 01       	movw	r22, r26
    7252:	cf 01       	movw	r24, r30
    7254:	08 95       	ret

00007256 <__divmodsi4>:
    7256:	05 2e       	mov	r0, r21
    7258:	97 fb       	bst	r25, 7
    725a:	1e f4       	brtc	.+6      	; 0x7262 <__divmodsi4+0xc>
    725c:	00 94       	com	r0
    725e:	0e 94 42 39 	call	0x7284	; 0x7284 <__negsi2>
    7262:	57 fd       	sbrc	r21, 7
    7264:	07 d0       	rcall	.+14     	; 0x7274 <__divmodsi4_neg2>
    7266:	0e 94 09 39 	call	0x7212	; 0x7212 <__udivmodsi4>
    726a:	07 fc       	sbrc	r0, 7
    726c:	03 d0       	rcall	.+6      	; 0x7274 <__divmodsi4_neg2>
    726e:	4e f4       	brtc	.+18     	; 0x7282 <__divmodsi4_exit>
    7270:	0c 94 42 39 	jmp	0x7284	; 0x7284 <__negsi2>

00007274 <__divmodsi4_neg2>:
    7274:	50 95       	com	r21
    7276:	40 95       	com	r20
    7278:	30 95       	com	r19
    727a:	21 95       	neg	r18
    727c:	3f 4f       	sbci	r19, 0xFF	; 255
    727e:	4f 4f       	sbci	r20, 0xFF	; 255
    7280:	5f 4f       	sbci	r21, 0xFF	; 255

00007282 <__divmodsi4_exit>:
    7282:	08 95       	ret

00007284 <__negsi2>:
    7284:	90 95       	com	r25
    7286:	80 95       	com	r24
    7288:	70 95       	com	r23
    728a:	61 95       	neg	r22
    728c:	7f 4f       	sbci	r23, 0xFF	; 255
    728e:	8f 4f       	sbci	r24, 0xFF	; 255
    7290:	9f 4f       	sbci	r25, 0xFF	; 255
    7292:	08 95       	ret

00007294 <__muluhisi3>:
    7294:	0e 94 94 39 	call	0x7328	; 0x7328 <__umulhisi3>
    7298:	a5 9f       	mul	r26, r21
    729a:	90 0d       	add	r25, r0
    729c:	b4 9f       	mul	r27, r20
    729e:	90 0d       	add	r25, r0
    72a0:	a4 9f       	mul	r26, r20
    72a2:	80 0d       	add	r24, r0
    72a4:	91 1d       	adc	r25, r1
    72a6:	11 24       	eor	r1, r1
    72a8:	08 95       	ret

000072aa <__mulshisi3>:
    72aa:	b7 ff       	sbrs	r27, 7
    72ac:	0c 94 4a 39 	jmp	0x7294	; 0x7294 <__muluhisi3>

000072b0 <__mulohisi3>:
    72b0:	0e 94 4a 39 	call	0x7294	; 0x7294 <__muluhisi3>
    72b4:	82 1b       	sub	r24, r18
    72b6:	93 0b       	sbc	r25, r19
    72b8:	08 95       	ret

000072ba <__prologue_saves__>:
    72ba:	2f 92       	push	r2
    72bc:	3f 92       	push	r3
    72be:	4f 92       	push	r4
    72c0:	5f 92       	push	r5
    72c2:	6f 92       	push	r6
    72c4:	7f 92       	push	r7
    72c6:	8f 92       	push	r8
    72c8:	9f 92       	push	r9
    72ca:	af 92       	push	r10
    72cc:	bf 92       	push	r11
    72ce:	cf 92       	push	r12
    72d0:	df 92       	push	r13
    72d2:	ef 92       	push	r14
    72d4:	ff 92       	push	r15
    72d6:	0f 93       	push	r16
    72d8:	1f 93       	push	r17
    72da:	cf 93       	push	r28
    72dc:	df 93       	push	r29
    72de:	cd b7       	in	r28, 0x3d	; 61
    72e0:	de b7       	in	r29, 0x3e	; 62
    72e2:	ca 1b       	sub	r28, r26
    72e4:	db 0b       	sbc	r29, r27
    72e6:	0f b6       	in	r0, 0x3f	; 63
    72e8:	f8 94       	cli
    72ea:	de bf       	out	0x3e, r29	; 62
    72ec:	0f be       	out	0x3f, r0	; 63
    72ee:	cd bf       	out	0x3d, r28	; 61
    72f0:	09 94       	ijmp

000072f2 <__epilogue_restores__>:
    72f2:	2a 88       	ldd	r2, Y+18	; 0x12
    72f4:	39 88       	ldd	r3, Y+17	; 0x11
    72f6:	48 88       	ldd	r4, Y+16	; 0x10
    72f8:	5f 84       	ldd	r5, Y+15	; 0x0f
    72fa:	6e 84       	ldd	r6, Y+14	; 0x0e
    72fc:	7d 84       	ldd	r7, Y+13	; 0x0d
    72fe:	8c 84       	ldd	r8, Y+12	; 0x0c
    7300:	9b 84       	ldd	r9, Y+11	; 0x0b
    7302:	aa 84       	ldd	r10, Y+10	; 0x0a
    7304:	b9 84       	ldd	r11, Y+9	; 0x09
    7306:	c8 84       	ldd	r12, Y+8	; 0x08
    7308:	df 80       	ldd	r13, Y+7	; 0x07
    730a:	ee 80       	ldd	r14, Y+6	; 0x06
    730c:	fd 80       	ldd	r15, Y+5	; 0x05
    730e:	0c 81       	ldd	r16, Y+4	; 0x04
    7310:	1b 81       	ldd	r17, Y+3	; 0x03
    7312:	aa 81       	ldd	r26, Y+2	; 0x02
    7314:	b9 81       	ldd	r27, Y+1	; 0x01
    7316:	ce 0f       	add	r28, r30
    7318:	d1 1d       	adc	r29, r1
    731a:	0f b6       	in	r0, 0x3f	; 63
    731c:	f8 94       	cli
    731e:	de bf       	out	0x3e, r29	; 62
    7320:	0f be       	out	0x3f, r0	; 63
    7322:	cd bf       	out	0x3d, r28	; 61
    7324:	ed 01       	movw	r28, r26
    7326:	08 95       	ret

00007328 <__umulhisi3>:
    7328:	a2 9f       	mul	r26, r18
    732a:	b0 01       	movw	r22, r0
    732c:	b3 9f       	mul	r27, r19
    732e:	c0 01       	movw	r24, r0
    7330:	a3 9f       	mul	r26, r19
    7332:	70 0d       	add	r23, r0
    7334:	81 1d       	adc	r24, r1
    7336:	11 24       	eor	r1, r1
    7338:	91 1d       	adc	r25, r1
    733a:	b2 9f       	mul	r27, r18
    733c:	70 0d       	add	r23, r0
    733e:	81 1d       	adc	r24, r1
    7340:	11 24       	eor	r1, r1
    7342:	91 1d       	adc	r25, r1
    7344:	08 95       	ret

00007346 <_exit>:
    7346:	f8 94       	cli

00007348 <__stop_program>:
    7348:	ff cf       	rjmp	.-2      	; 0x7348 <__stop_program>
